   1              		.cpu arm7tdmi
   2              		.fpu softvfp
   3              		.eabi_attribute 20, 1
   4              		.eabi_attribute 21, 1
   5              		.eabi_attribute 23, 3
   6              		.eabi_attribute 24, 1
   7              		.eabi_attribute 25, 1
   8              		.eabi_attribute 26, 1
   9              		.eabi_attribute 30, 6
  10              		.eabi_attribute 18, 4
  11              		.file	"proyecto.c"
  21              	.Ltext0:
  22              		.file 1 "../proyecto.c"
 2197              	newBeat:
 2198 0000 00       		.space	1
 2199              	newStep:
 2200 0001 00       		.space	1
 2201              		.global	flagTimer0
 2204              	flagTimer0:
 2205 0002 00       		.space	1
 2206              		.global	flagKeypad
 2209              	flagKeypad:
 2210 0003 00       		.space	1
 2211              		.global	flagPbs
 2214              	flagPbs:
 2215 0004 00       		.space	1
 2216              		.global	flagRtc
 2219              	flagRtc:
 2220 0005 00       		.space	1
 2221              		.global	sistemaEncendido
 2224              	sistemaEncendido:
 2225 0006 00       		.space	1
 2226              		.global	pintarMenuPrincipal
 2227              		.data
 2230              	pintarMenuPrincipal:
 2231 0000 01       		.byte	1
 2232              		.comm	rtc_time,7,4
 2233              		.comm	rtc_time_aux,7,4
 2234              		.comm	rtc_cronometro,7,4
 2235              		.comm	segundos_transcurridos,2,2
 2236              		.comm	contador_latidos,2,2
 2237              		.comm	contador_pasos,2,2
 2238              		.comm	total_pasos,2,2
 2239              		.comm	latidosPorMin,2,2
 2240              		.comm	pasosPorMin,2,2
 2241              		.global	prueba
 2242              		.bss
 2245              	prueba:
 2246 0007 00       		.space	1
 2247              		.text
 2248              		.align	2
 2249              		.global	main
 2251              	main:
 2252              	.LFB0:
   1:../proyecto.c **** 
   2:../proyecto.c **** //Autor Sergio Dominguez Alcala
   3:../proyecto.c **** #include <s3c44b0x.h>
   4:../proyecto.c **** #include <s3cev40.h>
   5:../proyecto.c **** #include <common_types.h>
   6:../proyecto.c **** #include <leds.h>
   7:../proyecto.c **** #include <system.h>
   8:../proyecto.c **** #include <uart.h>
   9:../proyecto.c **** #include <timers.h>
  10:../proyecto.c **** #include <keypad.h>
  11:../proyecto.c **** #include <pbs.h>
  12:../proyecto.c **** #include <lcd.h>
  13:../proyecto.c **** #include <rtc.h>
  14:../proyecto.c **** #include <ts.h>
  15:../proyecto.c **** #include "sensorsEmulator.h"
  16:../proyecto.c **** 
  17:../proyecto.c **** 
  18:../proyecto.c **** /*
  19:../proyecto.c **** ** Direcciones en donde se encuentran cargados los BMP tras la ejecucion en
  20:../proyecto.c **** ** la consola del depurador los comandos:
  21:../proyecto.c **** **   cd <ruta>
  22:../proyecto.c **** **   source load_bmp.txt
  23:../proyecto.c **** */
  24:../proyecto.c **** #define ARBOL      ((uint8 *)0x0c210000)
  25:../proyecto.c **** #define PADRINO    ((uint8 *)0x0c220000)
  26:../proyecto.c **** #define PICACHU    ((uint8 *)0x0c230000)
  27:../proyecto.c **** #define HARRY      ((uint8 *)0x0c240000)
  28:../proyecto.c **** #define CHAPLIN    ((uint8 *)0x0c250000)
  29:../proyecto.c **** #define PULP       ((uint8 *)0x0c260000)
  30:../proyecto.c **** #define MAPA       ((uint8 *)0x0c270000)
  31:../proyecto.c **** 
  32:../proyecto.c **** #define QM 12
  33:../proyecto.c **** #define FADD(a,b) ((a)+(b))
  34:../proyecto.c **** #define FSUB(a,b) ((a)-(b))
  35:../proyecto.c **** #define FMUL(a,b,q) (((a)*(b))>>(q))
  36:../proyecto.c **** #define FDIV(a,b,q) (((a)<<(q))/(b))
  37:../proyecto.c **** #define TOFIX(t,d,q) ((t)((d)*(double)(1ULL<<(q))))
  38:../proyecto.c **** typedef int32 fix32;
  39:../proyecto.c **** typedef int16 fix16;
  40:../proyecto.c **** #define PESO_CORPORAL 70.0  // En kilogramos
  41:../proyecto.c **** 
  42:../proyecto.c **** static void beatHandler( void ) __attribute__ ((interrupt ("IRQ")));
  43:../proyecto.c **** static void stepHandler( void ) __attribute__ ((interrupt ("IRQ")));
  44:../proyecto.c **** void isr_keypad( void ) __attribute__ ((interrupt ("IRQ")));
  45:../proyecto.c **** void isr_pbs( void ) __attribute__ ((interrupt ("IRQ")));
  46:../proyecto.c **** void isr_timer0( void ) __attribute__ ((interrupt ("IRQ")));
  47:../proyecto.c **** void isr_tick( void ) __attribute__ ((interrupt ("IRQ")));
  48:../proyecto.c **** void isr_timer0( void ) __attribute__ ((interrupt ("IRQ")));
  49:../proyecto.c **** 
  50:../proyecto.c **** /*******************************************************************/
  51:../proyecto.c **** //Flags para las interrupciones
  52:../proyecto.c **** 
  53:../proyecto.c **** volatile static boolean newBeat = FALSE;
  54:../proyecto.c **** volatile static boolean newStep = FALSE;
  55:../proyecto.c **** volatile boolean flagTimer0 = FALSE;
  56:../proyecto.c **** volatile boolean flagKeypad = FALSE;
  57:../proyecto.c **** volatile boolean flagPbs = FALSE;
  58:../proyecto.c **** volatile boolean flagRtc = FALSE;
  59:../proyecto.c **** /*******************************************************************/
  60:../proyecto.c **** 
  61:../proyecto.c **** volatile boolean sistemaEncendido = FALSE;
  62:../proyecto.c **** volatile boolean pintarMenuPrincipal = TRUE;
  63:../proyecto.c **** rtc_time_t rtc_time; //Hora general
  64:../proyecto.c **** rtc_time_t rtc_time_aux; //Varible auxiliar que se usa para almacenar el tiempo antes de modificarl
  65:../proyecto.c **** rtc_time_t rtc_cronometro; //Cronometro, no uso rtc_time_aux para el cronometro porque quiero guard
  66:../proyecto.c **** 
  67:../proyecto.c **** volatile uint16 segundos_transcurridos,contador_latidos,contador_pasos,total_pasos; //Contador de s
  68:../proyecto.c **** 
  69:../proyecto.c **** volatile uint16 latidosPorMin, pasosPorMin;
  70:../proyecto.c **** 
  71:../proyecto.c **** 
  72:../proyecto.c **** void encendidoSistema(void);
  73:../proyecto.c **** void apagadoSistema(void);
  74:../proyecto.c **** void menuPrincipal(void);
  75:../proyecto.c **** void one_second_loop(void);
  76:../proyecto.c **** void modoCronometro( void );
  77:../proyecto.c **** void modoCambiarHora( void );
  78:../proyecto.c **** void modoFecha( void );
  79:../proyecto.c **** void modoDeporte( void );
  80:../proyecto.c **** 
  81:../proyecto.c **** uint8 prueba=0;
  82:../proyecto.c **** int main( void )
  83:../proyecto.c **** {
 2253              		.loc 1 83 0
 2254              		.cfi_startproc
 2255              		@ Function supports interworking.
 2256              		@ args = 0, pretend = 0, frame = 0
 2257              		@ frame_needed = 1, uses_anonymous_args = 0
 2258 0000 0DC0A0E1 		mov	ip, sp
 2259              	.LCFI0:
 2260              		.cfi_def_cfa_register 12
 2261 0004 00D82DE9 		stmfd	sp!, {fp, ip, lr, pc}
 2262 0008 04B04CE2 		sub	fp, ip, #4
 2263              		.cfi_offset 14, -8
 2264              		.cfi_offset 13, -12
 2265              		.cfi_offset 11, -16
 2266              	.LCFI1:
 2267              		.cfi_def_cfa 11, 4
  84:../proyecto.c **** 	/*Inits de los drivers*/
  85:../proyecto.c **** 	sys_init();
 2268              		.loc 1 85 0
 2269 000c FEFFFFEB 		bl	sys_init
  86:../proyecto.c **** 	leds_init();
 2270              		.loc 1 86 0
 2271 0010 FEFFFFEB 		bl	leds_init
  87:../proyecto.c **** 
  88:../proyecto.c ****     timers_init();
 2272              		.loc 1 88 0
 2273 0014 FEFFFFEB 		bl	timers_init
  89:../proyecto.c ****     keypad_init();
 2274              		.loc 1 89 0
 2275 0018 FEFFFFEB 		bl	keypad_init
  90:../proyecto.c ****     pbs_init();
 2276              		.loc 1 90 0
 2277 001c FEFFFFEB 		bl	pbs_init
  91:../proyecto.c **** 
  92:../proyecto.c **** 	//Iniciamos el touchpad
  93:../proyecto.c **** 	ts_init();
 2278              		.loc 1 93 0
 2279 0020 FEFFFFEB 		bl	ts_init
  94:../proyecto.c **** 	ts_on();
 2280              		.loc 1 94 0
 2281 0024 FEFFFFEB 		bl	ts_on
  95:../proyecto.c **** 
  96:../proyecto.c ****     lcd_init();
 2282              		.loc 1 96 0
 2283 0028 FEFFFFEB 		bl	lcd_init
  97:../proyecto.c ****     lcd_clear();
 2284              		.loc 1 97 0
 2285 002c FEFFFFEB 		bl	lcd_clear
  98:../proyecto.c ****     lcd_on();
 2286              		.loc 1 98 0
 2287 0030 FEFFFFEB 		bl	lcd_on
  99:../proyecto.c **** 
 100:../proyecto.c **** 	startSensorsEmulator( beatHandler, stepHandler, 60, 60 );     // Arranca el emulador de sensores, 
 2288              		.loc 1 100 0
 2289 0034 BC009FE5 		ldr	r0, .L3
 2290 0038 BC109FE5 		ldr	r1, .L3+4
 2291 003c 3C20A0E3 		mov	r2, #60
 2292 0040 3C30A0E3 		mov	r3, #60
 2293 0044 FEFFFFEB 		bl	startSensorsEmulator
 101:../proyecto.c **** 	pbs_open( isr_pbs );
 2294              		.loc 1 101 0
 2295 0048 B0009FE5 		ldr	r0, .L3+8
 2296 004c FEFFFFEB 		bl	pbs_open
 102:../proyecto.c **** 	sistemaEncendido = FALSE;
 2297              		.loc 1 102 0
 2298 0050 AC309FE5 		ldr	r3, .L3+12
 2299 0054 0020A0E3 		mov	r2, #0
 2300 0058 0020C3E5 		strb	r2, [r3, #0]
 103:../proyecto.c **** 	pintarMenuPrincipal = TRUE;
 2301              		.loc 1 103 0
 2302 005c A4309FE5 		ldr	r3, .L3+16
 2303 0060 0120A0E3 		mov	r2, #1
 2304 0064 0020C3E5 		strb	r2, [r3, #0]
 104:../proyecto.c **** 
 105:../proyecto.c **** 	contador_latidos=0;
 2305              		.loc 1 105 0
 2306 0068 9C309FE5 		ldr	r3, .L3+20
 2307 006c 0020A0E3 		mov	r2, #0
 2308 0070 B020C3E1 		strh	r2, [r3, #0]	@ movhi
 106:../proyecto.c **** 	contador_pasos=0;
 2309              		.loc 1 106 0
 2310 0074 94309FE5 		ldr	r3, .L3+24
 2311 0078 0020A0E3 		mov	r2, #0
 2312 007c B020C3E1 		strh	r2, [r3, #0]	@ movhi
 107:../proyecto.c **** 	segundos_transcurridos =0;
 2313              		.loc 1 107 0
 2314 0080 8C309FE5 		ldr	r3, .L3+28
 2315 0084 0020A0E3 		mov	r2, #0
 2316 0088 B020C3E1 		strh	r2, [r3, #0]	@ movhi
 108:../proyecto.c **** 	total_pasos =0;
 2317              		.loc 1 108 0
 2318 008c 84309FE5 		ldr	r3, .L3+32
 2319 0090 0020A0E3 		mov	r2, #0
 2320 0094 B020C3E1 		strh	r2, [r3, #0]	@ movhi
 109:../proyecto.c **** 	latidosPorMin=0;
 2321              		.loc 1 109 0
 2322 0098 7C309FE5 		ldr	r3, .L3+36
 2323 009c 0020A0E3 		mov	r2, #0
 2324 00a0 B020C3E1 		strh	r2, [r3, #0]	@ movhi
 110:../proyecto.c **** 	pasosPorMin =0;
 2325              		.loc 1 110 0
 2326 00a4 74309FE5 		ldr	r3, .L3+40
 2327 00a8 0020A0E3 		mov	r2, #0
 2328 00ac B020C3E1 		strh	r2, [r3, #0]	@ movhi
 111:../proyecto.c **** 	rtc_cronometro.hour=0;
 2329              		.loc 1 111 0
 2330 00b0 6C309FE5 		ldr	r3, .L3+44
 2331 00b4 0020A0E3 		mov	r2, #0
 2332 00b8 0220C3E5 		strb	r2, [r3, #2]
 112:../proyecto.c **** 	rtc_cronometro.min=0;
 2333              		.loc 1 112 0
 2334 00bc 60309FE5 		ldr	r3, .L3+44
 2335 00c0 0020A0E3 		mov	r2, #0
 2336 00c4 0120C3E5 		strb	r2, [r3, #1]
 113:../proyecto.c **** 	rtc_cronometro.sec=0;
 2337              		.loc 1 113 0
 2338 00c8 54309FE5 		ldr	r3, .L3+44
 2339 00cc 0020A0E3 		mov	r2, #0
 2340 00d0 0020C3E5 		strb	r2, [r3, #0]
 114:../proyecto.c **** 
 115:../proyecto.c **** 	//Inicializacion y configuracion del reloj de la pantalla
 116:../proyecto.c **** 	rtc_init();
 2341              		.loc 1 116 0
 2342 00d4 FEFFFFEB 		bl	rtc_init
 117:../proyecto.c **** 	flagRtc = FALSE;
 2343              		.loc 1 117 0
 2344 00d8 48309FE5 		ldr	r3, .L3+48
 2345 00dc 0020A0E3 		mov	r2, #0
 2346 00e0 0020C3E5 		strb	r2, [r3, #0]
 118:../proyecto.c **** 	//Ponemos que se genere una interrupcion RTC
 119:../proyecto.c **** 	rtc_open( isr_tick, 127);
 2347              		.loc 1 119 0
 2348 00e4 40009FE5 		ldr	r0, .L3+52
 2349 00e8 7F10A0E3 		mov	r1, #127
 2350 00ec FEFFFFEB 		bl	rtc_open
 2351              	.L2:
 120:../proyecto.c **** 
 121:../proyecto.c ****     while( 1 )
 122:../proyecto.c ****     {
 123:../proyecto.c **** 
 124:../proyecto.c ****     	/*Programa principal*/
 125:../proyecto.c ****     	menuPrincipal();
 2352              		.loc 1 125 0 discriminator 1
 2353 00f0 FEFFFFEB 		bl	menuPrincipal
 126:../proyecto.c **** 
 127:../proyecto.c ****     };
 2354              		.loc 1 127 0 discriminator 1
 2355 00f4 FDFFFFEA 		b	.L2
 2356              	.L4:
 2357              		.align	2
 2358              	.L3:
 2359 00f8 00000000 		.word	beatHandler
 2360 00fc 00000000 		.word	stepHandler
 2361 0100 00000000 		.word	isr_pbs
 2362 0104 00000000 		.word	sistemaEncendido
 2363 0108 00000000 		.word	pintarMenuPrincipal
 2364 010c 00000000 		.word	contador_latidos
 2365 0110 00000000 		.word	contador_pasos
 2366 0114 00000000 		.word	segundos_transcurridos
 2367 0118 00000000 		.word	total_pasos
 2368 011c 00000000 		.word	latidosPorMin
 2369 0120 00000000 		.word	pasosPorMin
 2370 0124 00000000 		.word	rtc_cronometro
 2371 0128 00000000 		.word	flagRtc
 2372 012c 00000000 		.word	isr_tick
 2373              		.cfi_endproc
 2374              	.LFE0:
 2376              		.align	2
 2377              		.global	funcionalidadComun
 2379              	funcionalidadComun:
 2380              	.LFB1:
 128:../proyecto.c ****     return 0;
 129:../proyecto.c **** }
 130:../proyecto.c **** 
 131:../proyecto.c **** 
 132:../proyecto.c **** 
 133:../proyecto.c **** void funcionalidadComun(){ //Funcion que contiene los calculos que el sistema hace idependiente del
 2381              		.loc 1 133 0
 2382              		.cfi_startproc
 2383              		@ Function supports interworking.
 2384              		@ args = 0, pretend = 0, frame = 0
 2385              		@ frame_needed = 1, uses_anonymous_args = 0
 2386 0130 0DC0A0E1 		mov	ip, sp
 2387              	.LCFI2:
 2388              		.cfi_def_cfa_register 12
 2389 0134 00D82DE9 		stmfd	sp!, {fp, ip, lr, pc}
 2390 0138 04B04CE2 		sub	fp, ip, #4
 2391              		.cfi_offset 14, -8
 2392              		.cfi_offset 13, -12
 2393              		.cfi_offset 11, -16
 2394              	.LCFI3:
 2395              		.cfi_def_cfa 11, 4
 134:../proyecto.c **** 
 135:../proyecto.c **** 			if( newBeat )
 2396              		.loc 1 135 0
 2397 013c F0309FE5 		ldr	r3, .L9
 2398 0140 0030D3E5 		ldrb	r3, [r3, #0]
 2399 0144 FF3003E2 		and	r3, r3, #255
 2400 0148 000053E3 		cmp	r3, #0
 2401 014c 0400000A 		beq	.L6
 136:../proyecto.c **** 		    	{
 137:../proyecto.c **** 		    		newBeat = FALSE;
 2402              		.loc 1 137 0
 2403 0150 DC309FE5 		ldr	r3, .L9
 2404 0154 0020A0E3 		mov	r2, #0
 2405 0158 0020C3E5 		strb	r2, [r3, #0]
 138:../proyecto.c **** 		    		led_toggle( LEFT_LED );
 2406              		.loc 1 138 0
 2407 015c 0100A0E3 		mov	r0, #1
 2408 0160 FEFFFFEB 		bl	led_toggle
 2409              	.L6:
 139:../proyecto.c **** 		    	}
 140:../proyecto.c **** 		    	//Generador de pasos
 141:../proyecto.c **** 		    	if( newStep )
 2410              		.loc 1 141 0
 2411 0164 CC309FE5 		ldr	r3, .L9+4
 2412 0168 0030D3E5 		ldrb	r3, [r3, #0]
 2413 016c FF3003E2 		and	r3, r3, #255
 2414 0170 000053E3 		cmp	r3, #0
 2415 0174 0400000A 		beq	.L7
 142:../proyecto.c **** 		    	{
 143:../proyecto.c **** 		    		newStep = FALSE;
 2416              		.loc 1 143 0
 2417 0178 B8309FE5 		ldr	r3, .L9+4
 2418 017c 0020A0E3 		mov	r2, #0
 2419 0180 0020C3E5 		strb	r2, [r3, #0]
 144:../proyecto.c **** 		    		led_toggle( RIGHT_LED );
 2420              		.loc 1 144 0
 2421 0184 0200A0E3 		mov	r0, #2
 2422 0188 FEFFFFEB 		bl	led_toggle
 2423              	.L7:
 145:../proyecto.c **** 		    	}
 146:../proyecto.c **** 
 147:../proyecto.c **** 		    	if (segundos_transcurridos > 10) {
 2424              		.loc 1 147 0
 2425 018c A8309FE5 		ldr	r3, .L9+8
 2426 0190 B030D3E1 		ldrh	r3, [r3, #0]	@ movhi
 2427 0194 0338A0E1 		mov	r3, r3, asl #16
 2428 0198 2338A0E1 		mov	r3, r3, lsr #16
 2429 019c 0A0053E3 		cmp	r3, #10
 2430 01a0 2000009A 		bls	.L5
 148:../proyecto.c **** 					// Calcular estimación de latidos por minuto y pasos por minuto
 149:../proyecto.c **** 		    		latidosPorMin = contador_latidos * 6;
 2431              		.loc 1 149 0
 2432 01a4 94309FE5 		ldr	r3, .L9+12
 2433 01a8 B030D3E1 		ldrh	r3, [r3, #0]	@ movhi
 2434 01ac 0338A0E1 		mov	r3, r3, asl #16
 2435 01b0 2338A0E1 		mov	r3, r3, lsr #16
 2436 01b4 0320A0E1 		mov	r2, r3	@ movhi
 2437 01b8 8220A0E1 		mov	r2, r2, asl #1
 2438 01bc 033082E0 		add	r3, r2, r3
 2439 01c0 8330A0E1 		mov	r3, r3, asl #1
 2440 01c4 0338A0E1 		mov	r3, r3, asl #16
 2441 01c8 2328A0E1 		mov	r2, r3, lsr #16
 2442 01cc 70309FE5 		ldr	r3, .L9+16
 2443 01d0 B020C3E1 		strh	r2, [r3, #0]	@ movhi
 150:../proyecto.c **** 		    		pasosPorMin = contador_pasos * 6;
 2444              		.loc 1 150 0
 2445 01d4 6C309FE5 		ldr	r3, .L9+20
 2446 01d8 B030D3E1 		ldrh	r3, [r3, #0]	@ movhi
 2447 01dc 0338A0E1 		mov	r3, r3, asl #16
 2448 01e0 2338A0E1 		mov	r3, r3, lsr #16
 2449 01e4 0320A0E1 		mov	r2, r3	@ movhi
 2450 01e8 8220A0E1 		mov	r2, r2, asl #1
 2451 01ec 033082E0 		add	r3, r2, r3
 2452 01f0 8330A0E1 		mov	r3, r3, asl #1
 2453 01f4 0338A0E1 		mov	r3, r3, asl #16
 2454 01f8 2328A0E1 		mov	r2, r3, lsr #16
 2455 01fc 48309FE5 		ldr	r3, .L9+24
 2456 0200 B020C3E1 		strh	r2, [r3, #0]	@ movhi
 151:../proyecto.c **** 
 152:../proyecto.c **** 					//Restablecer contadores
 153:../proyecto.c **** 					contador_pasos=0;
 2457              		.loc 1 153 0
 2458 0204 3C309FE5 		ldr	r3, .L9+20
 2459 0208 0020A0E3 		mov	r2, #0
 2460 020c B020C3E1 		strh	r2, [r3, #0]	@ movhi
 154:../proyecto.c **** 					contador_latidos=0;
 2461              		.loc 1 154 0
 2462 0210 28309FE5 		ldr	r3, .L9+12
 2463 0214 0020A0E3 		mov	r2, #0
 2464 0218 B020C3E1 		strh	r2, [r3, #0]	@ movhi
 155:../proyecto.c **** 					// Restablecer el temporizador
 156:../proyecto.c **** 					segundos_transcurridos = 0;
 2465              		.loc 1 156 0
 2466 021c 18309FE5 		ldr	r3, .L9+8
 2467 0220 0020A0E3 		mov	r2, #0
 2468 0224 B020C3E1 		strh	r2, [r3, #0]	@ movhi
 2469              	.L5:
 157:../proyecto.c **** 				}
 158:../proyecto.c **** }
 2470              		.loc 1 158 0
 2471 0228 0CD04BE2 		sub	sp, fp, #12
 2472 022c 00689DE8 		ldmfd	sp, {fp, sp, lr}
 2473 0230 1EFF2FE1 		bx	lr
 2474              	.L10:
 2475              		.align	2
 2476              	.L9:
 2477 0234 00000000 		.word	newBeat
 2478 0238 01000000 		.word	newStep
 2479 023c 00000000 		.word	segundos_transcurridos
 2480 0240 00000000 		.word	contador_latidos
 2481 0244 00000000 		.word	latidosPorMin
 2482 0248 00000000 		.word	contador_pasos
 2483 024c 00000000 		.word	pasosPorMin
 2484              		.cfi_endproc
 2485              	.LFE1:
 2487              		.align	2
 2488              		.global	compareMonth
 2490              	compareMonth:
 2491              	.LFB2:
 159:../proyecto.c **** int compareMonth(const char* monthStr, const char* month) {
 2492              		.loc 1 159 0
 2493              		.cfi_startproc
 2494              		@ Function supports interworking.
 2495              		@ args = 0, pretend = 0, frame = 16
 2496              		@ frame_needed = 1, uses_anonymous_args = 0
 2497 0250 0DC0A0E1 		mov	ip, sp
 2498              	.LCFI4:
 2499              		.cfi_def_cfa_register 12
 2500 0254 00D82DE9 		stmfd	sp!, {fp, ip, lr, pc}
 2501 0258 04B04CE2 		sub	fp, ip, #4
 2502              		.cfi_offset 14, -8
 2503              		.cfi_offset 13, -12
 2504              		.cfi_offset 11, -16
 2505              	.LCFI5:
 2506              		.cfi_def_cfa 11, 4
 2507 025c 10D04DE2 		sub	sp, sp, #16
 2508 0260 18000BE5 		str	r0, [fp, #-24]
 2509 0264 1C100BE5 		str	r1, [fp, #-28]
 160:../proyecto.c **** 	int i;
 161:../proyecto.c **** 	for ( i = 0; i < 3; ++i) {
 2510              		.loc 1 161 0
 2511 0268 0030A0E3 		mov	r3, #0
 2512 026c 10300BE5 		str	r3, [fp, #-16]
 2513 0270 0E0000EA 		b	.L12
 2514              	.L15:
 162:../proyecto.c **** 		if (monthStr[i] != month[i]) {
 2515              		.loc 1 162 0
 2516 0274 10301BE5 		ldr	r3, [fp, #-16]
 2517 0278 18201BE5 		ldr	r2, [fp, #-24]
 2518 027c 033082E0 		add	r3, r2, r3
 2519 0280 0020D3E5 		ldrb	r2, [r3, #0]	@ zero_extendqisi2
 2520 0284 10301BE5 		ldr	r3, [fp, #-16]
 2521 0288 1C101BE5 		ldr	r1, [fp, #-28]
 2522 028c 033081E0 		add	r3, r1, r3
 2523 0290 0030D3E5 		ldrb	r3, [r3, #0]	@ zero_extendqisi2
 2524 0294 030052E1 		cmp	r2, r3
 2525 0298 0100000A 		beq	.L13
 163:../proyecto.c **** 			return 0;
 2526              		.loc 1 163 0
 2527 029c 0030A0E3 		mov	r3, #0
 2528 02a0 060000EA 		b	.L14
 2529              	.L13:
 161:../proyecto.c **** 	for ( i = 0; i < 3; ++i) {
 2530              		.loc 1 161 0
 2531 02a4 10301BE5 		ldr	r3, [fp, #-16]
 2532 02a8 013083E2 		add	r3, r3, #1
 2533 02ac 10300BE5 		str	r3, [fp, #-16]
 2534              	.L12:
 161:../proyecto.c **** 	for ( i = 0; i < 3; ++i) {
 2535              		.loc 1 161 0 is_stmt 0 discriminator 1
 2536 02b0 10301BE5 		ldr	r3, [fp, #-16]
 2537 02b4 020053E3 		cmp	r3, #2
 2538 02b8 EDFFFFDA 		ble	.L15
 164:../proyecto.c **** 		}
 165:../proyecto.c **** 	}
 166:../proyecto.c **** 	return 1;
 2539              		.loc 1 166 0 is_stmt 1
 2540 02bc 0130A0E3 		mov	r3, #1
 2541              	.L14:
 167:../proyecto.c **** }
 2542              		.loc 1 167 0
 2543 02c0 0300A0E1 		mov	r0, r3
 2544 02c4 0CD04BE2 		sub	sp, fp, #12
 2545 02c8 00689DE8 		ldmfd	sp, {fp, sp, lr}
 2546 02cc 1EFF2FE1 		bx	lr
 2547              		.cfi_endproc
 2548              	.LFE2:
 2550              		.align	2
 2551              		.global	calcularDiaSemana
 2553              	calcularDiaSemana:
 2554              	.LFB3:
 168:../proyecto.c **** uint8 calcularDiaSemana(uint8 year, uint8 month, uint8 day) {
 2555              		.loc 1 168 0
 2556              		.cfi_startproc
 2557              		@ Function supports interworking.
 2558              		@ args = 0, pretend = 0, frame = 24
 2559              		@ frame_needed = 1, uses_anonymous_args = 0
 2560 02d0 0DC0A0E1 		mov	ip, sp
 2561              	.LCFI6:
 2562              		.cfi_def_cfa_register 12
 2563 02d4 00D82DE9 		stmfd	sp!, {fp, ip, lr, pc}
 2564 02d8 04B04CE2 		sub	fp, ip, #4
 2565              		.cfi_offset 14, -8
 2566              		.cfi_offset 13, -12
 2567              		.cfi_offset 11, -16
 2568              	.LCFI7:
 2569              		.cfi_def_cfa 11, 4
 2570 02dc 18D04DE2 		sub	sp, sp, #24
 2571 02e0 0230A0E1 		mov	r3, r2
 2572 02e4 0020A0E1 		mov	r2, r0
 2573 02e8 1D204BE5 		strb	r2, [fp, #-29]
 2574 02ec 0120A0E1 		mov	r2, r1
 2575 02f0 1E204BE5 		strb	r2, [fp, #-30]
 2576 02f4 1F304BE5 		strb	r3, [fp, #-31]
 169:../proyecto.c ****     if (month < 3) {
 2577              		.loc 1 169 0
 2578 02f8 1E305BE5 		ldrb	r3, [fp, #-30]	@ zero_extendqisi2
 2579 02fc 020053E3 		cmp	r3, #2
 2580 0300 0500008A 		bhi	.L17
 170:../proyecto.c ****         month += 12;
 2581              		.loc 1 170 0
 2582 0304 1E305BE5 		ldrb	r3, [fp, #-30]
 2583 0308 0C3083E2 		add	r3, r3, #12
 2584 030c 1E304BE5 		strb	r3, [fp, #-30]
 171:../proyecto.c ****         year--;
 2585              		.loc 1 171 0
 2586 0310 1D305BE5 		ldrb	r3, [fp, #-29]
 2587 0314 013043E2 		sub	r3, r3, #1
 2588 0318 1D304BE5 		strb	r3, [fp, #-29]
 2589              	.L17:
 172:../proyecto.c ****     }
 173:../proyecto.c ****     int K = year % 100;
 2590              		.loc 1 173 0
 2591 031c 1D205BE5 		ldrb	r2, [fp, #-29]	@ zero_extendqisi2
 2592 0320 4C319FE5 		ldr	r3, .L19
 2593 0324 920383E0 		umull	r0, r3, r2, r3
 2594 0328 A312A0E1 		mov	r1, r3, lsr #5
 2595 032c 0130A0E1 		mov	r3, r1
 2596 0330 0331A0E1 		mov	r3, r3, asl #2
 2597 0334 013083E0 		add	r3, r3, r1
 2598 0338 0311A0E1 		mov	r1, r3, asl #2
 2599 033c 013083E0 		add	r3, r3, r1
 2600 0340 0331A0E1 		mov	r3, r3, asl #2
 2601 0344 023063E0 		rsb	r3, r3, r2
 2602 0348 FF3003E2 		and	r3, r3, #255
 2603 034c 14300BE5 		str	r3, [fp, #-20]
 174:../proyecto.c ****     int J = year / 100;
 2604              		.loc 1 174 0
 2605 0350 1D205BE5 		ldrb	r2, [fp, #-29]	@ zero_extendqisi2
 2606 0354 18319FE5 		ldr	r3, .L19
 2607 0358 921383E0 		umull	r1, r3, r2, r3
 2608 035c A332A0E1 		mov	r3, r3, lsr #5
 2609 0360 FF3003E2 		and	r3, r3, #255
 2610 0364 18300BE5 		str	r3, [fp, #-24]
 175:../proyecto.c **** 
 176:../proyecto.c ****     int dayOfWeek = (day + 13 * (month + 1) / 5 + K + K / 4 + J / 4 - 2 * J) % 7;
 2611              		.loc 1 176 0
 2612 0368 1F105BE5 		ldrb	r1, [fp, #-31]	@ zero_extendqisi2
 2613 036c 1E305BE5 		ldrb	r3, [fp, #-30]	@ zero_extendqisi2
 2614 0370 012083E2 		add	r2, r3, #1
 2615 0374 0230A0E1 		mov	r3, r2
 2616 0378 8330A0E1 		mov	r3, r3, asl #1
 2617 037c 023083E0 		add	r3, r3, r2
 2618 0380 0331A0E1 		mov	r3, r3, asl #2
 2619 0384 023083E0 		add	r3, r3, r2
 2620 0388 E8209FE5 		ldr	r2, .L19+4
 2621 038c 9302C2E0 		smull	r0, r2, r3, r2
 2622 0390 C220A0E1 		mov	r2, r2, asr #1
 2623 0394 C33FA0E1 		mov	r3, r3, asr #31
 2624 0398 023063E0 		rsb	r3, r3, r2
 2625 039c 032081E0 		add	r2, r1, r3
 2626 03a0 14301BE5 		ldr	r3, [fp, #-20]
 2627 03a4 032082E0 		add	r2, r2, r3
 2628 03a8 14301BE5 		ldr	r3, [fp, #-20]
 2629 03ac 031083E2 		add	r1, r3, #3
 2630 03b0 000053E3 		cmp	r3, #0
 2631 03b4 0130A0B1 		movlt	r3, r1
 2632 03b8 4331A0E1 		mov	r3, r3, asr #2
 2633 03bc 032082E0 		add	r2, r2, r3
 2634 03c0 18301BE5 		ldr	r3, [fp, #-24]
 2635 03c4 031083E2 		add	r1, r3, #3
 2636 03c8 000053E3 		cmp	r3, #0
 2637 03cc 0130A0B1 		movlt	r3, r1
 2638 03d0 4331A0E1 		mov	r3, r3, asr #2
 2639 03d4 031082E0 		add	r1, r2, r3
 2640 03d8 18201BE5 		ldr	r2, [fp, #-24]
 2641 03dc 0230A0E1 		mov	r3, r2
 2642 03e0 833FA0E1 		mov	r3, r3, asl #31
 2643 03e4 033062E0 		rsb	r3, r2, r3
 2644 03e8 8330A0E1 		mov	r3, r3, asl #1
 2645 03ec 032081E0 		add	r2, r1, r3
 2646 03f0 84309FE5 		ldr	r3, .L19+8
 2647 03f4 9213C3E0 		smull	r1, r3, r2, r3
 2648 03f8 023083E0 		add	r3, r3, r2
 2649 03fc 4311A0E1 		mov	r1, r3, asr #2
 2650 0400 C23FA0E1 		mov	r3, r2, asr #31
 2651 0404 011063E0 		rsb	r1, r3, r1
 2652 0408 0130A0E1 		mov	r3, r1
 2653 040c 8331A0E1 		mov	r3, r3, asl #3
 2654 0410 033061E0 		rsb	r3, r1, r3
 2655 0414 023063E0 		rsb	r3, r3, r2
 2656 0418 10300BE5 		str	r3, [fp, #-16]
 177:../proyecto.c ****     if (dayOfWeek < 0) {
 2657              		.loc 1 177 0
 2658 041c 10301BE5 		ldr	r3, [fp, #-16]
 2659 0420 000053E3 		cmp	r3, #0
 2660 0424 020000AA 		bge	.L18
 178:../proyecto.c ****         dayOfWeek += 7;
 2661              		.loc 1 178 0
 2662 0428 10301BE5 		ldr	r3, [fp, #-16]
 2663 042c 073083E2 		add	r3, r3, #7
 2664 0430 10300BE5 		str	r3, [fp, #-16]
 2665              	.L18:
 179:../proyecto.c ****     }
 180:../proyecto.c **** 
 181:../proyecto.c ****     return (dayOfWeek % 7); // Ajusta al rango de 1 a 7
 2666              		.loc 1 181 0
 2667 0434 10101BE5 		ldr	r1, [fp, #-16]
 2668 0438 3C309FE5 		ldr	r3, .L19+8
 2669 043c 9123C3E0 		smull	r2, r3, r1, r3
 2670 0440 013083E0 		add	r3, r3, r1
 2671 0444 4321A0E1 		mov	r2, r3, asr #2
 2672 0448 C13FA0E1 		mov	r3, r1, asr #31
 2673 044c 022063E0 		rsb	r2, r3, r2
 2674 0450 0230A0E1 		mov	r3, r2
 2675 0454 8331A0E1 		mov	r3, r3, asl #3
 2676 0458 033062E0 		rsb	r3, r2, r3
 2677 045c 012063E0 		rsb	r2, r3, r1
 2678 0460 FF3002E2 		and	r3, r2, #255
 182:../proyecto.c **** }
 2679              		.loc 1 182 0
 2680 0464 0300A0E1 		mov	r0, r3
 2681 0468 0CD04BE2 		sub	sp, fp, #12
 2682 046c 00689DE8 		ldmfd	sp, {fp, sp, lr}
 2683 0470 1EFF2FE1 		bx	lr
 2684              	.L20:
 2685              		.align	2
 2686              	.L19:
 2687 0474 1F85EB51 		.word	1374389535
 2688 0478 67666666 		.word	1717986919
 2689 047c 93244992 		.word	-1840700269
 2690              		.cfi_endproc
 2691              	.LFE3:
 2693              		.section	.rodata
 2694              		.align	2
 2695              	.LC0:
 2696 0000 31383A32 		.ascii	"18:23:08\000"
 2696      333A3038 
 2696      00
 2697 0009 000000   		.align	2
 2698              	.LC1:
 2699 000c 4A616E20 		.ascii	"Jan 16 2024\000"
 2699      31362032 
 2699      30323400 
 2700              		.align	2
 2701              	.LC2:
 2702 0018 4A616E00 		.ascii	"Jan\000"
 2703              		.align	2
 2704              	.LC3:
 2705 001c 46656200 		.ascii	"Feb\000"
 2706              		.align	2
 2707              	.LC4:
 2708 0020 4D617200 		.ascii	"Mar\000"
 2709              		.align	2
 2710              	.LC5:
 2711 0024 41707200 		.ascii	"Apr\000"
 2712              		.align	2
 2713              	.LC6:
 2714 0028 4D617900 		.ascii	"May\000"
 2715              		.align	2
 2716              	.LC7:
 2717 002c 4A756E00 		.ascii	"Jun\000"
 2718              		.align	2
 2719              	.LC8:
 2720 0030 4A756C00 		.ascii	"Jul\000"
 2721              		.align	2
 2722              	.LC9:
 2723 0034 41756700 		.ascii	"Aug\000"
 2724              		.align	2
 2725              	.LC10:
 2726 0038 53657000 		.ascii	"Sep\000"
 2727              		.align	2
 2728              	.LC11:
 2729 003c 4F637400 		.ascii	"Oct\000"
 2730              		.align	2
 2731              	.LC12:
 2732 0040 4E6F7600 		.ascii	"Nov\000"
 2733              		.align	2
 2734              	.LC13:
 2735 0044 44656300 		.ascii	"Dec\000"
 2736              		.text
 2737              		.align	2
 2738              		.global	iniciarReloj
 2740              	iniciarReloj:
 2741              	.LFB4:
 183:../proyecto.c **** void iniciarReloj(){
 2742              		.loc 1 183 0
 2743              		.cfi_startproc
 2744              		@ Function supports interworking.
 2745              		@ args = 0, pretend = 0, frame = 16
 2746              		@ frame_needed = 1, uses_anonymous_args = 0
 2747 0480 0DC0A0E1 		mov	ip, sp
 2748              	.LCFI8:
 2749              		.cfi_def_cfa_register 12
 2750 0484 00D82DE9 		stmfd	sp!, {fp, ip, lr, pc}
 2751 0488 04B04CE2 		sub	fp, ip, #4
 2752              		.cfi_offset 14, -8
 2753              		.cfi_offset 13, -12
 2754              		.cfi_offset 11, -16
 2755              	.LCFI9:
 2756              		.cfi_def_cfa 11, 4
 2757 048c 10D04DE2 		sub	sp, sp, #16
 184:../proyecto.c **** 	const char* compileTime = __TIME__;
 2758              		.loc 1 184 0
 2759 0490 E4339FE5 		ldr	r3, .L34
 2760 0494 10300BE5 		str	r3, [fp, #-16]
 185:../proyecto.c **** 	rtc_time.hour = (compileTime[0] - '0') * 10 + (compileTime[1] - '0');
 2761              		.loc 1 185 0
 2762 0498 10301BE5 		ldr	r3, [fp, #-16]
 2763 049c 0030D3E5 		ldrb	r3, [r3, #0]	@ zero_extendqisi2
 2764 04a0 0320A0E1 		mov	r2, r3
 2765 04a4 0221A0E1 		mov	r2, r2, asl #2
 2766 04a8 033082E0 		add	r3, r2, r3
 2767 04ac 8330A0E1 		mov	r3, r3, asl #1
 2768 04b0 FF2003E2 		and	r2, r3, #255
 2769 04b4 10301BE5 		ldr	r3, [fp, #-16]
 2770 04b8 013083E2 		add	r3, r3, #1
 2771 04bc 0030D3E5 		ldrb	r3, [r3, #0]	@ zero_extendqisi2
 2772 04c0 033082E0 		add	r3, r2, r3
 2773 04c4 FF3003E2 		and	r3, r3, #255
 2774 04c8 103043E2 		sub	r3, r3, #16
 2775 04cc FF2003E2 		and	r2, r3, #255
 2776 04d0 A8339FE5 		ldr	r3, .L34+4
 2777 04d4 0220C3E5 		strb	r2, [r3, #2]
 186:../proyecto.c **** 	rtc_time.min = (compileTime[3] - '0') * 10 + (compileTime[4] - '0');
 2778              		.loc 1 186 0
 2779 04d8 10301BE5 		ldr	r3, [fp, #-16]
 2780 04dc 033083E2 		add	r3, r3, #3
 2781 04e0 0030D3E5 		ldrb	r3, [r3, #0]	@ zero_extendqisi2
 2782 04e4 0320A0E1 		mov	r2, r3
 2783 04e8 0221A0E1 		mov	r2, r2, asl #2
 2784 04ec 033082E0 		add	r3, r2, r3
 2785 04f0 8330A0E1 		mov	r3, r3, asl #1
 2786 04f4 FF2003E2 		and	r2, r3, #255
 2787 04f8 10301BE5 		ldr	r3, [fp, #-16]
 2788 04fc 043083E2 		add	r3, r3, #4
 2789 0500 0030D3E5 		ldrb	r3, [r3, #0]	@ zero_extendqisi2
 2790 0504 033082E0 		add	r3, r2, r3
 2791 0508 FF3003E2 		and	r3, r3, #255
 2792 050c 103043E2 		sub	r3, r3, #16
 2793 0510 FF2003E2 		and	r2, r3, #255
 2794 0514 64339FE5 		ldr	r3, .L34+4
 2795 0518 0120C3E5 		strb	r2, [r3, #1]
 187:../proyecto.c **** 	rtc_time.sec = (compileTime[6] - '0') * 10 + (compileTime[7] - '0');
 2796              		.loc 1 187 0
 2797 051c 10301BE5 		ldr	r3, [fp, #-16]
 2798 0520 063083E2 		add	r3, r3, #6
 2799 0524 0030D3E5 		ldrb	r3, [r3, #0]	@ zero_extendqisi2
 2800 0528 0320A0E1 		mov	r2, r3
 2801 052c 0221A0E1 		mov	r2, r2, asl #2
 2802 0530 033082E0 		add	r3, r2, r3
 2803 0534 8330A0E1 		mov	r3, r3, asl #1
 2804 0538 FF2003E2 		and	r2, r3, #255
 2805 053c 10301BE5 		ldr	r3, [fp, #-16]
 2806 0540 073083E2 		add	r3, r3, #7
 2807 0544 0030D3E5 		ldrb	r3, [r3, #0]	@ zero_extendqisi2
 2808 0548 033082E0 		add	r3, r2, r3
 2809 054c FF3003E2 		and	r3, r3, #255
 2810 0550 103043E2 		sub	r3, r3, #16
 2811 0554 FF2003E2 		and	r2, r3, #255
 2812 0558 20339FE5 		ldr	r3, .L34+4
 2813 055c 0020C3E5 		strb	r2, [r3, #0]
 188:../proyecto.c **** 
 189:../proyecto.c **** 	const char* compileDate = __DATE__;
 2814              		.loc 1 189 0
 2815 0560 1C339FE5 		ldr	r3, .L34+8
 2816 0564 14300BE5 		str	r3, [fp, #-20]
 190:../proyecto.c **** 	rtc_time.mday = (compileDate[4] - '0') * 10 + (compileDate[5] - '0');
 2817              		.loc 1 190 0
 2818 0568 14301BE5 		ldr	r3, [fp, #-20]
 2819 056c 043083E2 		add	r3, r3, #4
 2820 0570 0030D3E5 		ldrb	r3, [r3, #0]	@ zero_extendqisi2
 2821 0574 0320A0E1 		mov	r2, r3
 2822 0578 0221A0E1 		mov	r2, r2, asl #2
 2823 057c 033082E0 		add	r3, r2, r3
 2824 0580 8330A0E1 		mov	r3, r3, asl #1
 2825 0584 FF2003E2 		and	r2, r3, #255
 2826 0588 14301BE5 		ldr	r3, [fp, #-20]
 2827 058c 053083E2 		add	r3, r3, #5
 2828 0590 0030D3E5 		ldrb	r3, [r3, #0]	@ zero_extendqisi2
 2829 0594 033082E0 		add	r3, r2, r3
 2830 0598 FF3003E2 		and	r3, r3, #255
 2831 059c 103043E2 		sub	r3, r3, #16
 2832 05a0 FF2003E2 		and	r2, r3, #255
 2833 05a4 D4329FE5 		ldr	r3, .L34+4
 2834 05a8 0320C3E5 		strb	r2, [r3, #3]
 191:../proyecto.c **** 	char monthStr[4];
 192:../proyecto.c **** 	monthStr[0] = compileDate[0];
 2835              		.loc 1 192 0
 2836 05ac 14301BE5 		ldr	r3, [fp, #-20]
 2837 05b0 0030D3E5 		ldrb	r3, [r3, #0]	@ zero_extendqisi2
 2838 05b4 18304BE5 		strb	r3, [fp, #-24]
 193:../proyecto.c **** 	monthStr[1] = compileDate[1];
 2839              		.loc 1 193 0
 2840 05b8 14301BE5 		ldr	r3, [fp, #-20]
 2841 05bc 013083E2 		add	r3, r3, #1
 2842 05c0 0030D3E5 		ldrb	r3, [r3, #0]	@ zero_extendqisi2
 2843 05c4 17304BE5 		strb	r3, [fp, #-23]
 194:../proyecto.c **** 	monthStr[2] = compileDate[2];
 2844              		.loc 1 194 0
 2845 05c8 14301BE5 		ldr	r3, [fp, #-20]
 2846 05cc 023083E2 		add	r3, r3, #2
 2847 05d0 0030D3E5 		ldrb	r3, [r3, #0]	@ zero_extendqisi2
 2848 05d4 16304BE5 		strb	r3, [fp, #-22]
 195:../proyecto.c **** 	monthStr[3] = '\0';
 2849              		.loc 1 195 0
 2850 05d8 0030A0E3 		mov	r3, #0
 2851 05dc 15304BE5 		strb	r3, [fp, #-21]
 196:../proyecto.c **** 
 197:../proyecto.c **** 	if (compareMonth(monthStr, "Jan")) rtc_time.mon = 1;
 2852              		.loc 1 197 0
 2853 05e0 18304BE2 		sub	r3, fp, #24
 2854 05e4 0300A0E1 		mov	r0, r3
 2855 05e8 98129FE5 		ldr	r1, .L34+12
 2856 05ec FEFFFFEB 		bl	compareMonth
 2857 05f0 0030A0E1 		mov	r3, r0
 2858 05f4 000053E3 		cmp	r3, #0
 2859 05f8 0300000A 		beq	.L22
 2860              		.loc 1 197 0 is_stmt 0 discriminator 1
 2861 05fc 7C329FE5 		ldr	r3, .L34+4
 2862 0600 0120A0E3 		mov	r2, #1
 2863 0604 0520C3E5 		strb	r2, [r3, #5]
 2864 0608 770000EA 		b	.L23
 2865              	.L22:
 198:../proyecto.c **** 	else if (compareMonth(monthStr, "Feb")) rtc_time.mon = 2;
 2866              		.loc 1 198 0 is_stmt 1
 2867 060c 18304BE2 		sub	r3, fp, #24
 2868 0610 0300A0E1 		mov	r0, r3
 2869 0614 70129FE5 		ldr	r1, .L34+16
 2870 0618 FEFFFFEB 		bl	compareMonth
 2871 061c 0030A0E1 		mov	r3, r0
 2872 0620 000053E3 		cmp	r3, #0
 2873 0624 0300000A 		beq	.L24
 2874              		.loc 1 198 0 is_stmt 0 discriminator 1
 2875 0628 50329FE5 		ldr	r3, .L34+4
 2876 062c 0220A0E3 		mov	r2, #2
 2877 0630 0520C3E5 		strb	r2, [r3, #5]
 2878 0634 6C0000EA 		b	.L23
 2879              	.L24:
 199:../proyecto.c **** 	else if (compareMonth(monthStr, "Mar")) rtc_time.mon = 3;
 2880              		.loc 1 199 0 is_stmt 1
 2881 0638 18304BE2 		sub	r3, fp, #24
 2882 063c 0300A0E1 		mov	r0, r3
 2883 0640 48129FE5 		ldr	r1, .L34+20
 2884 0644 FEFFFFEB 		bl	compareMonth
 2885 0648 0030A0E1 		mov	r3, r0
 2886 064c 000053E3 		cmp	r3, #0
 2887 0650 0300000A 		beq	.L25
 2888              		.loc 1 199 0 is_stmt 0 discriminator 1
 2889 0654 24329FE5 		ldr	r3, .L34+4
 2890 0658 0320A0E3 		mov	r2, #3
 2891 065c 0520C3E5 		strb	r2, [r3, #5]
 2892 0660 610000EA 		b	.L23
 2893              	.L25:
 200:../proyecto.c **** 	else if (compareMonth(monthStr, "Apr")) rtc_time.mon = 4;
 2894              		.loc 1 200 0 is_stmt 1
 2895 0664 18304BE2 		sub	r3, fp, #24
 2896 0668 0300A0E1 		mov	r0, r3
 2897 066c 20129FE5 		ldr	r1, .L34+24
 2898 0670 FEFFFFEB 		bl	compareMonth
 2899 0674 0030A0E1 		mov	r3, r0
 2900 0678 000053E3 		cmp	r3, #0
 2901 067c 0300000A 		beq	.L26
 2902              		.loc 1 200 0 is_stmt 0 discriminator 1
 2903 0680 F8319FE5 		ldr	r3, .L34+4
 2904 0684 0420A0E3 		mov	r2, #4
 2905 0688 0520C3E5 		strb	r2, [r3, #5]
 2906 068c 560000EA 		b	.L23
 2907              	.L26:
 201:../proyecto.c **** 	else if (compareMonth(monthStr, "May")) rtc_time.mon = 5;
 2908              		.loc 1 201 0 is_stmt 1
 2909 0690 18304BE2 		sub	r3, fp, #24
 2910 0694 0300A0E1 		mov	r0, r3
 2911 0698 F8119FE5 		ldr	r1, .L34+28
 2912 069c FEFFFFEB 		bl	compareMonth
 2913 06a0 0030A0E1 		mov	r3, r0
 2914 06a4 000053E3 		cmp	r3, #0
 2915 06a8 0300000A 		beq	.L27
 2916              		.loc 1 201 0 is_stmt 0 discriminator 1
 2917 06ac CC319FE5 		ldr	r3, .L34+4
 2918 06b0 0520A0E3 		mov	r2, #5
 2919 06b4 0520C3E5 		strb	r2, [r3, #5]
 2920 06b8 4B0000EA 		b	.L23
 2921              	.L27:
 202:../proyecto.c **** 	else if (compareMonth(monthStr, "Jun")) rtc_time.mon = 6;
 2922              		.loc 1 202 0 is_stmt 1
 2923 06bc 18304BE2 		sub	r3, fp, #24
 2924 06c0 0300A0E1 		mov	r0, r3
 2925 06c4 D0119FE5 		ldr	r1, .L34+32
 2926 06c8 FEFFFFEB 		bl	compareMonth
 2927 06cc 0030A0E1 		mov	r3, r0
 2928 06d0 000053E3 		cmp	r3, #0
 2929 06d4 0300000A 		beq	.L28
 2930              		.loc 1 202 0 is_stmt 0 discriminator 1
 2931 06d8 A0319FE5 		ldr	r3, .L34+4
 2932 06dc 0620A0E3 		mov	r2, #6
 2933 06e0 0520C3E5 		strb	r2, [r3, #5]
 2934 06e4 400000EA 		b	.L23
 2935              	.L28:
 203:../proyecto.c **** 	else if (compareMonth(monthStr, "Jul")) rtc_time.mon = 7;
 2936              		.loc 1 203 0 is_stmt 1
 2937 06e8 18304BE2 		sub	r3, fp, #24
 2938 06ec 0300A0E1 		mov	r0, r3
 2939 06f0 A8119FE5 		ldr	r1, .L34+36
 2940 06f4 FEFFFFEB 		bl	compareMonth
 2941 06f8 0030A0E1 		mov	r3, r0
 2942 06fc 000053E3 		cmp	r3, #0
 2943 0700 0300000A 		beq	.L29
 2944              		.loc 1 203 0 is_stmt 0 discriminator 1
 2945 0704 74319FE5 		ldr	r3, .L34+4
 2946 0708 0720A0E3 		mov	r2, #7
 2947 070c 0520C3E5 		strb	r2, [r3, #5]
 2948 0710 350000EA 		b	.L23
 2949              	.L29:
 204:../proyecto.c **** 	else if (compareMonth(monthStr, "Aug")) rtc_time.mon = 8;
 2950              		.loc 1 204 0 is_stmt 1
 2951 0714 18304BE2 		sub	r3, fp, #24
 2952 0718 0300A0E1 		mov	r0, r3
 2953 071c 80119FE5 		ldr	r1, .L34+40
 2954 0720 FEFFFFEB 		bl	compareMonth
 2955 0724 0030A0E1 		mov	r3, r0
 2956 0728 000053E3 		cmp	r3, #0
 2957 072c 0300000A 		beq	.L30
 2958              		.loc 1 204 0 is_stmt 0 discriminator 1
 2959 0730 48319FE5 		ldr	r3, .L34+4
 2960 0734 0820A0E3 		mov	r2, #8
 2961 0738 0520C3E5 		strb	r2, [r3, #5]
 2962 073c 2A0000EA 		b	.L23
 2963              	.L30:
 205:../proyecto.c **** 	else if (compareMonth(monthStr, "Sep")) rtc_time.mon = 9;
 2964              		.loc 1 205 0 is_stmt 1
 2965 0740 18304BE2 		sub	r3, fp, #24
 2966 0744 0300A0E1 		mov	r0, r3
 2967 0748 58119FE5 		ldr	r1, .L34+44
 2968 074c FEFFFFEB 		bl	compareMonth
 2969 0750 0030A0E1 		mov	r3, r0
 2970 0754 000053E3 		cmp	r3, #0
 2971 0758 0300000A 		beq	.L31
 2972              		.loc 1 205 0 is_stmt 0 discriminator 1
 2973 075c 1C319FE5 		ldr	r3, .L34+4
 2974 0760 0920A0E3 		mov	r2, #9
 2975 0764 0520C3E5 		strb	r2, [r3, #5]
 2976 0768 1F0000EA 		b	.L23
 2977              	.L31:
 206:../proyecto.c **** 	else if (compareMonth(monthStr, "Oct")) rtc_time.mon = 10;
 2978              		.loc 1 206 0 is_stmt 1
 2979 076c 18304BE2 		sub	r3, fp, #24
 2980 0770 0300A0E1 		mov	r0, r3
 2981 0774 30119FE5 		ldr	r1, .L34+48
 2982 0778 FEFFFFEB 		bl	compareMonth
 2983 077c 0030A0E1 		mov	r3, r0
 2984 0780 000053E3 		cmp	r3, #0
 2985 0784 0300000A 		beq	.L32
 2986              		.loc 1 206 0 is_stmt 0 discriminator 1
 2987 0788 F0309FE5 		ldr	r3, .L34+4
 2988 078c 0A20A0E3 		mov	r2, #10
 2989 0790 0520C3E5 		strb	r2, [r3, #5]
 2990 0794 140000EA 		b	.L23
 2991              	.L32:
 207:../proyecto.c **** 	else if (compareMonth(monthStr, "Nov")) rtc_time.mon = 11;
 2992              		.loc 1 207 0 is_stmt 1
 2993 0798 18304BE2 		sub	r3, fp, #24
 2994 079c 0300A0E1 		mov	r0, r3
 2995 07a0 08119FE5 		ldr	r1, .L34+52
 2996 07a4 FEFFFFEB 		bl	compareMonth
 2997 07a8 0030A0E1 		mov	r3, r0
 2998 07ac 000053E3 		cmp	r3, #0
 2999 07b0 0300000A 		beq	.L33
 3000              		.loc 1 207 0 is_stmt 0 discriminator 1
 3001 07b4 C4309FE5 		ldr	r3, .L34+4
 3002 07b8 0B20A0E3 		mov	r2, #11
 3003 07bc 0520C3E5 		strb	r2, [r3, #5]
 3004 07c0 090000EA 		b	.L23
 3005              	.L33:
 208:../proyecto.c **** 	else if (compareMonth(monthStr, "Dec")) rtc_time.mon = 12;
 3006              		.loc 1 208 0 is_stmt 1
 3007 07c4 18304BE2 		sub	r3, fp, #24
 3008 07c8 0300A0E1 		mov	r0, r3
 3009 07cc E0109FE5 		ldr	r1, .L34+56
 3010 07d0 FEFFFFEB 		bl	compareMonth
 3011 07d4 0030A0E1 		mov	r3, r0
 3012 07d8 000053E3 		cmp	r3, #0
 3013 07dc 0200000A 		beq	.L23
 3014              		.loc 1 208 0 is_stmt 0 discriminator 1
 3015 07e0 98309FE5 		ldr	r3, .L34+4
 3016 07e4 0C20A0E3 		mov	r2, #12
 3017 07e8 0520C3E5 		strb	r2, [r3, #5]
 3018              	.L23:
 209:../proyecto.c **** 	rtc_time.wday = calcularDiaSemana(rtc_time.year, rtc_time.mon, rtc_time.mday);
 3019              		.loc 1 209 0 is_stmt 1
 3020 07ec 8C309FE5 		ldr	r3, .L34+4
 3021 07f0 0610D3E5 		ldrb	r1, [r3, #6]	@ zero_extendqisi2
 3022 07f4 84309FE5 		ldr	r3, .L34+4
 3023 07f8 0520D3E5 		ldrb	r2, [r3, #5]	@ zero_extendqisi2
 3024 07fc 7C309FE5 		ldr	r3, .L34+4
 3025 0800 0330D3E5 		ldrb	r3, [r3, #3]	@ zero_extendqisi2
 3026 0804 0100A0E1 		mov	r0, r1
 3027 0808 0210A0E1 		mov	r1, r2
 3028 080c 0320A0E1 		mov	r2, r3
 3029 0810 FEFFFFEB 		bl	calcularDiaSemana
 3030 0814 0030A0E1 		mov	r3, r0
 3031 0818 0320A0E1 		mov	r2, r3
 3032 081c 5C309FE5 		ldr	r3, .L34+4
 3033 0820 0420C3E5 		strb	r2, [r3, #4]
 210:../proyecto.c **** 	rtc_time.year = (compileDate[9] - '0') * 10 + (compileDate[10] - '0');
 3034              		.loc 1 210 0
 3035 0824 14301BE5 		ldr	r3, [fp, #-20]
 3036 0828 093083E2 		add	r3, r3, #9
 3037 082c 0030D3E5 		ldrb	r3, [r3, #0]	@ zero_extendqisi2
 3038 0830 0320A0E1 		mov	r2, r3
 3039 0834 0221A0E1 		mov	r2, r2, asl #2
 3040 0838 033082E0 		add	r3, r2, r3
 3041 083c 8330A0E1 		mov	r3, r3, asl #1
 3042 0840 FF2003E2 		and	r2, r3, #255
 3043 0844 14301BE5 		ldr	r3, [fp, #-20]
 3044 0848 0A3083E2 		add	r3, r3, #10
 3045 084c 0030D3E5 		ldrb	r3, [r3, #0]	@ zero_extendqisi2
 3046 0850 033082E0 		add	r3, r2, r3
 3047 0854 FF3003E2 		and	r3, r3, #255
 3048 0858 103043E2 		sub	r3, r3, #16
 3049 085c FF2003E2 		and	r2, r3, #255
 3050 0860 18309FE5 		ldr	r3, .L34+4
 3051 0864 0620C3E5 		strb	r2, [r3, #6]
 211:../proyecto.c **** 	rtc_puttime( &rtc_time );
 3052              		.loc 1 211 0
 3053 0868 10009FE5 		ldr	r0, .L34+4
 3054 086c FEFFFFEB 		bl	rtc_puttime
 212:../proyecto.c **** }
 3055              		.loc 1 212 0
 3056 0870 0CD04BE2 		sub	sp, fp, #12
 3057 0874 00689DE8 		ldmfd	sp, {fp, sp, lr}
 3058 0878 1EFF2FE1 		bx	lr
 3059              	.L35:
 3060              		.align	2
 3061              	.L34:
 3062 087c 00000000 		.word	.LC0
 3063 0880 00000000 		.word	rtc_time
 3064 0884 0C000000 		.word	.LC1
 3065 0888 18000000 		.word	.LC2
 3066 088c 1C000000 		.word	.LC3
 3067 0890 20000000 		.word	.LC4
 3068 0894 24000000 		.word	.LC5
 3069 0898 28000000 		.word	.LC6
 3070 089c 2C000000 		.word	.LC7
 3071 08a0 30000000 		.word	.LC8
 3072 08a4 34000000 		.word	.LC9
 3073 08a8 38000000 		.word	.LC10
 3074 08ac 3C000000 		.word	.LC11
 3075 08b0 40000000 		.word	.LC12
 3076 08b4 44000000 		.word	.LC13
 3077              		.cfi_endproc
 3078              	.LFE4:
 3080              		.section	.rodata
 3081              		.align	2
 3082              	.LC14:
 3083 0048 446F6D69 		.ascii	"Domingo\000"
 3083      6E676F00 
 3084              		.align	2
 3085              	.LC15:
 3086 0050 4C756E65 		.ascii	"Lunes\000"
 3086      7300
 3087 0056 0000     		.align	2
 3088              	.LC16:
 3089 0058 4D617274 		.ascii	"Martes\000"
 3089      657300
 3090 005f 00       		.align	2
 3091              	.LC17:
 3092 0060 4D696572 		.ascii	"Miercoles\000"
 3092      636F6C65 
 3092      7300
 3093 006a 0000     		.align	2
 3094              	.LC18:
 3095 006c 4A756576 		.ascii	"Jueves\000"
 3095      657300
 3096 0073 00       		.align	2
 3097              	.LC19:
 3098 0074 56696572 		.ascii	"Viernes\000"
 3098      6E657300 
 3099              		.align	2
 3100              	.LC20:
 3101 007c 53616261 		.ascii	"Sabado\000"
 3101      646F00
 3102 0083 00       		.align	2
 3103              	.LC21:
 3104 0084 4572726F 		.ascii	"Error\000"
 3104      7200
 3105              		.text
 3106              		.align	2
 3107              		.global	mostrarDiaSemana
 3109              	mostrarDiaSemana:
 3110              	.LFB5:
 213:../proyecto.c **** void mostrarDiaSemana(void){
 3111              		.loc 1 213 0
 3112              		.cfi_startproc
 3113              		@ Function supports interworking.
 3114              		@ args = 0, pretend = 0, frame = 0
 3115              		@ frame_needed = 1, uses_anonymous_args = 0
 3116 08b8 0DC0A0E1 		mov	ip, sp
 3117              	.LCFI10:
 3118              		.cfi_def_cfa_register 12
 3119 08bc 00D82DE9 		stmfd	sp!, {fp, ip, lr, pc}
 3120 08c0 04B04CE2 		sub	fp, ip, #4
 3121              		.cfi_offset 14, -8
 3122              		.cfi_offset 13, -12
 3123              		.cfi_offset 11, -16
 3124              	.LCFI11:
 3125              		.cfi_def_cfa 11, 4
 214:../proyecto.c **** 
 215:../proyecto.c **** 	switch( rtc_time.wday){
 3126              		.loc 1 215 0
 3127 08c4 F8309FE5 		ldr	r3, .L47
 3128 08c8 0430D3E5 		ldrb	r3, [r3, #4]	@ zero_extendqisi2
 3129 08cc 013043E2 		sub	r3, r3, #1
 3130 08d0 060053E3 		cmp	r3, #6
 3131 08d4 03F19F97 		ldrls	pc, [pc, r3, asl #2]
 3132 08d8 300000EA 		b	.L37
 3133              	.L45:
 3134 08dc F8080000 		.word	.L38
 3135 08e0 10090000 		.word	.L39
 3136 08e4 28090000 		.word	.L40
 3137 08e8 40090000 		.word	.L41
 3138 08ec 58090000 		.word	.L42
 3139 08f0 70090000 		.word	.L43
 3140 08f4 88090000 		.word	.L44
 3141              	.L38:
 216:../proyecto.c **** 		case 1:
 217:../proyecto.c **** 			lcd_puts( 30, 45, BLACK,"Domingo");
 3142              		.loc 1 217 0
 3143 08f8 1E00A0E3 		mov	r0, #30
 3144 08fc 2D10A0E3 		mov	r1, #45
 3145 0900 0F20A0E3 		mov	r2, #15
 3146 0904 BC309FE5 		ldr	r3, .L47+4
 3147 0908 FEFFFFEB 		bl	lcd_puts
 218:../proyecto.c **** 				break;
 3148              		.loc 1 218 0
 3149 090c 290000EA 		b	.L36
 3150              	.L39:
 219:../proyecto.c **** 		case 2:
 220:../proyecto.c **** 			lcd_puts( 30, 45, BLACK,"Lunes");
 3151              		.loc 1 220 0
 3152 0910 1E00A0E3 		mov	r0, #30
 3153 0914 2D10A0E3 		mov	r1, #45
 3154 0918 0F20A0E3 		mov	r2, #15
 3155 091c A8309FE5 		ldr	r3, .L47+8
 3156 0920 FEFFFFEB 		bl	lcd_puts
 221:../proyecto.c **** 					break;
 3157              		.loc 1 221 0
 3158 0924 230000EA 		b	.L36
 3159              	.L40:
 222:../proyecto.c **** 		case 3:
 223:../proyecto.c **** 			lcd_puts( 30, 45, BLACK,"Martes");
 3160              		.loc 1 223 0
 3161 0928 1E00A0E3 		mov	r0, #30
 3162 092c 2D10A0E3 		mov	r1, #45
 3163 0930 0F20A0E3 		mov	r2, #15
 3164 0934 94309FE5 		ldr	r3, .L47+12
 3165 0938 FEFFFFEB 		bl	lcd_puts
 224:../proyecto.c **** 					break;
 3166              		.loc 1 224 0
 3167 093c 1D0000EA 		b	.L36
 3168              	.L41:
 225:../proyecto.c **** 		case 4:
 226:../proyecto.c **** 			lcd_puts( 30, 45, BLACK,"Miercoles");
 3169              		.loc 1 226 0
 3170 0940 1E00A0E3 		mov	r0, #30
 3171 0944 2D10A0E3 		mov	r1, #45
 3172 0948 0F20A0E3 		mov	r2, #15
 3173 094c 80309FE5 		ldr	r3, .L47+16
 3174 0950 FEFFFFEB 		bl	lcd_puts
 227:../proyecto.c **** 					break;
 3175              		.loc 1 227 0
 3176 0954 170000EA 		b	.L36
 3177              	.L42:
 228:../proyecto.c **** 		case 5:
 229:../proyecto.c **** 			lcd_puts( 30, 45, BLACK,"Jueves");
 3178              		.loc 1 229 0
 3179 0958 1E00A0E3 		mov	r0, #30
 3180 095c 2D10A0E3 		mov	r1, #45
 3181 0960 0F20A0E3 		mov	r2, #15
 3182 0964 6C309FE5 		ldr	r3, .L47+20
 3183 0968 FEFFFFEB 		bl	lcd_puts
 230:../proyecto.c **** 					break;
 3184              		.loc 1 230 0
 3185 096c 110000EA 		b	.L36
 3186              	.L43:
 231:../proyecto.c **** 		case 6:
 232:../proyecto.c **** 			lcd_puts( 30, 45, BLACK,"Viernes");
 3187              		.loc 1 232 0
 3188 0970 1E00A0E3 		mov	r0, #30
 3189 0974 2D10A0E3 		mov	r1, #45
 3190 0978 0F20A0E3 		mov	r2, #15
 3191 097c 58309FE5 		ldr	r3, .L47+24
 3192 0980 FEFFFFEB 		bl	lcd_puts
 233:../proyecto.c **** 					break;
 3193              		.loc 1 233 0
 3194 0984 0B0000EA 		b	.L36
 3195              	.L44:
 234:../proyecto.c **** 		case 7:
 235:../proyecto.c **** 			lcd_puts( 30, 45, BLACK,"Sabado");
 3196              		.loc 1 235 0
 3197 0988 1E00A0E3 		mov	r0, #30
 3198 098c 2D10A0E3 		mov	r1, #45
 3199 0990 0F20A0E3 		mov	r2, #15
 3200 0994 44309FE5 		ldr	r3, .L47+28
 3201 0998 FEFFFFEB 		bl	lcd_puts
 236:../proyecto.c **** 					break;
 3202              		.loc 1 236 0
 3203 099c 050000EA 		b	.L36
 3204              	.L37:
 237:../proyecto.c **** 		default:
 238:../proyecto.c **** 			lcd_puts( 30, 45, BLACK,"Error");
 3205              		.loc 1 238 0
 3206 09a0 1E00A0E3 		mov	r0, #30
 3207 09a4 2D10A0E3 		mov	r1, #45
 3208 09a8 0F20A0E3 		mov	r2, #15
 3209 09ac 30309FE5 		ldr	r3, .L47+32
 3210 09b0 FEFFFFEB 		bl	lcd_puts
 239:../proyecto.c **** 				break;
 3211              		.loc 1 239 0
 3212 09b4 0000A0E1 		mov	r0, r0	@ nop
 3213              	.L36:
 240:../proyecto.c **** 	}
 241:../proyecto.c **** 
 242:../proyecto.c **** }
 3214              		.loc 1 242 0
 3215 09b8 0CD04BE2 		sub	sp, fp, #12
 3216 09bc 00689DE8 		ldmfd	sp, {fp, sp, lr}
 3217 09c0 1EFF2FE1 		bx	lr
 3218              	.L48:
 3219              		.align	2
 3220              	.L47:
 3221 09c4 00000000 		.word	rtc_time
 3222 09c8 48000000 		.word	.LC14
 3223 09cc 50000000 		.word	.LC15
 3224 09d0 58000000 		.word	.LC16
 3225 09d4 60000000 		.word	.LC17
 3226 09d8 6C000000 		.word	.LC18
 3227 09dc 74000000 		.word	.LC19
 3228 09e0 7C000000 		.word	.LC20
 3229 09e4 84000000 		.word	.LC21
 3230              		.cfi_endproc
 3231              	.LFE5:
 3233              		.align	2
 3234              		.global	mostrarRelojPrincipal
 3236              	mostrarRelojPrincipal:
 3237              	.LFB6:
 243:../proyecto.c **** void mostrarRelojPrincipal(void){
 3238              		.loc 1 243 0
 3239              		.cfi_startproc
 3240              		@ Function supports interworking.
 3241              		@ args = 0, pretend = 0, frame = 0
 3242              		@ frame_needed = 1, uses_anonymous_args = 0
 3243 09e8 0DC0A0E1 		mov	ip, sp
 3244              	.LCFI12:
 3245              		.cfi_def_cfa_register 12
 3246 09ec 00D82DE9 		stmfd	sp!, {fp, ip, lr, pc}
 3247 09f0 04B04CE2 		sub	fp, ip, #4
 3248              		.cfi_offset 14, -8
 3249              		.cfi_offset 13, -12
 3250              		.cfi_offset 11, -16
 3251              	.LCFI13:
 3252              		.cfi_def_cfa 11, 4
 244:../proyecto.c **** 	if( flagRtc )
 3253              		.loc 1 244 0
 3254 09f4 50319FE5 		ldr	r3, .L53
 3255 09f8 0030D3E5 		ldrb	r3, [r3, #0]
 3256 09fc FF3003E2 		and	r3, r3, #255
 3257 0a00 000053E3 		cmp	r3, #0
 3258 0a04 4D00000A 		beq	.L49
 245:../proyecto.c **** 		{
 246:../proyecto.c **** 		flagRtc = FALSE;
 3259              		.loc 1 246 0
 3260 0a08 3C319FE5 		ldr	r3, .L53
 3261 0a0c 0020A0E3 		mov	r2, #0
 3262 0a10 0020C3E5 		strb	r2, [r3, #0]
 247:../proyecto.c **** 
 248:../proyecto.c **** 		rtc_gettime( &rtc_time );
 3263              		.loc 1 248 0
 3264 0a14 34019FE5 		ldr	r0, .L53+4
 3265 0a18 FEFFFFEB 		bl	rtc_gettime
 249:../proyecto.c **** 
 250:../proyecto.c **** 		//Mostrar la hora (16 pixeles el caracter en x2, 8 pixeles de normal)
 251:../proyecto.c **** 		lcd_putint_x2(100, 90, BLACK, (int32) rtc_time.hour );
 3266              		.loc 1 251 0
 3267 0a1c 2C319FE5 		ldr	r3, .L53+4
 3268 0a20 0230D3E5 		ldrb	r3, [r3, #2]	@ zero_extendqisi2
 3269 0a24 6400A0E3 		mov	r0, #100
 3270 0a28 5A10A0E3 		mov	r1, #90
 3271 0a2c 0F20A0E3 		mov	r2, #15
 3272 0a30 FEFFFFEB 		bl	lcd_putint_x2
 252:../proyecto.c **** 		if(rtc_time.hour < 10){ //Para poner un 0 en el lcd y no sea solo un digito
 3273              		.loc 1 252 0
 3274 0a34 14319FE5 		ldr	r3, .L53+4
 3275 0a38 0230D3E5 		ldrb	r3, [r3, #2]	@ zero_extendqisi2
 3276 0a3c 090053E3 		cmp	r3, #9
 3277 0a40 0A00008A 		bhi	.L51
 253:../proyecto.c **** 				lcd_putint_x2(100, 90, BLACK, (int32) 0 );
 3278              		.loc 1 253 0
 3279 0a44 6400A0E3 		mov	r0, #100
 3280 0a48 5A10A0E3 		mov	r1, #90
 3281 0a4c 0F20A0E3 		mov	r2, #15
 3282 0a50 0030A0E3 		mov	r3, #0
 3283 0a54 FEFFFFEB 		bl	lcd_putint_x2
 254:../proyecto.c **** 				lcd_putint_x2(116, 90, BLACK, (int32) rtc_time.hour );
 3284              		.loc 1 254 0
 3285 0a58 F0309FE5 		ldr	r3, .L53+4
 3286 0a5c 0230D3E5 		ldrb	r3, [r3, #2]	@ zero_extendqisi2
 3287 0a60 7400A0E3 		mov	r0, #116
 3288 0a64 5A10A0E3 		mov	r1, #90
 3289 0a68 0F20A0E3 		mov	r2, #15
 3290 0a6c FEFFFFEB 		bl	lcd_putint_x2
 3291              	.L51:
 255:../proyecto.c **** 		}
 256:../proyecto.c **** 		lcd_putchar_x2(132, 90, BLACK, ':' );
 3292              		.loc 1 256 0
 3293 0a70 8400A0E3 		mov	r0, #132
 3294 0a74 5A10A0E3 		mov	r1, #90
 3295 0a78 0F20A0E3 		mov	r2, #15
 3296 0a7c 3A30A0E3 		mov	r3, #58
 3297 0a80 FEFFFFEB 		bl	lcd_putchar_x2
 257:../proyecto.c **** 		lcd_putint_x2(148, 90, BLACK, (int32) rtc_time.min );
 3298              		.loc 1 257 0
 3299 0a84 C4309FE5 		ldr	r3, .L53+4
 3300 0a88 0130D3E5 		ldrb	r3, [r3, #1]	@ zero_extendqisi2
 3301 0a8c 9400A0E3 		mov	r0, #148
 3302 0a90 5A10A0E3 		mov	r1, #90
 3303 0a94 0F20A0E3 		mov	r2, #15
 3304 0a98 FEFFFFEB 		bl	lcd_putint_x2
 258:../proyecto.c **** 		if(rtc_time.min < 10){ //Para poner un 0 en el lcd y no sea solo un digito
 3305              		.loc 1 258 0
 3306 0a9c AC309FE5 		ldr	r3, .L53+4
 3307 0aa0 0130D3E5 		ldrb	r3, [r3, #1]	@ zero_extendqisi2
 3308 0aa4 090053E3 		cmp	r3, #9
 3309 0aa8 0A00008A 		bhi	.L52
 259:../proyecto.c **** 				lcd_putint_x2(148, 90, BLACK, (int32) 0);
 3310              		.loc 1 259 0
 3311 0aac 9400A0E3 		mov	r0, #148
 3312 0ab0 5A10A0E3 		mov	r1, #90
 3313 0ab4 0F20A0E3 		mov	r2, #15
 3314 0ab8 0030A0E3 		mov	r3, #0
 3315 0abc FEFFFFEB 		bl	lcd_putint_x2
 260:../proyecto.c **** 				lcd_putint_x2(164, 90, BLACK, (int32)  rtc_time.min );
 3316              		.loc 1 260 0
 3317 0ac0 88309FE5 		ldr	r3, .L53+4
 3318 0ac4 0130D3E5 		ldrb	r3, [r3, #1]	@ zero_extendqisi2
 3319 0ac8 A400A0E3 		mov	r0, #164
 3320 0acc 5A10A0E3 		mov	r1, #90
 3321 0ad0 0F20A0E3 		mov	r2, #15
 3322 0ad4 FEFFFFEB 		bl	lcd_putint_x2
 3323              	.L52:
 261:../proyecto.c **** 		}
 262:../proyecto.c **** 		lcd_putchar_x2(180, 90, BLACK, ':' );
 3324              		.loc 1 262 0
 3325 0ad8 B400A0E3 		mov	r0, #180
 3326 0adc 5A10A0E3 		mov	r1, #90
 3327 0ae0 0F20A0E3 		mov	r2, #15
 3328 0ae4 3A30A0E3 		mov	r3, #58
 3329 0ae8 FEFFFFEB 		bl	lcd_putchar_x2
 263:../proyecto.c **** 		lcd_putint_x2(196, 90, BLACK, (int32) rtc_time.sec );
 3330              		.loc 1 263 0
 3331 0aec 5C309FE5 		ldr	r3, .L53+4
 3332 0af0 0030D3E5 		ldrb	r3, [r3, #0]	@ zero_extendqisi2
 3333 0af4 C400A0E3 		mov	r0, #196
 3334 0af8 5A10A0E3 		mov	r1, #90
 3335 0afc 0F20A0E3 		mov	r2, #15
 3336 0b00 FEFFFFEB 		bl	lcd_putint_x2
 264:../proyecto.c **** 		if(rtc_time.sec < 10){ //Para poner un 0 en el lcd y no sea solo un digito
 3337              		.loc 1 264 0
 3338 0b04 44309FE5 		ldr	r3, .L53+4
 3339 0b08 0030D3E5 		ldrb	r3, [r3, #0]	@ zero_extendqisi2
 3340 0b0c 090053E3 		cmp	r3, #9
 3341 0b10 0A00008A 		bhi	.L49
 265:../proyecto.c **** 				lcd_putint_x2(196, 90, BLACK, (int32) 0 );
 3342              		.loc 1 265 0
 3343 0b14 C400A0E3 		mov	r0, #196
 3344 0b18 5A10A0E3 		mov	r1, #90
 3345 0b1c 0F20A0E3 		mov	r2, #15
 3346 0b20 0030A0E3 		mov	r3, #0
 3347 0b24 FEFFFFEB 		bl	lcd_putint_x2
 266:../proyecto.c **** 				lcd_putint_x2(212, 90, BLACK, (int32) rtc_time.sec );
 3348              		.loc 1 266 0
 3349 0b28 20309FE5 		ldr	r3, .L53+4
 3350 0b2c 0030D3E5 		ldrb	r3, [r3, #0]	@ zero_extendqisi2
 3351 0b30 D400A0E3 		mov	r0, #212
 3352 0b34 5A10A0E3 		mov	r1, #90
 3353 0b38 0F20A0E3 		mov	r2, #15
 3354 0b3c FEFFFFEB 		bl	lcd_putint_x2
 3355              	.L49:
 267:../proyecto.c **** 			}
 268:../proyecto.c **** 
 269:../proyecto.c **** 
 270:../proyecto.c **** 		};
 271:../proyecto.c **** }
 3356              		.loc 1 271 0
 3357 0b40 0CD04BE2 		sub	sp, fp, #12
 3358 0b44 00689DE8 		ldmfd	sp, {fp, sp, lr}
 3359 0b48 1EFF2FE1 		bx	lr
 3360              	.L54:
 3361              		.align	2
 3362              	.L53:
 3363 0b4c 00000000 		.word	flagRtc
 3364 0b50 00000000 		.word	rtc_time
 3365              		.cfi_endproc
 3366              	.LFE6:
 3368              		.section	.rodata
 3369 008a 0000     		.align	2
 3370              	.LC22:
 3371 008c 43726F6E 		.ascii	"Cronometro\000"
 3371      6F6D6574 
 3371      726F00
 3372 0097 00       		.align	2
 3373              	.LC23:
 3374 0098 43616D62 		.ascii	"Cambiar fecha\000"
 3374      69617220 
 3374      66656368 
 3374      6100
 3375 00a6 0000     		.align	2
 3376              	.LC24:
 3377 00a8 43616D62 		.ascii	"Cambiar hora\000"
 3377      69617220 
 3377      686F7261 
 3377      00
 3378 00b5 000000   		.align	2
 3379              	.LC25:
 3380 00b8 4D6F646F 		.ascii	"Modo deporte\000"
 3380      20646570 
 3380      6F727465 
 3380      00
 3381 00c5 000000   		.align	2
 3382              	.LC26:
 3383 00c8 5061736F 		.ascii	"Pasos/min:\000"
 3383      732F6D69 
 3383      6E3A00
 3384 00d3 00       		.align	2
 3385              	.LC27:
 3386 00d4 4C617469 		.ascii	"Latidos/min:\000"
 3386      646F732F 
 3386      6D696E3A 
 3386      00
 3387              		.text
 3388              		.align	2
 3389              		.global	menuPrincipal
 3391              	menuPrincipal:
 3392              	.LFB7:
 272:../proyecto.c **** void menuPrincipal( void ){
 3393              		.loc 1 272 0
 3394              		.cfi_startproc
 3395              		@ Function supports interworking.
 3396              		@ args = 0, pretend = 0, frame = 8
 3397              		@ frame_needed = 1, uses_anonymous_args = 0
 3398 0b54 0DC0A0E1 		mov	ip, sp
 3399              	.LCFI14:
 3400              		.cfi_def_cfa_register 12
 3401 0b58 00D82DE9 		stmfd	sp!, {fp, ip, lr, pc}
 3402 0b5c 04B04CE2 		sub	fp, ip, #4
 3403              		.cfi_offset 14, -8
 3404              		.cfi_offset 13, -12
 3405              		.cfi_offset 11, -16
 3406              	.LCFI15:
 3407              		.cfi_def_cfa 11, 4
 3408 0b60 10D04DE2 		sub	sp, sp, #16
 273:../proyecto.c **** 
 274:../proyecto.c **** 
 275:../proyecto.c **** 
 276:../proyecto.c **** 	//Inicializamos el reloj a una fecha
 277:../proyecto.c **** 	iniciarReloj();
 3409              		.loc 1 277 0
 3410 0b64 FEFFFFEB 		bl	iniciarReloj
 278:../proyecto.c **** 	rtc_gettime( &rtc_time );
 3411              		.loc 1 278 0
 3412 0b68 9C049FE5 		ldr	r0, .L68
 3413 0b6c FEFFFFEB 		bl	rtc_gettime
 279:../proyecto.c **** 
 280:../proyecto.c **** 
 281:../proyecto.c **** 	uint16 x, y;
 282:../proyecto.c **** 
 283:../proyecto.c **** 
 284:../proyecto.c **** 	lcd_clear();
 3414              		.loc 1 284 0
 3415 0b70 FEFFFFEB 		bl	lcd_clear
 285:../proyecto.c **** 	flagPbs = FALSE;
 3416              		.loc 1 285 0
 3417 0b74 94349FE5 		ldr	r3, .L68+4
 3418 0b78 0020A0E3 		mov	r2, #0
 3419 0b7c 0020C3E5 		strb	r2, [r3, #0]
 286:../proyecto.c **** 	//Empieza programa menu principal
 287:../proyecto.c **** 	//Mientras no se pulse ningun pulsador
 288:../proyecto.c **** 	while(!flagPbs){
 3420              		.loc 1 288 0
 3421 0b80 190100EA 		b	.L56
 3422              	.L67:
 289:../proyecto.c **** 
 290:../proyecto.c **** 		//Generador de latidos
 291:../proyecto.c **** 		    	if( newBeat )
 3423              		.loc 1 291 0
 3424 0b84 88349FE5 		ldr	r3, .L68+8
 3425 0b88 0030D3E5 		ldrb	r3, [r3, #0]
 3426 0b8c FF3003E2 		and	r3, r3, #255
 3427 0b90 000053E3 		cmp	r3, #0
 3428 0b94 0400000A 		beq	.L57
 292:../proyecto.c **** 		    	{
 293:../proyecto.c **** 		    		newBeat = FALSE;
 3429              		.loc 1 293 0
 3430 0b98 74349FE5 		ldr	r3, .L68+8
 3431 0b9c 0020A0E3 		mov	r2, #0
 3432 0ba0 0020C3E5 		strb	r2, [r3, #0]
 294:../proyecto.c **** 		    		led_toggle( LEFT_LED );
 3433              		.loc 1 294 0
 3434 0ba4 0100A0E3 		mov	r0, #1
 3435 0ba8 FEFFFFEB 		bl	led_toggle
 3436              	.L57:
 295:../proyecto.c **** 		    	}
 296:../proyecto.c **** 		    	//Generador de pasos
 297:../proyecto.c **** 		    	if( newStep )
 3437              		.loc 1 297 0
 3438 0bac 64349FE5 		ldr	r3, .L68+12
 3439 0bb0 0030D3E5 		ldrb	r3, [r3, #0]
 3440 0bb4 FF3003E2 		and	r3, r3, #255
 3441 0bb8 000053E3 		cmp	r3, #0
 3442 0bbc 0400000A 		beq	.L58
 298:../proyecto.c **** 		    	{
 299:../proyecto.c **** 		    		newStep = FALSE;
 3443              		.loc 1 299 0
 3444 0bc0 50349FE5 		ldr	r3, .L68+12
 3445 0bc4 0020A0E3 		mov	r2, #0
 3446 0bc8 0020C3E5 		strb	r2, [r3, #0]
 300:../proyecto.c **** 		    		led_toggle( RIGHT_LED );
 3447              		.loc 1 300 0
 3448 0bcc 0200A0E3 		mov	r0, #2
 3449 0bd0 FEFFFFEB 		bl	led_toggle
 3450              	.L58:
 301:../proyecto.c **** 		    	}
 302:../proyecto.c **** 
 303:../proyecto.c **** 			mostrarRelojPrincipal();
 3451              		.loc 1 303 0
 3452 0bd4 FEFFFFEB 		bl	mostrarRelojPrincipal
 304:../proyecto.c **** 
 305:../proyecto.c **** 		/*-------------Pintamos el menu principal-------------*/
 306:../proyecto.c **** 
 307:../proyecto.c **** 		//Usamos esta variable para que no este constantemente pintando el menu
 308:../proyecto.c **** 		if(pintarMenuPrincipal){
 3453              		.loc 1 308 0
 3454 0bd8 3C349FE5 		ldr	r3, .L68+16
 3455 0bdc 0030D3E5 		ldrb	r3, [r3, #0]
 3456 0be0 FF3003E2 		and	r3, r3, #255
 3457 0be4 000053E3 		cmp	r3, #0
 3458 0be8 8D00000A 		beq	.L59
 309:../proyecto.c **** 			lcd_draw_box( 10, 10, 310, 230, BLACK, 5 );
 3459              		.loc 1 309 0
 3460 0bec 0F30A0E3 		mov	r3, #15
 3461 0bf0 00308DE5 		str	r3, [sp, #0]
 3462 0bf4 0530A0E3 		mov	r3, #5
 3463 0bf8 04308DE5 		str	r3, [sp, #4]
 3464 0bfc 0A00A0E3 		mov	r0, #10
 3465 0c00 0A10A0E3 		mov	r1, #10
 3466 0c04 14249FE5 		ldr	r2, .L68+20
 3467 0c08 E630A0E3 		mov	r3, #230
 3468 0c0c FEFFFFEB 		bl	lcd_draw_box
 310:../proyecto.c **** 
 311:../proyecto.c **** 			//Mostrar dia de la semana
 312:../proyecto.c **** 			mostrarDiaSemana();
 3469              		.loc 1 312 0
 3470 0c10 FEFFFFEB 		bl	mostrarDiaSemana
 313:../proyecto.c **** 
 314:../proyecto.c **** 			//Mostrar la fecha
 315:../proyecto.c **** 			lcd_putint( 30, 30, BLACK,(int32) rtc_time.mday );
 3471              		.loc 1 315 0
 3472 0c14 F0339FE5 		ldr	r3, .L68
 3473 0c18 0330D3E5 		ldrb	r3, [r3, #3]	@ zero_extendqisi2
 3474 0c1c 1E00A0E3 		mov	r0, #30
 3475 0c20 1E10A0E3 		mov	r1, #30
 3476 0c24 0F20A0E3 		mov	r2, #15
 3477 0c28 FEFFFFEB 		bl	lcd_putint
 316:../proyecto.c **** 			if(rtc_time.mday < 10){ //Para poner un 0 en el lcd y no sea solo un digito
 3478              		.loc 1 316 0
 3479 0c2c D8339FE5 		ldr	r3, .L68
 3480 0c30 0330D3E5 		ldrb	r3, [r3, #3]	@ zero_extendqisi2
 3481 0c34 090053E3 		cmp	r3, #9
 3482 0c38 0A00008A 		bhi	.L60
 317:../proyecto.c **** 					lcd_putint(30, 30, BLACK, (int32) 0 );
 3483              		.loc 1 317 0
 3484 0c3c 1E00A0E3 		mov	r0, #30
 3485 0c40 1E10A0E3 		mov	r1, #30
 3486 0c44 0F20A0E3 		mov	r2, #15
 3487 0c48 0030A0E3 		mov	r3, #0
 3488 0c4c FEFFFFEB 		bl	lcd_putint
 318:../proyecto.c **** 					lcd_putint(38, 30, BLACK, (int32) rtc_time.mday );
 3489              		.loc 1 318 0
 3490 0c50 B4339FE5 		ldr	r3, .L68
 3491 0c54 0330D3E5 		ldrb	r3, [r3, #3]	@ zero_extendqisi2
 3492 0c58 2600A0E3 		mov	r0, #38
 3493 0c5c 1E10A0E3 		mov	r1, #30
 3494 0c60 0F20A0E3 		mov	r2, #15
 3495 0c64 FEFFFFEB 		bl	lcd_putint
 3496              	.L60:
 319:../proyecto.c **** 				}
 320:../proyecto.c **** 			lcd_putchar( 46, 30, BLACK, '/' );
 3497              		.loc 1 320 0
 3498 0c68 2E00A0E3 		mov	r0, #46
 3499 0c6c 1E10A0E3 		mov	r1, #30
 3500 0c70 0F20A0E3 		mov	r2, #15
 3501 0c74 2F30A0E3 		mov	r3, #47
 3502 0c78 FEFFFFEB 		bl	lcd_putchar
 321:../proyecto.c **** 			lcd_putint( 54, 30, BLACK,(int32) rtc_time.mon );
 3503              		.loc 1 321 0
 3504 0c7c 88339FE5 		ldr	r3, .L68
 3505 0c80 0530D3E5 		ldrb	r3, [r3, #5]	@ zero_extendqisi2
 3506 0c84 3600A0E3 		mov	r0, #54
 3507 0c88 1E10A0E3 		mov	r1, #30
 3508 0c8c 0F20A0E3 		mov	r2, #15
 3509 0c90 FEFFFFEB 		bl	lcd_putint
 322:../proyecto.c **** 			if(rtc_time.mon < 10){ //Para poner un 0 en el lcd y no sea solo un digito
 3510              		.loc 1 322 0
 3511 0c94 70339FE5 		ldr	r3, .L68
 3512 0c98 0530D3E5 		ldrb	r3, [r3, #5]	@ zero_extendqisi2
 3513 0c9c 090053E3 		cmp	r3, #9
 3514 0ca0 0A00008A 		bhi	.L61
 323:../proyecto.c **** 					lcd_putint(54, 30, BLACK, (int32) 0 );
 3515              		.loc 1 323 0
 3516 0ca4 3600A0E3 		mov	r0, #54
 3517 0ca8 1E10A0E3 		mov	r1, #30
 3518 0cac 0F20A0E3 		mov	r2, #15
 3519 0cb0 0030A0E3 		mov	r3, #0
 3520 0cb4 FEFFFFEB 		bl	lcd_putint
 324:../proyecto.c **** 					lcd_putint(62, 30, BLACK, (int32) rtc_time.mon );
 3521              		.loc 1 324 0
 3522 0cb8 4C339FE5 		ldr	r3, .L68
 3523 0cbc 0530D3E5 		ldrb	r3, [r3, #5]	@ zero_extendqisi2
 3524 0cc0 3E00A0E3 		mov	r0, #62
 3525 0cc4 1E10A0E3 		mov	r1, #30
 3526 0cc8 0F20A0E3 		mov	r2, #15
 3527 0ccc FEFFFFEB 		bl	lcd_putint
 3528              	.L61:
 325:../proyecto.c **** 				}
 326:../proyecto.c **** 			lcd_putchar( 70, 30, BLACK, '/' );
 3529              		.loc 1 326 0
 3530 0cd0 4600A0E3 		mov	r0, #70
 3531 0cd4 1E10A0E3 		mov	r1, #30
 3532 0cd8 0F20A0E3 		mov	r2, #15
 3533 0cdc 2F30A0E3 		mov	r3, #47
 3534 0ce0 FEFFFFEB 		bl	lcd_putchar
 327:../proyecto.c **** 			lcd_putint( 78, 30, BLACK,(int32) rtc_time.year );
 3535              		.loc 1 327 0
 3536 0ce4 20339FE5 		ldr	r3, .L68
 3537 0ce8 0630D3E5 		ldrb	r3, [r3, #6]	@ zero_extendqisi2
 3538 0cec 4E00A0E3 		mov	r0, #78
 3539 0cf0 1E10A0E3 		mov	r1, #30
 3540 0cf4 0F20A0E3 		mov	r2, #15
 3541 0cf8 FEFFFFEB 		bl	lcd_putint
 328:../proyecto.c **** 			if(rtc_time.year < 10){ //Para poner un 0 en el lcd y no sea solo un digito
 3542              		.loc 1 328 0
 3543 0cfc 08339FE5 		ldr	r3, .L68
 3544 0d00 0630D3E5 		ldrb	r3, [r3, #6]	@ zero_extendqisi2
 3545 0d04 090053E3 		cmp	r3, #9
 3546 0d08 0A00008A 		bhi	.L62
 329:../proyecto.c **** 				lcd_putint(78, 30, BLACK, (int32) 0 );
 3547              		.loc 1 329 0
 3548 0d0c 4E00A0E3 		mov	r0, #78
 3549 0d10 1E10A0E3 		mov	r1, #30
 3550 0d14 0F20A0E3 		mov	r2, #15
 3551 0d18 0030A0E3 		mov	r3, #0
 3552 0d1c FEFFFFEB 		bl	lcd_putint
 330:../proyecto.c **** 				lcd_putint(86, 30, BLACK, (int32) rtc_time.year );
 3553              		.loc 1 330 0
 3554 0d20 E4329FE5 		ldr	r3, .L68
 3555 0d24 0630D3E5 		ldrb	r3, [r3, #6]	@ zero_extendqisi2
 3556 0d28 5600A0E3 		mov	r0, #86
 3557 0d2c 1E10A0E3 		mov	r1, #30
 3558 0d30 0F20A0E3 		mov	r2, #15
 3559 0d34 FEFFFFEB 		bl	lcd_putint
 3560              	.L62:
 331:../proyecto.c **** 			}
 332:../proyecto.c **** 
 333:../proyecto.c **** 
 334:../proyecto.c **** 			//Parte izquierda
 335:../proyecto.c **** 			//----------------------
 336:../proyecto.c **** 			//Mostrar opcion cronometro
 337:../proyecto.c **** 			lcd_draw_box(30, 135, 150, 160, BLACK, 3);
 3561              		.loc 1 337 0
 3562 0d38 0F30A0E3 		mov	r3, #15
 3563 0d3c 00308DE5 		str	r3, [sp, #0]
 3564 0d40 0330A0E3 		mov	r3, #3
 3565 0d44 04308DE5 		str	r3, [sp, #4]
 3566 0d48 1E00A0E3 		mov	r0, #30
 3567 0d4c 8710A0E3 		mov	r1, #135
 3568 0d50 9620A0E3 		mov	r2, #150
 3569 0d54 A030A0E3 		mov	r3, #160
 3570 0d58 FEFFFFEB 		bl	lcd_draw_box
 338:../proyecto.c **** 			lcd_puts(40, 140, BLACK, "Cronometro");
 3571              		.loc 1 338 0
 3572 0d5c 2800A0E3 		mov	r0, #40
 3573 0d60 8C10A0E3 		mov	r1, #140
 3574 0d64 0F20A0E3 		mov	r2, #15
 3575 0d68 B4329FE5 		ldr	r3, .L68+24
 3576 0d6c FEFFFFEB 		bl	lcd_puts
 339:../proyecto.c **** 
 340:../proyecto.c **** 			//Mostrar opcion cambiar fecha
 341:../proyecto.c **** 			lcd_draw_box(30, 165, 150, 190, BLACK, 3);
 3577              		.loc 1 341 0
 3578 0d70 0F30A0E3 		mov	r3, #15
 3579 0d74 00308DE5 		str	r3, [sp, #0]
 3580 0d78 0330A0E3 		mov	r3, #3
 3581 0d7c 04308DE5 		str	r3, [sp, #4]
 3582 0d80 1E00A0E3 		mov	r0, #30
 3583 0d84 A510A0E3 		mov	r1, #165
 3584 0d88 9620A0E3 		mov	r2, #150
 3585 0d8c BE30A0E3 		mov	r3, #190
 3586 0d90 FEFFFFEB 		bl	lcd_draw_box
 342:../proyecto.c **** 			lcd_puts(40, 170, BLACK, "Cambiar fecha");
 3587              		.loc 1 342 0
 3588 0d94 2800A0E3 		mov	r0, #40
 3589 0d98 AA10A0E3 		mov	r1, #170
 3590 0d9c 0F20A0E3 		mov	r2, #15
 3591 0da0 80329FE5 		ldr	r3, .L68+28
 3592 0da4 FEFFFFEB 		bl	lcd_puts
 343:../proyecto.c **** 
 344:../proyecto.c **** 			//Parte derecha
 345:../proyecto.c **** 			//----------------------
 346:../proyecto.c **** 
 347:../proyecto.c **** 			//Mostrar opcion cambiar hora
 348:../proyecto.c **** 			lcd_draw_box(170, 135, 290, 160, BLACK, 3);
 3593              		.loc 1 348 0
 3594 0da8 0F30A0E3 		mov	r3, #15
 3595 0dac 00308DE5 		str	r3, [sp, #0]
 3596 0db0 0330A0E3 		mov	r3, #3
 3597 0db4 04308DE5 		str	r3, [sp, #4]
 3598 0db8 AA00A0E3 		mov	r0, #170
 3599 0dbc 8710A0E3 		mov	r1, #135
 3600 0dc0 64229FE5 		ldr	r2, .L68+32
 3601 0dc4 A030A0E3 		mov	r3, #160
 3602 0dc8 FEFFFFEB 		bl	lcd_draw_box
 349:../proyecto.c **** 			lcd_puts(180, 140, BLACK, "Cambiar hora");
 3603              		.loc 1 349 0
 3604 0dcc B400A0E3 		mov	r0, #180
 3605 0dd0 8C10A0E3 		mov	r1, #140
 3606 0dd4 0F20A0E3 		mov	r2, #15
 3607 0dd8 50329FE5 		ldr	r3, .L68+36
 3608 0ddc FEFFFFEB 		bl	lcd_puts
 350:../proyecto.c **** 
 351:../proyecto.c **** 			//Mostrar opcion contador latidos
 352:../proyecto.c **** 			lcd_draw_box(170, 165, 290, 190, BLACK, 3);
 3609              		.loc 1 352 0
 3610 0de0 0F30A0E3 		mov	r3, #15
 3611 0de4 00308DE5 		str	r3, [sp, #0]
 3612 0de8 0330A0E3 		mov	r3, #3
 3613 0dec 04308DE5 		str	r3, [sp, #4]
 3614 0df0 AA00A0E3 		mov	r0, #170
 3615 0df4 A510A0E3 		mov	r1, #165
 3616 0df8 2C229FE5 		ldr	r2, .L68+32
 3617 0dfc BE30A0E3 		mov	r3, #190
 3618 0e00 FEFFFFEB 		bl	lcd_draw_box
 353:../proyecto.c **** 			lcd_puts(180, 170, BLACK, "Modo deporte");
 3619              		.loc 1 353 0
 3620 0e04 B400A0E3 		mov	r0, #180
 3621 0e08 AA10A0E3 		mov	r1, #170
 3622 0e0c 0F20A0E3 		mov	r2, #15
 3623 0e10 1C329FE5 		ldr	r3, .L68+40
 3624 0e14 FEFFFFEB 		bl	lcd_puts
 354:../proyecto.c **** 
 355:../proyecto.c **** 			//Hacemos que el programa no vuelva a pintar el menu
 356:../proyecto.c **** 			pintarMenuPrincipal = FALSE;
 3625              		.loc 1 356 0
 3626 0e18 FC319FE5 		ldr	r3, .L68+16
 3627 0e1c 0020A0E3 		mov	r2, #0
 3628 0e20 0020C3E5 		strb	r2, [r3, #0]
 3629              	.L59:
 357:../proyecto.c **** 		}
 358:../proyecto.c **** 
 359:../proyecto.c **** 		INT_DISABLE;
 3630              		.loc 1 359 0
 3631              	@ 359 "../proyecto.c" 1
 3632 0e24 00000FE1 		mrs   r0, cpsr              
 3633 0e28 04002DE5 	stmfd sp!, {r0}             
 3634 0e2c C00080E3 	orr   r0, r0, #0b11000000   
 3635 0e30 00F021E1 	msr   cpsr_c, r0              
 3636              	@ 0 "" 2
 360:../proyecto.c **** 		lcd_puts(180, 30, BLACK, "Pasos/min:");
 3637              		.loc 1 360 0
 3638 0e34 B400A0E3 		mov	r0, #180
 3639 0e38 1E10A0E3 		mov	r1, #30
 3640 0e3c 0F20A0E3 		mov	r2, #15
 3641 0e40 F0319FE5 		ldr	r3, .L68+44
 3642 0e44 FEFFFFEB 		bl	lcd_puts
 361:../proyecto.c **** 		lcd_putint(270, 30, BLACK, (int32) pasosPorMin);
 3643              		.loc 1 361 0
 3644 0e48 EC319FE5 		ldr	r3, .L68+48
 3645 0e4c B030D3E1 		ldrh	r3, [r3, #0]	@ movhi
 3646 0e50 0338A0E1 		mov	r3, r3, asl #16
 3647 0e54 2338A0E1 		mov	r3, r3, lsr #16
 3648 0e58 E0019FE5 		ldr	r0, .L68+52
 3649 0e5c 1E10A0E3 		mov	r1, #30
 3650 0e60 0F20A0E3 		mov	r2, #15
 3651 0e64 FEFFFFEB 		bl	lcd_putint
 362:../proyecto.c **** 
 363:../proyecto.c **** 		lcd_puts(164, 45, BLACK, "Latidos/min:");
 3652              		.loc 1 363 0
 3653 0e68 A400A0E3 		mov	r0, #164
 3654 0e6c 2D10A0E3 		mov	r1, #45
 3655 0e70 0F20A0E3 		mov	r2, #15
 3656 0e74 C8319FE5 		ldr	r3, .L68+56
 3657 0e78 FEFFFFEB 		bl	lcd_puts
 364:../proyecto.c **** 		lcd_putint(270, 45, BLACK, (int32) latidosPorMin);
 3658              		.loc 1 364 0
 3659 0e7c C4319FE5 		ldr	r3, .L68+60
 3660 0e80 B030D3E1 		ldrh	r3, [r3, #0]	@ movhi
 3661 0e84 0338A0E1 		mov	r3, r3, asl #16
 3662 0e88 2338A0E1 		mov	r3, r3, lsr #16
 3663 0e8c AC019FE5 		ldr	r0, .L68+52
 3664 0e90 2D10A0E3 		mov	r1, #45
 3665 0e94 0F20A0E3 		mov	r2, #15
 3666 0e98 FEFFFFEB 		bl	lcd_putint
 365:../proyecto.c **** 		INT_ENABLE;
 3667              		.loc 1 365 0
 3668              	@ 365 "../proyecto.c" 1
 3669 0e9c 04009DE4 		ldmfd sp!, {r0}             
 3670 0ea0 00F021E1 	msr   cpsr_c, r0              
 3671              	@ 0 "" 2
 366:../proyecto.c **** 		/*-------------Reconocemos pulsaciones del touchpad el menu principal-------------*/
 367:../proyecto.c **** 			//Captamos donde ha presionado el usuario
 368:../proyecto.c **** 		if(ts_pressed()){
 3672              		.loc 1 368 0
 3673 0ea4 FEFFFFEB 		bl	ts_pressed
 3674 0ea8 0030A0E1 		mov	r3, r0
 3675 0eac 000053E3 		cmp	r3, #0
 3676 0eb0 0400000A 		beq	.L63
 369:../proyecto.c **** 			ts_getpos(&x,&y);
 3677              		.loc 1 369 0
 3678 0eb4 0E204BE2 		sub	r2, fp, #14
 3679 0eb8 10304BE2 		sub	r3, fp, #16
 3680 0ebc 0200A0E1 		mov	r0, r2
 3681 0ec0 0310A0E1 		mov	r1, r3
 3682 0ec4 FEFFFFEB 		bl	ts_getpos
 3683              	.L63:
 370:../proyecto.c **** 		}
 371:../proyecto.c **** 
 372:../proyecto.c **** 
 373:../proyecto.c **** 		if( x>30 && y>135 && x<150 && y<160 )
 3684              		.loc 1 373 0
 3685 0ec8 BE305BE1 		ldrh	r3, [fp, #-14]
 3686 0ecc 1E0053E3 		cmp	r3, #30
 3687 0ed0 0E00009A 		bls	.L64
 3688              		.loc 1 373 0 is_stmt 0 discriminator 1
 3689 0ed4 B0315BE1 		ldrh	r3, [fp, #-16]
 3690 0ed8 870053E3 		cmp	r3, #135
 3691 0edc 0B00009A 		bls	.L64
 3692 0ee0 BE305BE1 		ldrh	r3, [fp, #-14]
 3693 0ee4 950053E3 		cmp	r3, #149
 3694 0ee8 0800008A 		bhi	.L64
 3695 0eec B0315BE1 		ldrh	r3, [fp, #-16]
 3696 0ef0 9F0053E3 		cmp	r3, #159
 3697 0ef4 0500008A 		bhi	.L64
 374:../proyecto.c **** 			{
 375:../proyecto.c **** 				x=0;
 3698              		.loc 1 375 0 is_stmt 1
 3699 0ef8 0030A0E3 		mov	r3, #0
 3700 0efc BE304BE1 		strh	r3, [fp, #-14]	@ movhi
 376:../proyecto.c **** 				y = 0;
 3701              		.loc 1 376 0
 3702 0f00 0030A0E3 		mov	r3, #0
 3703 0f04 B0314BE1 		strh	r3, [fp, #-16]	@ movhi
 377:../proyecto.c **** 				modoCronometro();
 3704              		.loc 1 377 0
 3705 0f08 FEFFFFEB 		bl	modoCronometro
 3706 0f0c 360000EA 		b	.L56
 3707              	.L64:
 378:../proyecto.c **** 			}
 379:../proyecto.c **** 		else if( x>30 && y>165 && x<150 && y<190 )
 3708              		.loc 1 379 0
 3709 0f10 BE305BE1 		ldrh	r3, [fp, #-14]
 3710 0f14 1E0053E3 		cmp	r3, #30
 3711 0f18 0E00009A 		bls	.L65
 3712              		.loc 1 379 0 is_stmt 0 discriminator 1
 3713 0f1c B0315BE1 		ldrh	r3, [fp, #-16]
 3714 0f20 A50053E3 		cmp	r3, #165
 3715 0f24 0B00009A 		bls	.L65
 3716 0f28 BE305BE1 		ldrh	r3, [fp, #-14]
 3717 0f2c 950053E3 		cmp	r3, #149
 3718 0f30 0800008A 		bhi	.L65
 3719 0f34 B0315BE1 		ldrh	r3, [fp, #-16]
 3720 0f38 BD0053E3 		cmp	r3, #189
 3721 0f3c 0500008A 		bhi	.L65
 380:../proyecto.c **** 			{
 381:../proyecto.c **** 				x=0;
 3722              		.loc 1 381 0 is_stmt 1
 3723 0f40 0030A0E3 		mov	r3, #0
 3724 0f44 BE304BE1 		strh	r3, [fp, #-14]	@ movhi
 382:../proyecto.c **** 				y = 0;
 3725              		.loc 1 382 0
 3726 0f48 0030A0E3 		mov	r3, #0
 3727 0f4c B0314BE1 		strh	r3, [fp, #-16]	@ movhi
 383:../proyecto.c **** 				modoFecha();
 3728              		.loc 1 383 0
 3729 0f50 FEFFFFEB 		bl	modoFecha
 3730 0f54 240000EA 		b	.L56
 3731              	.L65:
 384:../proyecto.c **** 			}
 385:../proyecto.c **** 		else if( x>170 && y>135 && x<290 && y<160 )
 3732              		.loc 1 385 0
 3733 0f58 BE305BE1 		ldrh	r3, [fp, #-14]
 3734 0f5c AA0053E3 		cmp	r3, #170
 3735 0f60 0F00009A 		bls	.L66
 3736              		.loc 1 385 0 is_stmt 0 discriminator 1
 3737 0f64 B0315BE1 		ldrh	r3, [fp, #-16]
 3738 0f68 870053E3 		cmp	r3, #135
 3739 0f6c 0C00009A 		bls	.L66
 3740 0f70 BE205BE1 		ldrh	r2, [fp, #-14]
 3741 0f74 D0309FE5 		ldr	r3, .L68+64
 3742 0f78 030052E1 		cmp	r2, r3
 3743 0f7c 0800008A 		bhi	.L66
 3744 0f80 B0315BE1 		ldrh	r3, [fp, #-16]
 3745 0f84 9F0053E3 		cmp	r3, #159
 3746 0f88 0500008A 		bhi	.L66
 386:../proyecto.c **** 			{
 387:../proyecto.c **** 				x=0;
 3747              		.loc 1 387 0 is_stmt 1
 3748 0f8c 0030A0E3 		mov	r3, #0
 3749 0f90 BE304BE1 		strh	r3, [fp, #-14]	@ movhi
 388:../proyecto.c **** 				y = 0;
 3750              		.loc 1 388 0
 3751 0f94 0030A0E3 		mov	r3, #0
 3752 0f98 B0314BE1 		strh	r3, [fp, #-16]	@ movhi
 389:../proyecto.c **** 				modoCambiarHora();
 3753              		.loc 1 389 0
 3754 0f9c FEFFFFEB 		bl	modoCambiarHora
 3755 0fa0 110000EA 		b	.L56
 3756              	.L66:
 390:../proyecto.c **** 			}
 391:../proyecto.c **** 		else if( x>170 && y>165 && x<290 && y<190 )
 3757              		.loc 1 391 0
 3758 0fa4 BE305BE1 		ldrh	r3, [fp, #-14]
 3759 0fa8 AA0053E3 		cmp	r3, #170
 3760 0fac 0E00009A 		bls	.L56
 3761              		.loc 1 391 0 is_stmt 0 discriminator 1
 3762 0fb0 B0315BE1 		ldrh	r3, [fp, #-16]
 3763 0fb4 A50053E3 		cmp	r3, #165
 3764 0fb8 0B00009A 		bls	.L56
 3765 0fbc BE205BE1 		ldrh	r2, [fp, #-14]
 3766 0fc0 84309FE5 		ldr	r3, .L68+64
 3767 0fc4 030052E1 		cmp	r2, r3
 3768 0fc8 0700008A 		bhi	.L56
 3769 0fcc B0315BE1 		ldrh	r3, [fp, #-16]
 3770 0fd0 BD0053E3 		cmp	r3, #189
 3771 0fd4 0400008A 		bhi	.L56
 392:../proyecto.c **** 			{
 393:../proyecto.c **** 				x=0;
 3772              		.loc 1 393 0 is_stmt 1
 3773 0fd8 0030A0E3 		mov	r3, #0
 3774 0fdc BE304BE1 		strh	r3, [fp, #-14]	@ movhi
 394:../proyecto.c **** 				y = 0;
 3775              		.loc 1 394 0
 3776 0fe0 0030A0E3 		mov	r3, #0
 3777 0fe4 B0314BE1 		strh	r3, [fp, #-16]	@ movhi
 395:../proyecto.c **** 				modoDeporte();
 3778              		.loc 1 395 0
 3779 0fe8 FEFFFFEB 		bl	modoDeporte
 3780              	.L56:
 288:../proyecto.c **** 	while(!flagPbs){
 3781              		.loc 1 288 0 discriminator 1
 3782 0fec 1C309FE5 		ldr	r3, .L68+4
 3783 0ff0 0030D3E5 		ldrb	r3, [r3, #0]
 3784 0ff4 FF3003E2 		and	r3, r3, #255
 3785 0ff8 000053E3 		cmp	r3, #0
 3786 0ffc E0FEFF0A 		beq	.L67
 396:../proyecto.c **** 			}
 397:../proyecto.c **** 
 398:../proyecto.c **** 
 399:../proyecto.c **** 	};//Fin while menuPrincipal
 400:../proyecto.c **** 
 401:../proyecto.c **** }
 3787              		.loc 1 401 0
 3788 1000 0CD04BE2 		sub	sp, fp, #12
 3789 1004 00689DE8 		ldmfd	sp, {fp, sp, lr}
 3790 1008 1EFF2FE1 		bx	lr
 3791              	.L69:
 3792              		.align	2
 3793              	.L68:
 3794 100c 00000000 		.word	rtc_time
 3795 1010 00000000 		.word	flagPbs
 3796 1014 00000000 		.word	newBeat
 3797 1018 01000000 		.word	newStep
 3798 101c 00000000 		.word	pintarMenuPrincipal
 3799 1020 36010000 		.word	310
 3800 1024 8C000000 		.word	.LC22
 3801 1028 98000000 		.word	.LC23
 3802 102c 22010000 		.word	290
 3803 1030 A8000000 		.word	.LC24
 3804 1034 B8000000 		.word	.LC25
 3805 1038 C8000000 		.word	.LC26
 3806 103c 00000000 		.word	pasosPorMin
 3807 1040 0E010000 		.word	270
 3808 1044 D4000000 		.word	.LC27
 3809 1048 00000000 		.word	latidosPorMin
 3810 104c 21010000 		.word	289
 3811              		.cfi_endproc
 3812              	.LFE7:
 3814              		.align	2
 3815              		.global	mostrarRelojAux
 3817              	mostrarRelojAux:
 3818              	.LFB8:
 402:../proyecto.c **** void mostrarRelojAux(rtc_time_t *rtc_aux){
 3819              		.loc 1 402 0
 3820              		.cfi_startproc
 3821              		@ Function supports interworking.
 3822              		@ args = 0, pretend = 0, frame = 8
 3823              		@ frame_needed = 1, uses_anonymous_args = 0
 3824 1050 0DC0A0E1 		mov	ip, sp
 3825              	.LCFI16:
 3826              		.cfi_def_cfa_register 12
 3827 1054 00D82DE9 		stmfd	sp!, {fp, ip, lr, pc}
 3828 1058 04B04CE2 		sub	fp, ip, #4
 3829              		.cfi_offset 14, -8
 3830              		.cfi_offset 13, -12
 3831              		.cfi_offset 11, -16
 3832              	.LCFI17:
 3833              		.cfi_def_cfa 11, 4
 3834 105c 08D04DE2 		sub	sp, sp, #8
 3835 1060 10000BE5 		str	r0, [fp, #-16]
 403:../proyecto.c **** 
 404:../proyecto.c **** 	lcd_putint_x2(100, 70, BLACK, (int32) rtc_aux->hour );
 3836              		.loc 1 404 0
 3837 1064 10301BE5 		ldr	r3, [fp, #-16]
 3838 1068 0230D3E5 		ldrb	r3, [r3, #2]	@ zero_extendqisi2
 3839 106c 6400A0E3 		mov	r0, #100
 3840 1070 4610A0E3 		mov	r1, #70
 3841 1074 0F20A0E3 		mov	r2, #15
 3842 1078 FEFFFFEB 		bl	lcd_putint_x2
 405:../proyecto.c **** 	if(rtc_aux->hour < 10){ //Para poner un 0 en el lcd y no sea solo un digito
 3843              		.loc 1 405 0
 3844 107c 10301BE5 		ldr	r3, [fp, #-16]
 3845 1080 0230D3E5 		ldrb	r3, [r3, #2]	@ zero_extendqisi2
 3846 1084 090053E3 		cmp	r3, #9
 3847 1088 0A00008A 		bhi	.L71
 406:../proyecto.c **** 		lcd_putint_x2(100, 70, BLACK, (int32) 0 );
 3848              		.loc 1 406 0
 3849 108c 6400A0E3 		mov	r0, #100
 3850 1090 4610A0E3 		mov	r1, #70
 3851 1094 0F20A0E3 		mov	r2, #15
 3852 1098 0030A0E3 		mov	r3, #0
 3853 109c FEFFFFEB 		bl	lcd_putint_x2
 407:../proyecto.c **** 		lcd_putint_x2(116, 70, BLACK, (int32) rtc_aux->hour );
 3854              		.loc 1 407 0
 3855 10a0 10301BE5 		ldr	r3, [fp, #-16]
 3856 10a4 0230D3E5 		ldrb	r3, [r3, #2]	@ zero_extendqisi2
 3857 10a8 7400A0E3 		mov	r0, #116
 3858 10ac 4610A0E3 		mov	r1, #70
 3859 10b0 0F20A0E3 		mov	r2, #15
 3860 10b4 FEFFFFEB 		bl	lcd_putint_x2
 3861              	.L71:
 408:../proyecto.c **** 	}
 409:../proyecto.c **** 
 410:../proyecto.c **** 	lcd_putchar_x2(132, 70, BLACK, ':' );
 3862              		.loc 1 410 0
 3863 10b8 8400A0E3 		mov	r0, #132
 3864 10bc 4610A0E3 		mov	r1, #70
 3865 10c0 0F20A0E3 		mov	r2, #15
 3866 10c4 3A30A0E3 		mov	r3, #58
 3867 10c8 FEFFFFEB 		bl	lcd_putchar_x2
 411:../proyecto.c **** 	lcd_putint_x2(148, 70, BLACK, (int32) rtc_aux->min );
 3868              		.loc 1 411 0
 3869 10cc 10301BE5 		ldr	r3, [fp, #-16]
 3870 10d0 0130D3E5 		ldrb	r3, [r3, #1]	@ zero_extendqisi2
 3871 10d4 9400A0E3 		mov	r0, #148
 3872 10d8 4610A0E3 		mov	r1, #70
 3873 10dc 0F20A0E3 		mov	r2, #15
 3874 10e0 FEFFFFEB 		bl	lcd_putint_x2
 412:../proyecto.c **** 	if(rtc_aux->min < 10){ //Para poner un 0 en el lcd y no sea solo un digito
 3875              		.loc 1 412 0
 3876 10e4 10301BE5 		ldr	r3, [fp, #-16]
 3877 10e8 0130D3E5 		ldrb	r3, [r3, #1]	@ zero_extendqisi2
 3878 10ec 090053E3 		cmp	r3, #9
 3879 10f0 0A00008A 		bhi	.L72
 413:../proyecto.c **** 		lcd_putint_x2(148, 70, BLACK, (int32) 0);
 3880              		.loc 1 413 0
 3881 10f4 9400A0E3 		mov	r0, #148
 3882 10f8 4610A0E3 		mov	r1, #70
 3883 10fc 0F20A0E3 		mov	r2, #15
 3884 1100 0030A0E3 		mov	r3, #0
 3885 1104 FEFFFFEB 		bl	lcd_putint_x2
 414:../proyecto.c **** 		lcd_putint_x2(164, 70, BLACK, (int32)  rtc_aux->min );
 3886              		.loc 1 414 0
 3887 1108 10301BE5 		ldr	r3, [fp, #-16]
 3888 110c 0130D3E5 		ldrb	r3, [r3, #1]	@ zero_extendqisi2
 3889 1110 A400A0E3 		mov	r0, #164
 3890 1114 4610A0E3 		mov	r1, #70
 3891 1118 0F20A0E3 		mov	r2, #15
 3892 111c FEFFFFEB 		bl	lcd_putint_x2
 3893              	.L72:
 415:../proyecto.c **** 	}
 416:../proyecto.c **** 
 417:../proyecto.c **** 	lcd_putchar_x2(180, 70, BLACK, ':' );
 3894              		.loc 1 417 0
 3895 1120 B400A0E3 		mov	r0, #180
 3896 1124 4610A0E3 		mov	r1, #70
 3897 1128 0F20A0E3 		mov	r2, #15
 3898 112c 3A30A0E3 		mov	r3, #58
 3899 1130 FEFFFFEB 		bl	lcd_putchar_x2
 418:../proyecto.c **** 	lcd_putint_x2(196, 70, BLACK, (int32) rtc_aux->sec );
 3900              		.loc 1 418 0
 3901 1134 10301BE5 		ldr	r3, [fp, #-16]
 3902 1138 0030D3E5 		ldrb	r3, [r3, #0]	@ zero_extendqisi2
 3903 113c C400A0E3 		mov	r0, #196
 3904 1140 4610A0E3 		mov	r1, #70
 3905 1144 0F20A0E3 		mov	r2, #15
 3906 1148 FEFFFFEB 		bl	lcd_putint_x2
 419:../proyecto.c **** 	if(rtc_aux->sec < 10){ //Para poner un 0 en el lcd y no sea solo un digito
 3907              		.loc 1 419 0
 3908 114c 10301BE5 		ldr	r3, [fp, #-16]
 3909 1150 0030D3E5 		ldrb	r3, [r3, #0]	@ zero_extendqisi2
 3910 1154 090053E3 		cmp	r3, #9
 3911 1158 0A00008A 		bhi	.L70
 420:../proyecto.c **** 		lcd_putint_x2(196, 70, BLACK, (int32) 0 );
 3912              		.loc 1 420 0
 3913 115c C400A0E3 		mov	r0, #196
 3914 1160 4610A0E3 		mov	r1, #70
 3915 1164 0F20A0E3 		mov	r2, #15
 3916 1168 0030A0E3 		mov	r3, #0
 3917 116c FEFFFFEB 		bl	lcd_putint_x2
 421:../proyecto.c **** 		lcd_putint_x2(212, 70, BLACK, (int32) rtc_aux->sec );
 3918              		.loc 1 421 0
 3919 1170 10301BE5 		ldr	r3, [fp, #-16]
 3920 1174 0030D3E5 		ldrb	r3, [r3, #0]	@ zero_extendqisi2
 3921 1178 D400A0E3 		mov	r0, #212
 3922 117c 4610A0E3 		mov	r1, #70
 3923 1180 0F20A0E3 		mov	r2, #15
 3924 1184 FEFFFFEB 		bl	lcd_putint_x2
 3925              	.L70:
 422:../proyecto.c **** 	}
 423:../proyecto.c **** }
 3926              		.loc 1 423 0
 3927 1188 0CD04BE2 		sub	sp, fp, #12
 3928 118c 00689DE8 		ldmfd	sp, {fp, sp, lr}
 3929 1190 1EFF2FE1 		bx	lr
 3930              		.cfi_endproc
 3931              	.LFE8:
 3933              		.align	2
 3934              		.global	mostrarFecha
 3936              	mostrarFecha:
 3937              	.LFB9:
 424:../proyecto.c **** void mostrarFecha(rtc_time_t *rtc_aux){
 3938              		.loc 1 424 0
 3939              		.cfi_startproc
 3940              		@ Function supports interworking.
 3941              		@ args = 0, pretend = 0, frame = 8
 3942              		@ frame_needed = 1, uses_anonymous_args = 0
 3943 1194 0DC0A0E1 		mov	ip, sp
 3944              	.LCFI18:
 3945              		.cfi_def_cfa_register 12
 3946 1198 00D82DE9 		stmfd	sp!, {fp, ip, lr, pc}
 3947 119c 04B04CE2 		sub	fp, ip, #4
 3948              		.cfi_offset 14, -8
 3949              		.cfi_offset 13, -12
 3950              		.cfi_offset 11, -16
 3951              	.LCFI19:
 3952              		.cfi_def_cfa 11, 4
 3953 11a0 08D04DE2 		sub	sp, sp, #8
 3954 11a4 10000BE5 		str	r0, [fp, #-16]
 425:../proyecto.c **** 
 426:../proyecto.c **** 	lcd_putint_x2(100, 70, BLACK, (int32) rtc_aux->mday );
 3955              		.loc 1 426 0
 3956 11a8 10301BE5 		ldr	r3, [fp, #-16]
 3957 11ac 0330D3E5 		ldrb	r3, [r3, #3]	@ zero_extendqisi2
 3958 11b0 6400A0E3 		mov	r0, #100
 3959 11b4 4610A0E3 		mov	r1, #70
 3960 11b8 0F20A0E3 		mov	r2, #15
 3961 11bc FEFFFFEB 		bl	lcd_putint_x2
 427:../proyecto.c **** 	if(rtc_aux->mday < 10){ //Para poner un 0 en el lcd y no sea solo un digito
 3962              		.loc 1 427 0
 3963 11c0 10301BE5 		ldr	r3, [fp, #-16]
 3964 11c4 0330D3E5 		ldrb	r3, [r3, #3]	@ zero_extendqisi2
 3965 11c8 090053E3 		cmp	r3, #9
 3966 11cc 0A00008A 		bhi	.L75
 428:../proyecto.c **** 		lcd_putint_x2(100, 70, BLACK, (int32) 0 );
 3967              		.loc 1 428 0
 3968 11d0 6400A0E3 		mov	r0, #100
 3969 11d4 4610A0E3 		mov	r1, #70
 3970 11d8 0F20A0E3 		mov	r2, #15
 3971 11dc 0030A0E3 		mov	r3, #0
 3972 11e0 FEFFFFEB 		bl	lcd_putint_x2
 429:../proyecto.c **** 		lcd_putint_x2(116, 70, BLACK, (int32) rtc_aux->mday );
 3973              		.loc 1 429 0
 3974 11e4 10301BE5 		ldr	r3, [fp, #-16]
 3975 11e8 0330D3E5 		ldrb	r3, [r3, #3]	@ zero_extendqisi2
 3976 11ec 7400A0E3 		mov	r0, #116
 3977 11f0 4610A0E3 		mov	r1, #70
 3978 11f4 0F20A0E3 		mov	r2, #15
 3979 11f8 FEFFFFEB 		bl	lcd_putint_x2
 3980              	.L75:
 430:../proyecto.c **** 	}
 431:../proyecto.c **** 
 432:../proyecto.c **** 	lcd_putchar_x2(132, 70, BLACK, '/' );
 3981              		.loc 1 432 0
 3982 11fc 8400A0E3 		mov	r0, #132
 3983 1200 4610A0E3 		mov	r1, #70
 3984 1204 0F20A0E3 		mov	r2, #15
 3985 1208 2F30A0E3 		mov	r3, #47
 3986 120c FEFFFFEB 		bl	lcd_putchar_x2
 433:../proyecto.c **** 	lcd_putint_x2(148, 70, BLACK, (int32) rtc_aux->mon );
 3987              		.loc 1 433 0
 3988 1210 10301BE5 		ldr	r3, [fp, #-16]
 3989 1214 0530D3E5 		ldrb	r3, [r3, #5]	@ zero_extendqisi2
 3990 1218 9400A0E3 		mov	r0, #148
 3991 121c 4610A0E3 		mov	r1, #70
 3992 1220 0F20A0E3 		mov	r2, #15
 3993 1224 FEFFFFEB 		bl	lcd_putint_x2
 434:../proyecto.c **** 	if(rtc_aux->mon < 10){ //Para poner un 0 en el lcd y no sea solo un digito
 3994              		.loc 1 434 0
 3995 1228 10301BE5 		ldr	r3, [fp, #-16]
 3996 122c 0530D3E5 		ldrb	r3, [r3, #5]	@ zero_extendqisi2
 3997 1230 090053E3 		cmp	r3, #9
 3998 1234 0A00008A 		bhi	.L76
 435:../proyecto.c **** 		lcd_putint_x2(148, 70, BLACK, (int32) 0);
 3999              		.loc 1 435 0
 4000 1238 9400A0E3 		mov	r0, #148
 4001 123c 4610A0E3 		mov	r1, #70
 4002 1240 0F20A0E3 		mov	r2, #15
 4003 1244 0030A0E3 		mov	r3, #0
 4004 1248 FEFFFFEB 		bl	lcd_putint_x2
 436:../proyecto.c **** 		lcd_putint_x2(164, 70, BLACK, (int32)  rtc_aux->mon );
 4005              		.loc 1 436 0
 4006 124c 10301BE5 		ldr	r3, [fp, #-16]
 4007 1250 0530D3E5 		ldrb	r3, [r3, #5]	@ zero_extendqisi2
 4008 1254 A400A0E3 		mov	r0, #164
 4009 1258 4610A0E3 		mov	r1, #70
 4010 125c 0F20A0E3 		mov	r2, #15
 4011 1260 FEFFFFEB 		bl	lcd_putint_x2
 4012              	.L76:
 437:../proyecto.c **** 	}
 438:../proyecto.c **** 
 439:../proyecto.c **** 	lcd_putchar_x2(180, 70, BLACK, '/' );
 4013              		.loc 1 439 0
 4014 1264 B400A0E3 		mov	r0, #180
 4015 1268 4610A0E3 		mov	r1, #70
 4016 126c 0F20A0E3 		mov	r2, #15
 4017 1270 2F30A0E3 		mov	r3, #47
 4018 1274 FEFFFFEB 		bl	lcd_putchar_x2
 440:../proyecto.c **** 	lcd_putint_x2(196, 70, BLACK, (int32) rtc_aux->year );
 4019              		.loc 1 440 0
 4020 1278 10301BE5 		ldr	r3, [fp, #-16]
 4021 127c 0630D3E5 		ldrb	r3, [r3, #6]	@ zero_extendqisi2
 4022 1280 C400A0E3 		mov	r0, #196
 4023 1284 4610A0E3 		mov	r1, #70
 4024 1288 0F20A0E3 		mov	r2, #15
 4025 128c FEFFFFEB 		bl	lcd_putint_x2
 441:../proyecto.c **** 	if(rtc_aux->year < 10){ //Para poner un 0 en el lcd y no sea solo un digito
 4026              		.loc 1 441 0
 4027 1290 10301BE5 		ldr	r3, [fp, #-16]
 4028 1294 0630D3E5 		ldrb	r3, [r3, #6]	@ zero_extendqisi2
 4029 1298 090053E3 		cmp	r3, #9
 4030 129c 0A00008A 		bhi	.L74
 442:../proyecto.c **** 		lcd_putint_x2(196, 70, BLACK, (int32) 0 );
 4031              		.loc 1 442 0
 4032 12a0 C400A0E3 		mov	r0, #196
 4033 12a4 4610A0E3 		mov	r1, #70
 4034 12a8 0F20A0E3 		mov	r2, #15
 4035 12ac 0030A0E3 		mov	r3, #0
 4036 12b0 FEFFFFEB 		bl	lcd_putint_x2
 443:../proyecto.c **** 		lcd_putint_x2(212, 70, BLACK, (int32) rtc_aux->year );
 4037              		.loc 1 443 0
 4038 12b4 10301BE5 		ldr	r3, [fp, #-16]
 4039 12b8 0630D3E5 		ldrb	r3, [r3, #6]	@ zero_extendqisi2
 4040 12bc D400A0E3 		mov	r0, #212
 4041 12c0 4610A0E3 		mov	r1, #70
 4042 12c4 0F20A0E3 		mov	r2, #15
 4043 12c8 FEFFFFEB 		bl	lcd_putint_x2
 4044              	.L74:
 444:../proyecto.c **** 	}
 445:../proyecto.c **** }
 4045              		.loc 1 445 0
 4046 12cc 0CD04BE2 		sub	sp, fp, #12
 4047 12d0 00689DE8 		ldmfd	sp, {fp, sp, lr}
 4048 12d4 1EFF2FE1 		bx	lr
 4049              		.cfi_endproc
 4050              	.LFE9:
 4052              		.section	.rodata
 4053 00e1 000000   		.align	2
 4054              	.LC28:
 4055 00e4 4D656E75 		.ascii	"Menu principal\000"
 4055      20707269 
 4055      6E636970 
 4055      616C00
 4056 00f3 00       		.align	2
 4057              	.LC29:
 4058 00f4 496E6963 		.ascii	"Iniciar crono\000"
 4058      69617220 
 4058      63726F6E 
 4058      6F00
 4059 0102 0000     		.align	2
 4060              	.LC30:
 4061 0104 44657465 		.ascii	"Detener crono\000"
 4061      6E657220 
 4061      63726F6E 
 4061      6F00
 4062 0112 0000     		.align	2
 4063              	.LC31:
 4064 0114 52657365 		.ascii	"Resetear crono\000"
 4064      74656172 
 4064      2063726F 
 4064      6E6F00
 4065              		.text
 4066              		.align	2
 4067              		.global	modoCronometro
 4069              	modoCronometro:
 4070              	.LFB10:
 446:../proyecto.c **** void modoCronometro( void ){
 4071              		.loc 1 446 0
 4072              		.cfi_startproc
 4073              		@ Function supports interworking.
 4074              		@ args = 0, pretend = 0, frame = 8
 4075              		@ frame_needed = 1, uses_anonymous_args = 0
 4076 12d8 0DC0A0E1 		mov	ip, sp
 4077              	.LCFI20:
 4078              		.cfi_def_cfa_register 12
 4079 12dc 00D82DE9 		stmfd	sp!, {fp, ip, lr, pc}
 4080 12e0 04B04CE2 		sub	fp, ip, #4
 4081              		.cfi_offset 14, -8
 4082              		.cfi_offset 13, -12
 4083              		.cfi_offset 11, -16
 4084              	.LCFI21:
 4085              		.cfi_def_cfa 11, 4
 4086 12e4 10D04DE2 		sub	sp, sp, #16
 447:../proyecto.c **** 
 448:../proyecto.c **** 	boolean volverMenuPrincipal = FALSE;
 4087              		.loc 1 448 0
 4088 12e8 0030A0E3 		mov	r3, #0
 4089 12ec 0D304BE5 		strb	r3, [fp, #-13]
 449:../proyecto.c **** 	boolean pintadoInicial = TRUE;
 4090              		.loc 1 449 0
 4091 12f0 0130A0E3 		mov	r3, #1
 4092 12f4 0E304BE5 		strb	r3, [fp, #-14]
 450:../proyecto.c **** 	boolean crono_on = FALSE;
 4093              		.loc 1 450 0
 4094 12f8 0030A0E3 		mov	r3, #0
 4095 12fc 0F304BE5 		strb	r3, [fp, #-15]
 451:../proyecto.c **** 	boolean crono_reset = FALSE;
 4096              		.loc 1 451 0
 4097 1300 0030A0E3 		mov	r3, #0
 4098 1304 10304BE5 		strb	r3, [fp, #-16]
 452:../proyecto.c **** 
 453:../proyecto.c **** 
 454:../proyecto.c **** 
 455:../proyecto.c **** 	uint16 x, y;
 456:../proyecto.c **** 	//Limpiamos el menu principal
 457:../proyecto.c **** 	lcd_clear();
 4099              		.loc 1 457 0
 4100 1308 FEFFFFEB 		bl	lcd_clear
 458:../proyecto.c **** 	lcd_draw_box( 10, 10, 310, 230, BLACK, 5 );
 4101              		.loc 1 458 0
 4102 130c 0F30A0E3 		mov	r3, #15
 4103 1310 00308DE5 		str	r3, [sp, #0]
 4104 1314 0530A0E3 		mov	r3, #5
 4105 1318 04308DE5 		str	r3, [sp, #4]
 4106 131c 0A00A0E3 		mov	r0, #10
 4107 1320 0A10A0E3 		mov	r1, #10
 4108 1324 A4239FE5 		ldr	r2, .L90
 4109 1328 E630A0E3 		mov	r3, #230
 4110 132c FEFFFFEB 		bl	lcd_draw_box
 459:../proyecto.c **** 
 460:../proyecto.c **** 	while(!volverMenuPrincipal){
 4111              		.loc 1 460 0
 4112 1330 DC0000EA 		b	.L79
 4113              	.L89:
 461:../proyecto.c **** 
 462:../proyecto.c **** 		//Aqui pintamos las cosas que no se actualizan
 463:../proyecto.c **** 		if(pintadoInicial){
 4114              		.loc 1 463 0
 4115 1334 0E305BE5 		ldrb	r3, [fp, #-14]	@ zero_extendqisi2
 4116 1338 000053E3 		cmp	r3, #0
 4117 133c 3B00000A 		beq	.L80
 464:../proyecto.c **** 
 465:../proyecto.c **** 			//Mostrar opcion volver menu principal
 466:../proyecto.c **** 			lcd_draw_box(170, 12, 310, 40, BLACK, 3);
 4118              		.loc 1 466 0
 4119 1340 0F30A0E3 		mov	r3, #15
 4120 1344 00308DE5 		str	r3, [sp, #0]
 4121 1348 0330A0E3 		mov	r3, #3
 4122 134c 04308DE5 		str	r3, [sp, #4]
 4123 1350 AA00A0E3 		mov	r0, #170
 4124 1354 0C10A0E3 		mov	r1, #12
 4125 1358 70239FE5 		ldr	r2, .L90
 4126 135c 2830A0E3 		mov	r3, #40
 4127 1360 FEFFFFEB 		bl	lcd_draw_box
 467:../proyecto.c **** 			lcd_puts(180, 20, BLACK, "Menu principal");
 4128              		.loc 1 467 0
 4129 1364 B400A0E3 		mov	r0, #180
 4130 1368 1410A0E3 		mov	r1, #20
 4131 136c 0F20A0E3 		mov	r2, #15
 4132 1370 5C339FE5 		ldr	r3, .L90+4
 4133 1374 FEFFFFEB 		bl	lcd_puts
 468:../proyecto.c **** 
 469:../proyecto.c **** 			// Mostrar opcion cambiar fecha
 470:../proyecto.c **** 			lcd_draw_box(95, 165, 225, 190, BLACK, 3);
 4134              		.loc 1 470 0
 4135 1378 0F30A0E3 		mov	r3, #15
 4136 137c 00308DE5 		str	r3, [sp, #0]
 4137 1380 0330A0E3 		mov	r3, #3
 4138 1384 04308DE5 		str	r3, [sp, #4]
 4139 1388 5F00A0E3 		mov	r0, #95
 4140 138c A510A0E3 		mov	r1, #165
 4141 1390 E120A0E3 		mov	r2, #225
 4142 1394 BE30A0E3 		mov	r3, #190
 4143 1398 FEFFFFEB 		bl	lcd_draw_box
 471:../proyecto.c **** 			lcd_puts(105, 170, BLACK, "Iniciar crono");
 4144              		.loc 1 471 0
 4145 139c 6900A0E3 		mov	r0, #105
 4146 13a0 AA10A0E3 		mov	r1, #170
 4147 13a4 0F20A0E3 		mov	r2, #15
 4148 13a8 28339FE5 		ldr	r3, .L90+8
 4149 13ac FEFFFFEB 		bl	lcd_puts
 472:../proyecto.c **** 
 473:../proyecto.c **** 			// Mostrar opcion contador pasos
 474:../proyecto.c **** 			lcd_draw_box(20, 195, 150, 220, BLACK, 3);
 4150              		.loc 1 474 0
 4151 13b0 0F30A0E3 		mov	r3, #15
 4152 13b4 00308DE5 		str	r3, [sp, #0]
 4153 13b8 0330A0E3 		mov	r3, #3
 4154 13bc 04308DE5 		str	r3, [sp, #4]
 4155 13c0 1400A0E3 		mov	r0, #20
 4156 13c4 C310A0E3 		mov	r1, #195
 4157 13c8 9620A0E3 		mov	r2, #150
 4158 13cc DC30A0E3 		mov	r3, #220
 4159 13d0 FEFFFFEB 		bl	lcd_draw_box
 475:../proyecto.c **** 			lcd_puts(30, 200, BLACK, "Detener crono");
 4160              		.loc 1 475 0
 4161 13d4 1E00A0E3 		mov	r0, #30
 4162 13d8 C810A0E3 		mov	r1, #200
 4163 13dc 0F20A0E3 		mov	r2, #15
 4164 13e0 F4329FE5 		ldr	r3, .L90+12
 4165 13e4 FEFFFFEB 		bl	lcd_puts
 476:../proyecto.c **** 
 477:../proyecto.c **** 			// Mostrar opcion contador modo deporte
 478:../proyecto.c **** 			lcd_draw_box(170, 195, 300, 220, BLACK, 3);
 4166              		.loc 1 478 0
 4167 13e8 0F30A0E3 		mov	r3, #15
 4168 13ec 00308DE5 		str	r3, [sp, #0]
 4169 13f0 0330A0E3 		mov	r3, #3
 4170 13f4 04308DE5 		str	r3, [sp, #4]
 4171 13f8 AA00A0E3 		mov	r0, #170
 4172 13fc C310A0E3 		mov	r1, #195
 4173 1400 4B2FA0E3 		mov	r2, #300
 4174 1404 DC30A0E3 		mov	r3, #220
 4175 1408 FEFFFFEB 		bl	lcd_draw_box
 479:../proyecto.c **** 			lcd_puts(180, 200, BLACK, "Resetear crono");
 4176              		.loc 1 479 0
 4177 140c B400A0E3 		mov	r0, #180
 4178 1410 C810A0E3 		mov	r1, #200
 4179 1414 0F20A0E3 		mov	r2, #15
 4180 1418 C0329FE5 		ldr	r3, .L90+16
 4181 141c FEFFFFEB 		bl	lcd_puts
 480:../proyecto.c **** 
 481:../proyecto.c **** 			//Mostrar el cronometro inicial (16 pixeles el caracter en x2, 8 pixeles de normal)
 482:../proyecto.c **** 			mostrarRelojAux(&rtc_cronometro);
 4182              		.loc 1 482 0
 4183 1420 BC029FE5 		ldr	r0, .L90+20
 4184 1424 FEFFFFEB 		bl	mostrarRelojAux
 483:../proyecto.c **** 
 484:../proyecto.c **** 			pintadoInicial = FALSE;
 4185              		.loc 1 484 0
 4186 1428 0030A0E3 		mov	r3, #0
 4187 142c 0E304BE5 		strb	r3, [fp, #-14]
 4188              	.L80:
 485:../proyecto.c **** 		}
 486:../proyecto.c **** 
 487:../proyecto.c **** 
 488:../proyecto.c **** 		//Para que no se quede el programa congelado esperando que el usuario presione la pantalla
 489:../proyecto.c **** 		if(ts_pressed()){
 4189              		.loc 1 489 0
 4190 1430 FEFFFFEB 		bl	ts_pressed
 4191 1434 0030A0E1 		mov	r3, r0
 4192 1438 000053E3 		cmp	r3, #0
 4193 143c 0400000A 		beq	.L81
 490:../proyecto.c **** 			ts_getpos(&x,&y);
 4194              		.loc 1 490 0
 4195 1440 12204BE2 		sub	r2, fp, #18
 4196 1444 14304BE2 		sub	r3, fp, #20
 4197 1448 0200A0E1 		mov	r0, r2
 4198 144c 0310A0E1 		mov	r1, r3
 4199 1450 FEFFFFEB 		bl	ts_getpos
 4200              	.L81:
 491:../proyecto.c **** 		}
 492:../proyecto.c **** 
 493:../proyecto.c **** 		if( x>95 && y>165 && x<225 && y<190 )
 4201              		.loc 1 493 0
 4202 1454 B2315BE1 		ldrh	r3, [fp, #-18]
 4203 1458 5F0053E3 		cmp	r3, #95
 4204 145c 1300009A 		bls	.L82
 4205              		.loc 1 493 0 is_stmt 0 discriminator 1
 4206 1460 B4315BE1 		ldrh	r3, [fp, #-20]
 4207 1464 A50053E3 		cmp	r3, #165
 4208 1468 1000009A 		bls	.L82
 4209 146c B2315BE1 		ldrh	r3, [fp, #-18]
 4210 1470 E00053E3 		cmp	r3, #224
 4211 1474 0D00008A 		bhi	.L82
 4212 1478 B4315BE1 		ldrh	r3, [fp, #-20]
 4213 147c BD0053E3 		cmp	r3, #189
 4214 1480 0A00008A 		bhi	.L82
 494:../proyecto.c **** 			{
 495:../proyecto.c **** 				x=0;
 4215              		.loc 1 495 0 is_stmt 1
 4216 1484 0030A0E3 		mov	r3, #0
 4217 1488 B2314BE1 		strh	r3, [fp, #-18]	@ movhi
 496:../proyecto.c **** 				y = 0;
 4218              		.loc 1 496 0
 4219 148c 0030A0E3 		mov	r3, #0
 4220 1490 B4314BE1 		strh	r3, [fp, #-20]	@ movhi
 497:../proyecto.c **** 				crono_on = TRUE;
 4221              		.loc 1 497 0
 4222 1494 0130A0E3 		mov	r3, #1
 4223 1498 0F304BE5 		strb	r3, [fp, #-15]
 498:../proyecto.c **** 				timer0_open_ms( isr_timer0, 1000, TIMER_INTERVAL );
 4224              		.loc 1 498 0
 4225 149c 44029FE5 		ldr	r0, .L90+24
 4226 14a0 FA1FA0E3 		mov	r1, #1000
 4227 14a4 0120A0E3 		mov	r2, #1
 4228 14a8 FEFFFFEB 		bl	timer0_open_ms
 4229 14ac 400000EA 		b	.L83
 4230              	.L82:
 499:../proyecto.c **** 			}
 500:../proyecto.c **** 		else if( x>20 && y>195 && x<150 && y<220 )
 4231              		.loc 1 500 0
 4232 14b0 B2315BE1 		ldrh	r3, [fp, #-18]
 4233 14b4 140053E3 		cmp	r3, #20
 4234 14b8 1000009A 		bls	.L84
 4235              		.loc 1 500 0 is_stmt 0 discriminator 1
 4236 14bc B4315BE1 		ldrh	r3, [fp, #-20]
 4237 14c0 C30053E3 		cmp	r3, #195
 4238 14c4 0D00009A 		bls	.L84
 4239 14c8 B2315BE1 		ldrh	r3, [fp, #-18]
 4240 14cc 950053E3 		cmp	r3, #149
 4241 14d0 0A00008A 		bhi	.L84
 4242 14d4 B4315BE1 		ldrh	r3, [fp, #-20]
 4243 14d8 DB0053E3 		cmp	r3, #219
 4244 14dc 0700008A 		bhi	.L84
 501:../proyecto.c **** 			{
 502:../proyecto.c **** 				x=0;
 4245              		.loc 1 502 0 is_stmt 1
 4246 14e0 0030A0E3 		mov	r3, #0
 4247 14e4 B2314BE1 		strh	r3, [fp, #-18]	@ movhi
 503:../proyecto.c **** 				y = 0;
 4248              		.loc 1 503 0
 4249 14e8 0030A0E3 		mov	r3, #0
 4250 14ec B4314BE1 		strh	r3, [fp, #-20]	@ movhi
 504:../proyecto.c **** 				crono_on = FALSE;
 4251              		.loc 1 504 0
 4252 14f0 0030A0E3 		mov	r3, #0
 4253 14f4 0F304BE5 		strb	r3, [fp, #-15]
 505:../proyecto.c **** 				timer0_close();
 4254              		.loc 1 505 0
 4255 14f8 FEFFFFEB 		bl	timer0_close
 4256 14fc 2C0000EA 		b	.L83
 4257              	.L84:
 506:../proyecto.c **** 			}
 507:../proyecto.c **** 		else if( x>170 && y>195 && x<300 && y<220 )
 4258              		.loc 1 507 0
 4259 1500 B2315BE1 		ldrh	r3, [fp, #-18]
 4260 1504 AA0053E3 		cmp	r3, #170
 4261 1508 1300009A 		bls	.L85
 4262              		.loc 1 507 0 is_stmt 0 discriminator 1
 4263 150c B4315BE1 		ldrh	r3, [fp, #-20]
 4264 1510 C30053E3 		cmp	r3, #195
 4265 1514 1000009A 		bls	.L85
 4266 1518 B2215BE1 		ldrh	r2, [fp, #-18]
 4267 151c C8319FE5 		ldr	r3, .L90+28
 4268 1520 030052E1 		cmp	r2, r3
 4269 1524 0C00008A 		bhi	.L85
 4270 1528 B4315BE1 		ldrh	r3, [fp, #-20]
 4271 152c DB0053E3 		cmp	r3, #219
 4272 1530 0900008A 		bhi	.L85
 508:../proyecto.c **** 			{
 509:../proyecto.c **** 				x=0;
 4273              		.loc 1 509 0 is_stmt 1
 4274 1534 0030A0E3 		mov	r3, #0
 4275 1538 B2314BE1 		strh	r3, [fp, #-18]	@ movhi
 510:../proyecto.c **** 				y = 0;
 4276              		.loc 1 510 0
 4277 153c 0030A0E3 		mov	r3, #0
 4278 1540 B4314BE1 		strh	r3, [fp, #-20]	@ movhi
 511:../proyecto.c **** 				crono_on = FALSE;
 4279              		.loc 1 511 0
 4280 1544 0030A0E3 		mov	r3, #0
 4281 1548 0F304BE5 		strb	r3, [fp, #-15]
 512:../proyecto.c **** 				crono_reset = TRUE;
 4282              		.loc 1 512 0
 4283 154c 0130A0E3 		mov	r3, #1
 4284 1550 10304BE5 		strb	r3, [fp, #-16]
 513:../proyecto.c **** 				timer0_close();
 4285              		.loc 1 513 0
 4286 1554 FEFFFFEB 		bl	timer0_close
 4287 1558 150000EA 		b	.L83
 4288              	.L85:
 514:../proyecto.c **** 			}
 515:../proyecto.c **** 		else if( x>170 && y>12 && x<310 && y<40 )
 4289              		.loc 1 515 0
 4290 155c B2315BE1 		ldrh	r3, [fp, #-18]
 4291 1560 AA0053E3 		cmp	r3, #170
 4292 1564 1200009A 		bls	.L83
 4293              		.loc 1 515 0 is_stmt 0 discriminator 1
 4294 1568 B4315BE1 		ldrh	r3, [fp, #-20]
 4295 156c 0C0053E3 		cmp	r3, #12
 4296 1570 0F00009A 		bls	.L83
 4297 1574 B2215BE1 		ldrh	r2, [fp, #-18]
 4298 1578 70319FE5 		ldr	r3, .L90+32
 4299 157c 030052E1 		cmp	r2, r3
 4300 1580 0B00008A 		bhi	.L83
 4301 1584 B4315BE1 		ldrh	r3, [fp, #-20]
 4302 1588 270053E3 		cmp	r3, #39
 4303 158c 0800008A 		bhi	.L83
 516:../proyecto.c **** 			{
 517:../proyecto.c **** 				x=0;
 4304              		.loc 1 517 0 is_stmt 1
 4305 1590 0030A0E3 		mov	r3, #0
 4306 1594 B2314BE1 		strh	r3, [fp, #-18]	@ movhi
 518:../proyecto.c **** 				y = 0;
 4307              		.loc 1 518 0
 4308 1598 0030A0E3 		mov	r3, #0
 4309 159c B4314BE1 		strh	r3, [fp, #-20]	@ movhi
 519:../proyecto.c **** 				volverMenuPrincipal = TRUE;
 4310              		.loc 1 519 0
 4311 15a0 0130A0E3 		mov	r3, #1
 4312 15a4 0D304BE5 		strb	r3, [fp, #-13]
 520:../proyecto.c **** 				crono_on = FALSE;
 4313              		.loc 1 520 0
 4314 15a8 0030A0E3 		mov	r3, #0
 4315 15ac 0F304BE5 		strb	r3, [fp, #-15]
 521:../proyecto.c **** 				timer0_close();
 4316              		.loc 1 521 0
 4317 15b0 FEFFFFEB 		bl	timer0_close
 4318              	.L83:
 522:../proyecto.c **** 			}
 523:../proyecto.c **** 
 524:../proyecto.c **** 		if(crono_reset){
 4319              		.loc 1 524 0
 4320 15b4 10305BE5 		ldrb	r3, [fp, #-16]	@ zero_extendqisi2
 4321 15b8 000053E3 		cmp	r3, #0
 4322 15bc 0C00000A 		beq	.L86
 525:../proyecto.c **** 			rtc_cronometro.sec = 0;
 4323              		.loc 1 525 0
 4324 15c0 1C319FE5 		ldr	r3, .L90+20
 4325 15c4 0020A0E3 		mov	r2, #0
 4326 15c8 0020C3E5 		strb	r2, [r3, #0]
 526:../proyecto.c **** 			rtc_cronometro.min = 0;
 4327              		.loc 1 526 0
 4328 15cc 10319FE5 		ldr	r3, .L90+20
 4329 15d0 0020A0E3 		mov	r2, #0
 4330 15d4 0120C3E5 		strb	r2, [r3, #1]
 527:../proyecto.c **** 			rtc_cronometro.hour= 0;
 4331              		.loc 1 527 0
 4332 15d8 04319FE5 		ldr	r3, .L90+20
 4333 15dc 0020A0E3 		mov	r2, #0
 4334 15e0 0220C3E5 		strb	r2, [r3, #2]
 528:../proyecto.c **** 			mostrarRelojAux(&rtc_cronometro);
 4335              		.loc 1 528 0
 4336 15e4 F8009FE5 		ldr	r0, .L90+20
 4337 15e8 FEFFFFEB 		bl	mostrarRelojAux
 529:../proyecto.c **** 			crono_reset = FALSE;
 4338              		.loc 1 529 0
 4339 15ec 0030A0E3 		mov	r3, #0
 4340 15f0 10304BE5 		strb	r3, [fp, #-16]
 4341              	.L86:
 530:../proyecto.c **** 		}
 531:../proyecto.c **** 		//Mostrar y actualizar el cronometro
 532:../proyecto.c **** 		if( crono_on && flagTimer0)
 4342              		.loc 1 532 0
 4343 15f4 0F305BE5 		ldrb	r3, [fp, #-15]	@ zero_extendqisi2
 4344 15f8 000053E3 		cmp	r3, #0
 4345 15fc 2900000A 		beq	.L79
 4346              		.loc 1 532 0 is_stmt 0 discriminator 1
 4347 1600 EC309FE5 		ldr	r3, .L90+36
 4348 1604 0030D3E5 		ldrb	r3, [r3, #0]
 4349 1608 FF3003E2 		and	r3, r3, #255
 4350 160c 000053E3 		cmp	r3, #0
 4351 1610 2400000A 		beq	.L79
 533:../proyecto.c **** 		{
 534:../proyecto.c **** 			//Usar timer0
 535:../proyecto.c **** 			flagTimer0 = FALSE;
 4352              		.loc 1 535 0 is_stmt 1
 4353 1614 D8309FE5 		ldr	r3, .L90+36
 4354 1618 0020A0E3 		mov	r2, #0
 4355 161c 0020C3E5 		strb	r2, [r3, #0]
 536:../proyecto.c **** 
 537:../proyecto.c **** 			rtc_cronometro.sec++;
 4356              		.loc 1 537 0
 4357 1620 BC309FE5 		ldr	r3, .L90+20
 4358 1624 0030D3E5 		ldrb	r3, [r3, #0]	@ zero_extendqisi2
 4359 1628 013083E2 		add	r3, r3, #1
 4360 162c FF2003E2 		and	r2, r3, #255
 4361 1630 AC309FE5 		ldr	r3, .L90+20
 4362 1634 0020C3E5 		strb	r2, [r3, #0]
 538:../proyecto.c **** 
 539:../proyecto.c **** 			if(rtc_cronometro.sec >59){
 4363              		.loc 1 539 0
 4364 1638 A4309FE5 		ldr	r3, .L90+20
 4365 163c 0030D3E5 		ldrb	r3, [r3, #0]	@ zero_extendqisi2
 4366 1640 3B0053E3 		cmp	r3, #59
 4367 1644 0800009A 		bls	.L87
 540:../proyecto.c **** 				rtc_cronometro.sec = 0;
 4368              		.loc 1 540 0
 4369 1648 94309FE5 		ldr	r3, .L90+20
 4370 164c 0020A0E3 		mov	r2, #0
 4371 1650 0020C3E5 		strb	r2, [r3, #0]
 541:../proyecto.c **** 				 rtc_cronometro.min++;
 4372              		.loc 1 541 0
 4373 1654 88309FE5 		ldr	r3, .L90+20
 4374 1658 0130D3E5 		ldrb	r3, [r3, #1]	@ zero_extendqisi2
 4375 165c 013083E2 		add	r3, r3, #1
 4376 1660 FF2003E2 		and	r2, r3, #255
 4377 1664 78309FE5 		ldr	r3, .L90+20
 4378 1668 0120C3E5 		strb	r2, [r3, #1]
 4379              	.L87:
 542:../proyecto.c **** 			}
 543:../proyecto.c **** 			if(rtc_cronometro.min >59){
 4380              		.loc 1 543 0
 4381 166c 70309FE5 		ldr	r3, .L90+20
 4382 1670 0130D3E5 		ldrb	r3, [r3, #1]	@ zero_extendqisi2
 4383 1674 3B0053E3 		cmp	r3, #59
 4384 1678 0800009A 		bls	.L88
 544:../proyecto.c **** 				rtc_cronometro.min = 0;
 4385              		.loc 1 544 0
 4386 167c 60309FE5 		ldr	r3, .L90+20
 4387 1680 0020A0E3 		mov	r2, #0
 4388 1684 0120C3E5 		strb	r2, [r3, #1]
 545:../proyecto.c **** 				 rtc_cronometro.hour++;
 4389              		.loc 1 545 0
 4390 1688 54309FE5 		ldr	r3, .L90+20
 4391 168c 0230D3E5 		ldrb	r3, [r3, #2]	@ zero_extendqisi2
 4392 1690 013083E2 		add	r3, r3, #1
 4393 1694 FF2003E2 		and	r2, r3, #255
 4394 1698 44309FE5 		ldr	r3, .L90+20
 4395 169c 0220C3E5 		strb	r2, [r3, #2]
 4396              	.L88:
 546:../proyecto.c **** 			}
 547:../proyecto.c **** 
 548:../proyecto.c **** 			//Mostrar el cronometro inicial (16 pixeles el caracter en x2, 8 pixeles de normal)
 549:../proyecto.c **** 			mostrarRelojAux(&rtc_cronometro);
 4397              		.loc 1 549 0
 4398 16a0 3C009FE5 		ldr	r0, .L90+20
 4399 16a4 FEFFFFEB 		bl	mostrarRelojAux
 4400              	.L79:
 460:../proyecto.c **** 	while(!volverMenuPrincipal){
 4401              		.loc 1 460 0 discriminator 1
 4402 16a8 0D305BE5 		ldrb	r3, [fp, #-13]	@ zero_extendqisi2
 4403 16ac 000053E3 		cmp	r3, #0
 4404 16b0 1FFFFF0A 		beq	.L89
 550:../proyecto.c **** 		};
 551:../proyecto.c **** 	}
 552:../proyecto.c **** 	pintarMenuPrincipal = TRUE;
 4405              		.loc 1 552 0
 4406 16b4 3C309FE5 		ldr	r3, .L90+40
 4407 16b8 0120A0E3 		mov	r2, #1
 4408 16bc 0020C3E5 		strb	r2, [r3, #0]
 553:../proyecto.c **** 	lcd_clear();
 4409              		.loc 1 553 0
 4410 16c0 FEFFFFEB 		bl	lcd_clear
 554:../proyecto.c **** 
 555:../proyecto.c **** }
 4411              		.loc 1 555 0
 4412 16c4 0CD04BE2 		sub	sp, fp, #12
 4413 16c8 00689DE8 		ldmfd	sp, {fp, sp, lr}
 4414 16cc 1EFF2FE1 		bx	lr
 4415              	.L91:
 4416              		.align	2
 4417              	.L90:
 4418 16d0 36010000 		.word	310
 4419 16d4 E4000000 		.word	.LC28
 4420 16d8 F4000000 		.word	.LC29
 4421 16dc 04010000 		.word	.LC30
 4422 16e0 14010000 		.word	.LC31
 4423 16e4 00000000 		.word	rtc_cronometro
 4424 16e8 00000000 		.word	isr_timer0
 4425 16ec 2B010000 		.word	299
 4426 16f0 35010000 		.word	309
 4427 16f4 00000000 		.word	flagTimer0
 4428 16f8 00000000 		.word	pintarMenuPrincipal
 4429              		.cfi_endproc
 4430              	.LFE10:
 4432              		.align	2
 4433              		.global	operacionCambioHora
 4435              	operacionCambioHora:
 4436              	.LFB11:
 556:../proyecto.c **** 
 557:../proyecto.c **** 
 558:../proyecto.c **** /*--------------------Funciones para el cambio de fecha y hora--------------------*/
 559:../proyecto.c **** 
 560:../proyecto.c **** //----Funciones auxiliares de los modos cambio fecha y hora----//
 561:../proyecto.c **** void operacionCambioHora(uint8 modo, uint8 seleccionado){
 4437              		.loc 1 561 0
 4438              		.cfi_startproc
 4439              		@ Function supports interworking.
 4440              		@ args = 0, pretend = 0, frame = 8
 4441              		@ frame_needed = 1, uses_anonymous_args = 0
 4442 16fc 0DC0A0E1 		mov	ip, sp
 4443              	.LCFI22:
 4444              		.cfi_def_cfa_register 12
 4445 1700 00D82DE9 		stmfd	sp!, {fp, ip, lr, pc}
 4446 1704 04B04CE2 		sub	fp, ip, #4
 4447              		.cfi_offset 14, -8
 4448              		.cfi_offset 13, -12
 4449              		.cfi_offset 11, -16
 4450              	.LCFI23:
 4451              		.cfi_def_cfa 11, 4
 4452 1708 08D04DE2 		sub	sp, sp, #8
 4453 170c 0020A0E1 		mov	r2, r0
 4454 1710 0130A0E1 		mov	r3, r1
 4455 1714 0D204BE5 		strb	r2, [fp, #-13]
 4456 1718 0E304BE5 		strb	r3, [fp, #-14]
 562:../proyecto.c **** 	//seleccionado valores (1-3) siendo 1 hora, 2 minutos, 3 segundos
 563:../proyecto.c **** 	//modo (1-2) siendo 1 la suma y 2 la resta
 564:../proyecto.c **** 
 565:../proyecto.c **** 	if(seleccionado ==1){//Cambio segundos
 4457              		.loc 1 565 0
 4458 171c 0E305BE5 		ldrb	r3, [fp, #-14]	@ zero_extendqisi2
 4459 1720 010053E3 		cmp	r3, #1
 4460 1724 2100001A 		bne	.L93
 566:../proyecto.c **** 			if(modo ==1){
 4461              		.loc 1 566 0
 4462 1728 0D305BE5 		ldrb	r3, [fp, #-13]	@ zero_extendqisi2
 4463 172c 010053E3 		cmp	r3, #1
 4464 1730 0D00001A 		bne	.L94
 567:../proyecto.c **** 				rtc_time_aux.hour++;
 4465              		.loc 1 567 0
 4466 1734 A4319FE5 		ldr	r3, .L102
 4467 1738 0230D3E5 		ldrb	r3, [r3, #2]	@ zero_extendqisi2
 4468 173c 013083E2 		add	r3, r3, #1
 4469 1740 FF2003E2 		and	r2, r3, #255
 4470 1744 94319FE5 		ldr	r3, .L102
 4471 1748 0220C3E5 		strb	r2, [r3, #2]
 568:../proyecto.c **** 				if(rtc_time_aux.hour > 24){
 4472              		.loc 1 568 0
 4473 174c 8C319FE5 		ldr	r3, .L102
 4474 1750 0230D3E5 		ldrb	r3, [r3, #2]	@ zero_extendqisi2
 4475 1754 180053E3 		cmp	r3, #24
 4476 1758 5D00009A 		bls	.L92
 569:../proyecto.c **** 					rtc_time_aux.hour = 0;
 4477              		.loc 1 569 0
 4478 175c 7C319FE5 		ldr	r3, .L102
 4479 1760 0020A0E3 		mov	r2, #0
 4480 1764 0220C3E5 		strb	r2, [r3, #2]
 4481 1768 590000EA 		b	.L92
 4482              	.L94:
 570:../proyecto.c **** 				}
 571:../proyecto.c **** 			}else{
 572:../proyecto.c **** 				modo=2; //Por si acaso entra sin pillar bien el valor de modo asi por defecto resta
 4483              		.loc 1 572 0
 4484 176c 0230A0E3 		mov	r3, #2
 4485 1770 0D304BE5 		strb	r3, [fp, #-13]
 573:../proyecto.c **** 				if(rtc_time_aux.hour !=0){
 4486              		.loc 1 573 0
 4487 1774 64319FE5 		ldr	r3, .L102
 4488 1778 0230D3E5 		ldrb	r3, [r3, #2]	@ zero_extendqisi2
 4489 177c 000053E3 		cmp	r3, #0
 4490 1780 0600000A 		beq	.L96
 574:../proyecto.c **** 					rtc_time_aux.hour--;
 4491              		.loc 1 574 0
 4492 1784 54319FE5 		ldr	r3, .L102
 4493 1788 0230D3E5 		ldrb	r3, [r3, #2]	@ zero_extendqisi2
 4494 178c 013043E2 		sub	r3, r3, #1
 4495 1790 FF2003E2 		and	r2, r3, #255
 4496 1794 44319FE5 		ldr	r3, .L102
 4497 1798 0220C3E5 		strb	r2, [r3, #2]
 4498 179c 4C0000EA 		b	.L92
 4499              	.L96:
 575:../proyecto.c **** 				}else{
 576:../proyecto.c **** 					rtc_time_aux.hour =24;
 4500              		.loc 1 576 0
 4501 17a0 38319FE5 		ldr	r3, .L102
 4502 17a4 1820A0E3 		mov	r2, #24
 4503 17a8 0220C3E5 		strb	r2, [r3, #2]
 4504 17ac 480000EA 		b	.L92
 4505              	.L93:
 577:../proyecto.c **** 				}
 578:../proyecto.c **** 			}
 579:../proyecto.c **** 	}else if(seleccionado == 2){
 4506              		.loc 1 579 0
 4507 17b0 0E305BE5 		ldrb	r3, [fp, #-14]	@ zero_extendqisi2
 4508 17b4 020053E3 		cmp	r3, #2
 4509 17b8 2100001A 		bne	.L97
 580:../proyecto.c **** 		if(modo ==1){
 4510              		.loc 1 580 0
 4511 17bc 0D305BE5 		ldrb	r3, [fp, #-13]	@ zero_extendqisi2
 4512 17c0 010053E3 		cmp	r3, #1
 4513 17c4 0D00001A 		bne	.L98
 581:../proyecto.c **** 			rtc_time_aux.min++;
 4514              		.loc 1 581 0
 4515 17c8 10319FE5 		ldr	r3, .L102
 4516 17cc 0130D3E5 		ldrb	r3, [r3, #1]	@ zero_extendqisi2
 4517 17d0 013083E2 		add	r3, r3, #1
 4518 17d4 FF2003E2 		and	r2, r3, #255
 4519 17d8 00319FE5 		ldr	r3, .L102
 4520 17dc 0120C3E5 		strb	r2, [r3, #1]
 582:../proyecto.c **** 			if(rtc_time_aux.min > 59){
 4521              		.loc 1 582 0
 4522 17e0 F8309FE5 		ldr	r3, .L102
 4523 17e4 0130D3E5 		ldrb	r3, [r3, #1]	@ zero_extendqisi2
 4524 17e8 3B0053E3 		cmp	r3, #59
 4525 17ec 3800009A 		bls	.L92
 583:../proyecto.c **** 				rtc_time_aux.min=0;
 4526              		.loc 1 583 0
 4527 17f0 E8309FE5 		ldr	r3, .L102
 4528 17f4 0020A0E3 		mov	r2, #0
 4529 17f8 0120C3E5 		strb	r2, [r3, #1]
 4530 17fc 340000EA 		b	.L92
 4531              	.L98:
 584:../proyecto.c **** 			}
 585:../proyecto.c **** 		}else{
 586:../proyecto.c **** 			modo=2; //Por si acaso entra sin pillar bien el valor de modo asi por defecto resta
 4532              		.loc 1 586 0
 4533 1800 0230A0E3 		mov	r3, #2
 4534 1804 0D304BE5 		strb	r3, [fp, #-13]
 587:../proyecto.c **** 			if(rtc_time_aux.min !=0){
 4535              		.loc 1 587 0
 4536 1808 D0309FE5 		ldr	r3, .L102
 4537 180c 0130D3E5 		ldrb	r3, [r3, #1]	@ zero_extendqisi2
 4538 1810 000053E3 		cmp	r3, #0
 4539 1814 0600000A 		beq	.L99
 588:../proyecto.c **** 				rtc_time_aux.min--;
 4540              		.loc 1 588 0
 4541 1818 C0309FE5 		ldr	r3, .L102
 4542 181c 0130D3E5 		ldrb	r3, [r3, #1]	@ zero_extendqisi2
 4543 1820 013043E2 		sub	r3, r3, #1
 4544 1824 FF2003E2 		and	r2, r3, #255
 4545 1828 B0309FE5 		ldr	r3, .L102
 4546 182c 0120C3E5 		strb	r2, [r3, #1]
 4547 1830 270000EA 		b	.L92
 4548              	.L99:
 589:../proyecto.c **** 			}else{
 590:../proyecto.c **** 				rtc_time_aux.min =59;
 4549              		.loc 1 590 0
 4550 1834 A4309FE5 		ldr	r3, .L102
 4551 1838 3B20A0E3 		mov	r2, #59
 4552 183c 0120C3E5 		strb	r2, [r3, #1]
 4553 1840 230000EA 		b	.L92
 4554              	.L97:
 591:../proyecto.c **** 			}
 592:../proyecto.c **** 		}
 593:../proyecto.c **** 	}
 594:../proyecto.c **** 	else if(seleccionado == 3){
 4555              		.loc 1 594 0
 4556 1844 0E305BE5 		ldrb	r3, [fp, #-14]	@ zero_extendqisi2
 4557 1848 030053E3 		cmp	r3, #3
 4558 184c 2000001A 		bne	.L92
 595:../proyecto.c **** 		if(modo ==1){
 4559              		.loc 1 595 0
 4560 1850 0D305BE5 		ldrb	r3, [fp, #-13]	@ zero_extendqisi2
 4561 1854 010053E3 		cmp	r3, #1
 4562 1858 0D00001A 		bne	.L100
 596:../proyecto.c **** 			rtc_time_aux.sec++;
 4563              		.loc 1 596 0
 4564 185c 7C309FE5 		ldr	r3, .L102
 4565 1860 0030D3E5 		ldrb	r3, [r3, #0]	@ zero_extendqisi2
 4566 1864 013083E2 		add	r3, r3, #1
 4567 1868 FF2003E2 		and	r2, r3, #255
 4568 186c 6C309FE5 		ldr	r3, .L102
 4569 1870 0020C3E5 		strb	r2, [r3, #0]
 597:../proyecto.c **** 			if(rtc_time_aux.sec > 59){
 4570              		.loc 1 597 0
 4571 1874 64309FE5 		ldr	r3, .L102
 4572 1878 0030D3E5 		ldrb	r3, [r3, #0]	@ zero_extendqisi2
 4573 187c 3B0053E3 		cmp	r3, #59
 4574 1880 1300009A 		bls	.L92
 598:../proyecto.c **** 				rtc_time_aux.sec = 0;
 4575              		.loc 1 598 0
 4576 1884 54309FE5 		ldr	r3, .L102
 4577 1888 0020A0E3 		mov	r2, #0
 4578 188c 0020C3E5 		strb	r2, [r3, #0]
 4579 1890 0F0000EA 		b	.L92
 4580              	.L100:
 599:../proyecto.c **** 			}
 600:../proyecto.c **** 		}else{
 601:../proyecto.c **** 			modo=2; //Por si acaso entra sin pillar bien el valor de modo asi por defecto resta
 4581              		.loc 1 601 0
 4582 1894 0230A0E3 		mov	r3, #2
 4583 1898 0D304BE5 		strb	r3, [fp, #-13]
 602:../proyecto.c **** 			if(rtc_time_aux.sec !=0){
 4584              		.loc 1 602 0
 4585 189c 3C309FE5 		ldr	r3, .L102
 4586 18a0 0030D3E5 		ldrb	r3, [r3, #0]	@ zero_extendqisi2
 4587 18a4 000053E3 		cmp	r3, #0
 4588 18a8 0600000A 		beq	.L101
 603:../proyecto.c **** 				rtc_time_aux.sec--;
 4589              		.loc 1 603 0
 4590 18ac 2C309FE5 		ldr	r3, .L102
 4591 18b0 0030D3E5 		ldrb	r3, [r3, #0]	@ zero_extendqisi2
 4592 18b4 013043E2 		sub	r3, r3, #1
 4593 18b8 FF2003E2 		and	r2, r3, #255
 4594 18bc 1C309FE5 		ldr	r3, .L102
 4595 18c0 0020C3E5 		strb	r2, [r3, #0]
 4596 18c4 020000EA 		b	.L92
 4597              	.L101:
 604:../proyecto.c **** 			}else{
 605:../proyecto.c **** 				rtc_time_aux.sec =59;
 4598              		.loc 1 605 0
 4599 18c8 10309FE5 		ldr	r3, .L102
 4600 18cc 3B20A0E3 		mov	r2, #59
 4601 18d0 0020C3E5 		strb	r2, [r3, #0]
 4602              	.L92:
 606:../proyecto.c **** 			}
 607:../proyecto.c **** 
 608:../proyecto.c **** 		}
 609:../proyecto.c **** 	}
 610:../proyecto.c **** 
 611:../proyecto.c **** }
 4603              		.loc 1 611 0
 4604 18d4 0CD04BE2 		sub	sp, fp, #12
 4605 18d8 00689DE8 		ldmfd	sp, {fp, sp, lr}
 4606 18dc 1EFF2FE1 		bx	lr
 4607              	.L103:
 4608              		.align	2
 4609              	.L102:
 4610 18e0 00000000 		.word	rtc_time_aux
 4611              		.cfi_endproc
 4612              	.LFE11:
 4614              		.align	2
 4615              		.global	cambioMesComp
 4617              	cambioMesComp:
 4618              	.LFB12:
 612:../proyecto.c **** void cambioMesComp(){
 4619              		.loc 1 612 0
 4620              		.cfi_startproc
 4621              		@ Function supports interworking.
 4622              		@ args = 0, pretend = 0, frame = 0
 4623              		@ frame_needed = 1, uses_anonymous_args = 0
 4624 18e4 0DC0A0E1 		mov	ip, sp
 4625              	.LCFI24:
 4626              		.cfi_def_cfa_register 12
 4627 18e8 00D82DE9 		stmfd	sp!, {fp, ip, lr, pc}
 4628 18ec 04B04CE2 		sub	fp, ip, #4
 4629              		.cfi_offset 14, -8
 4630              		.cfi_offset 13, -12
 4631              		.cfi_offset 11, -16
 4632              	.LCFI25:
 4633              		.cfi_def_cfa 11, 4
 613:../proyecto.c **** 	//Comprobamos aqui tambien el dia para que el usuario no pueda poner 30 de febrero 31 de noviembre
 614:../proyecto.c **** 	if (rtc_time_aux.mon == 2) { // Febrero
 4634              		.loc 1 614 0
 4635 18f0 50319FE5 		ldr	r3, .L114
 4636 18f4 0530D3E5 		ldrb	r3, [r3, #5]	@ zero_extendqisi2
 4637 18f8 020053E3 		cmp	r3, #2
 4638 18fc 3500001A 		bne	.L105
 615:../proyecto.c **** 		if ((rtc_time_aux.year % 4 == 0 && rtc_time_aux.year % 100 != 0) || rtc_time_aux.year % 400 == 0)
 4639              		.loc 1 615 0
 4640 1900 40319FE5 		ldr	r3, .L114
 4641 1904 0630D3E5 		ldrb	r3, [r3, #6]	@ zero_extendqisi2
 4642 1908 033003E2 		and	r3, r3, #3
 4643 190c FF3003E2 		and	r3, r3, #255
 4644 1910 000053E3 		cmp	r3, #0
 4645 1914 0E00001A 		bne	.L106
 4646              		.loc 1 615 0 is_stmt 0 discriminator 1
 4647 1918 28319FE5 		ldr	r3, .L114
 4648 191c 0620D3E5 		ldrb	r2, [r3, #6]	@ zero_extendqisi2
 4649 1920 24319FE5 		ldr	r3, .L114+4
 4650 1924 921383E0 		umull	r1, r3, r2, r3
 4651 1928 A312A0E1 		mov	r1, r3, lsr #5
 4652 192c 0130A0E1 		mov	r3, r1
 4653 1930 0331A0E1 		mov	r3, r3, asl #2
 4654 1934 013083E0 		add	r3, r3, r1
 4655 1938 0311A0E1 		mov	r1, r3, asl #2
 4656 193c 013083E0 		add	r3, r3, r1
 4657 1940 0331A0E1 		mov	r3, r3, asl #2
 4658 1944 023063E0 		rsb	r3, r3, r2
 4659 1948 FF3003E2 		and	r3, r3, #255
 4660 194c 000053E3 		cmp	r3, #0
 4661 1950 1000001A 		bne	.L107
 4662              	.L106:
 4663              		.loc 1 615 0 discriminator 2
 4664 1954 EC309FE5 		ldr	r3, .L114
 4665 1958 0630D3E5 		ldrb	r3, [r3, #6]	@ zero_extendqisi2
 4666 195c 0310A0E1 		mov	r1, r3
 4667 1960 E4309FE5 		ldr	r3, .L114+4
 4668 1964 9123C3E0 		smull	r2, r3, r1, r3
 4669 1968 C323A0E1 		mov	r2, r3, asr #7
 4670 196c C13FA0E1 		mov	r3, r1, asr #31
 4671 1970 022063E0 		rsb	r2, r3, r2
 4672 1974 0230A0E1 		mov	r3, r2
 4673 1978 0331A0E1 		mov	r3, r3, asl #2
 4674 197c 023083E0 		add	r3, r3, r2
 4675 1980 0321A0E1 		mov	r2, r3, asl #2
 4676 1984 023083E0 		add	r3, r3, r2
 4677 1988 0332A0E1 		mov	r3, r3, asl #4
 4678 198c 012063E0 		rsb	r2, r3, r1
 4679 1990 000052E3 		cmp	r2, #0
 4680 1994 0700001A 		bne	.L108
 4681              	.L107:
 616:../proyecto.c **** 			// Año bisiesto
 617:../proyecto.c **** 			if(rtc_time_aux.mday >29){
 4682              		.loc 1 617 0 is_stmt 1
 4683 1998 A8309FE5 		ldr	r3, .L114
 4684 199c 0330D3E5 		ldrb	r3, [r3, #3]	@ zero_extendqisi2
 4685 19a0 1D0053E3 		cmp	r3, #29
 4686 19a4 2400009A 		bls	.L104
 618:../proyecto.c **** 				rtc_time_aux.mday =29;
 4687              		.loc 1 618 0
 4688 19a8 98309FE5 		ldr	r3, .L114
 4689 19ac 1D20A0E3 		mov	r2, #29
 4690 19b0 0320C3E5 		strb	r2, [r3, #3]
 617:../proyecto.c **** 			if(rtc_time_aux.mday >29){
 4691              		.loc 1 617 0
 4692 19b4 200000EA 		b	.L104
 4693              	.L108:
 619:../proyecto.c **** 			}
 620:../proyecto.c **** 		} else {
 621:../proyecto.c **** 			// Año no bisiesto
 622:../proyecto.c **** 			if(rtc_time_aux.mday >28){
 4694              		.loc 1 622 0
 4695 19b8 88309FE5 		ldr	r3, .L114
 4696 19bc 0330D3E5 		ldrb	r3, [r3, #3]	@ zero_extendqisi2
 4697 19c0 1C0053E3 		cmp	r3, #28
 4698 19c4 1B00009A 		bls	.L113
 623:../proyecto.c **** 				rtc_time_aux.mday =28;
 4699              		.loc 1 623 0
 4700 19c8 78309FE5 		ldr	r3, .L114
 4701 19cc 1C20A0E3 		mov	r2, #28
 4702 19d0 0320C3E5 		strb	r2, [r3, #3]
 4703 19d4 180000EA 		b	.L104
 4704              	.L105:
 624:../proyecto.c **** 			}
 625:../proyecto.c **** 		}
 626:../proyecto.c **** 	} else if (rtc_time_aux.mon == 4 || rtc_time_aux.mon == 6 || rtc_time_aux.mon == 9 || rtc_time_aux
 4705              		.loc 1 626 0
 4706 19d8 68309FE5 		ldr	r3, .L114
 4707 19dc 0530D3E5 		ldrb	r3, [r3, #5]	@ zero_extendqisi2
 4708 19e0 040053E3 		cmp	r3, #4
 4709 19e4 0B00000A 		beq	.L112
 4710              		.loc 1 626 0 is_stmt 0 discriminator 1
 4711 19e8 58309FE5 		ldr	r3, .L114
 4712 19ec 0530D3E5 		ldrb	r3, [r3, #5]	@ zero_extendqisi2
 4713 19f0 060053E3 		cmp	r3, #6
 4714 19f4 0700000A 		beq	.L112
 4715 19f8 48309FE5 		ldr	r3, .L114
 4716 19fc 0530D3E5 		ldrb	r3, [r3, #5]	@ zero_extendqisi2
 4717 1a00 090053E3 		cmp	r3, #9
 4718 1a04 0300000A 		beq	.L112
 4719 1a08 38309FE5 		ldr	r3, .L114
 4720 1a0c 0530D3E5 		ldrb	r3, [r3, #5]	@ zero_extendqisi2
 4721 1a10 0B0053E3 		cmp	r3, #11
 4722 1a14 0800001A 		bne	.L104
 4723              	.L112:
 627:../proyecto.c **** 		// Meses con 30 días
 628:../proyecto.c **** 		if(rtc_time_aux.mday >30){
 4724              		.loc 1 628 0 is_stmt 1
 4725 1a18 28309FE5 		ldr	r3, .L114
 4726 1a1c 0330D3E5 		ldrb	r3, [r3, #3]	@ zero_extendqisi2
 4727 1a20 1E0053E3 		cmp	r3, #30
 4728 1a24 0400009A 		bls	.L104
 629:../proyecto.c **** 			rtc_time_aux.mday =30;
 4729              		.loc 1 629 0
 4730 1a28 18309FE5 		ldr	r3, .L114
 4731 1a2c 1E20A0E3 		mov	r2, #30
 4732 1a30 0320C3E5 		strb	r2, [r3, #3]
 4733 1a34 000000EA 		b	.L104
 4734              	.L113:
 623:../proyecto.c **** 				rtc_time_aux.mday =28;
 4735              		.loc 1 623 0
 4736 1a38 0000A0E1 		mov	r0, r0	@ nop
 4737              	.L104:
 630:../proyecto.c **** 		}
 631:../proyecto.c **** 	}
 632:../proyecto.c **** }
 4738              		.loc 1 632 0
 4739 1a3c 0CD04BE2 		sub	sp, fp, #12
 4740 1a40 00689DE8 		ldmfd	sp, {fp, sp, lr}
 4741 1a44 1EFF2FE1 		bx	lr
 4742              	.L115:
 4743              		.align	2
 4744              	.L114:
 4745 1a48 00000000 		.word	rtc_time_aux
 4746 1a4c 1F85EB51 		.word	1374389535
 4747              		.cfi_endproc
 4748              	.LFE12:
 4750              		.align	2
 4751              		.global	operacionCambioFecha
 4753              	operacionCambioFecha:
 4754              	.LFB13:
 633:../proyecto.c **** 
 634:../proyecto.c **** void operacionCambioFecha(uint8 modo, uint8 seleccionado){
 4755              		.loc 1 634 0
 4756              		.cfi_startproc
 4757              		@ Function supports interworking.
 4758              		@ args = 0, pretend = 0, frame = 8
 4759              		@ frame_needed = 1, uses_anonymous_args = 0
 4760 1a50 0DC0A0E1 		mov	ip, sp
 4761              	.LCFI26:
 4762              		.cfi_def_cfa_register 12
 4763 1a54 00D82DE9 		stmfd	sp!, {fp, ip, lr, pc}
 4764 1a58 04B04CE2 		sub	fp, ip, #4
 4765              		.cfi_offset 14, -8
 4766              		.cfi_offset 13, -12
 4767              		.cfi_offset 11, -16
 4768              	.LCFI27:
 4769              		.cfi_def_cfa 11, 4
 4770 1a5c 08D04DE2 		sub	sp, sp, #8
 4771 1a60 0020A0E1 		mov	r2, r0
 4772 1a64 0130A0E1 		mov	r3, r1
 4773 1a68 0D204BE5 		strb	r2, [fp, #-13]
 4774 1a6c 0E304BE5 		strb	r3, [fp, #-14]
 635:../proyecto.c **** 	//seleccionado valores (1-3) siendo 1 dia, 2 mes, 3 año
 636:../proyecto.c **** 	//modo (1-2) siendo 1 la suma y 2 la resta
 637:../proyecto.c **** 
 638:../proyecto.c **** 	if(seleccionado ==1){//dia
 4775              		.loc 1 638 0
 4776 1a70 0E305BE5 		ldrb	r3, [fp, #-14]	@ zero_extendqisi2
 4777 1a74 010053E3 		cmp	r3, #1
 4778 1a78 0901001A 		bne	.L117
 639:../proyecto.c **** 			if(modo ==1){
 4779              		.loc 1 639 0
 4780 1a7c 0D305BE5 		ldrb	r3, [fp, #-13]	@ zero_extendqisi2
 4781 1a80 010053E3 		cmp	r3, #1
 4782 1a84 8000001A 		bne	.L118
 640:../proyecto.c **** 				rtc_time_aux.wday++;
 4783              		.loc 1 640 0
 4784 1a88 34369FE5 		ldr	r3, .L157
 4785 1a8c 0430D3E5 		ldrb	r3, [r3, #4]	@ zero_extendqisi2
 4786 1a90 013083E2 		add	r3, r3, #1
 4787 1a94 FF2003E2 		and	r2, r3, #255
 4788 1a98 24369FE5 		ldr	r3, .L157
 4789 1a9c 0420C3E5 		strb	r2, [r3, #4]
 641:../proyecto.c **** 				if(rtc_time_aux.wday >7){
 4790              		.loc 1 641 0
 4791 1aa0 1C369FE5 		ldr	r3, .L157
 4792 1aa4 0430D3E5 		ldrb	r3, [r3, #4]	@ zero_extendqisi2
 4793 1aa8 070053E3 		cmp	r3, #7
 4794 1aac 0200009A 		bls	.L119
 642:../proyecto.c **** 					rtc_time_aux.wday = 1;
 4795              		.loc 1 642 0
 4796 1ab0 0C369FE5 		ldr	r3, .L157
 4797 1ab4 0120A0E3 		mov	r2, #1
 4798 1ab8 0420C3E5 		strb	r2, [r3, #4]
 4799              	.L119:
 643:../proyecto.c **** 				}
 644:../proyecto.c **** 
 645:../proyecto.c **** 				if (rtc_time_aux.mon == 2) { // Febrero
 4800              		.loc 1 645 0
 4801 1abc 00369FE5 		ldr	r3, .L157
 4802 1ac0 0530D3E5 		ldrb	r3, [r3, #5]	@ zero_extendqisi2
 4803 1ac4 020053E3 		cmp	r3, #2
 4804 1ac8 4200001A 		bne	.L120
 646:../proyecto.c **** 					if ((rtc_time_aux.year % 4 == 0 && rtc_time_aux.year % 100 != 0) || rtc_time_aux.year % 400 ==
 4805              		.loc 1 646 0
 4806 1acc F0359FE5 		ldr	r3, .L157
 4807 1ad0 0630D3E5 		ldrb	r3, [r3, #6]	@ zero_extendqisi2
 4808 1ad4 033003E2 		and	r3, r3, #3
 4809 1ad8 FF3003E2 		and	r3, r3, #255
 4810 1adc 000053E3 		cmp	r3, #0
 4811 1ae0 0E00001A 		bne	.L121
 4812              		.loc 1 646 0 is_stmt 0 discriminator 1
 4813 1ae4 D8359FE5 		ldr	r3, .L157
 4814 1ae8 0620D3E5 		ldrb	r2, [r3, #6]	@ zero_extendqisi2
 4815 1aec D4359FE5 		ldr	r3, .L157+4
 4816 1af0 921383E0 		umull	r1, r3, r2, r3
 4817 1af4 A312A0E1 		mov	r1, r3, lsr #5
 4818 1af8 0130A0E1 		mov	r3, r1
 4819 1afc 0331A0E1 		mov	r3, r3, asl #2
 4820 1b00 013083E0 		add	r3, r3, r1
 4821 1b04 0311A0E1 		mov	r1, r3, asl #2
 4822 1b08 013083E0 		add	r3, r3, r1
 4823 1b0c 0331A0E1 		mov	r3, r3, asl #2
 4824 1b10 023063E0 		rsb	r3, r3, r2
 4825 1b14 FF3003E2 		and	r3, r3, #255
 4826 1b18 000053E3 		cmp	r3, #0
 4827 1b1c 1000001A 		bne	.L122
 4828              	.L121:
 4829              		.loc 1 646 0 discriminator 2
 4830 1b20 9C359FE5 		ldr	r3, .L157
 4831 1b24 0630D3E5 		ldrb	r3, [r3, #6]	@ zero_extendqisi2
 4832 1b28 0310A0E1 		mov	r1, r3
 4833 1b2c 94359FE5 		ldr	r3, .L157+4
 4834 1b30 9123C3E0 		smull	r2, r3, r1, r3
 4835 1b34 C323A0E1 		mov	r2, r3, asr #7
 4836 1b38 C13FA0E1 		mov	r3, r1, asr #31
 4837 1b3c 022063E0 		rsb	r2, r3, r2
 4838 1b40 0230A0E1 		mov	r3, r2
 4839 1b44 0331A0E1 		mov	r3, r3, asl #2
 4840 1b48 023083E0 		add	r3, r3, r2
 4841 1b4c 0321A0E1 		mov	r2, r3, asl #2
 4842 1b50 023083E0 		add	r3, r3, r2
 4843 1b54 0332A0E1 		mov	r3, r3, asl #4
 4844 1b58 012063E0 		rsb	r2, r3, r1
 4845 1b5c 000052E3 		cmp	r2, #0
 4846 1b60 0E00001A 		bne	.L123
 4847              	.L122:
 647:../proyecto.c **** 						// Año bisiesto
 648:../proyecto.c **** 						rtc_time_aux.mday++;
 4848              		.loc 1 648 0 is_stmt 1
 4849 1b64 58359FE5 		ldr	r3, .L157
 4850 1b68 0330D3E5 		ldrb	r3, [r3, #3]	@ zero_extendqisi2
 4851 1b6c 013083E2 		add	r3, r3, #1
 4852 1b70 FF2003E2 		and	r2, r3, #255
 4853 1b74 48359FE5 		ldr	r3, .L157
 4854 1b78 0320C3E5 		strb	r2, [r3, #3]
 649:../proyecto.c **** 						if(rtc_time_aux.mday >29){
 4855              		.loc 1 649 0
 4856 1b7c 40359FE5 		ldr	r3, .L157
 4857 1b80 0330D3E5 		ldrb	r3, [r3, #3]	@ zero_extendqisi2
 4858 1b84 1D0053E3 		cmp	r3, #29
 4859 1b88 0200009A 		bls	.L124
 650:../proyecto.c **** 							rtc_time_aux.mday =1;
 4860              		.loc 1 650 0
 4861 1b8c 30359FE5 		ldr	r3, .L157
 4862 1b90 0120A0E3 		mov	r2, #1
 4863 1b94 0320C3E5 		strb	r2, [r3, #3]
 4864              	.L124:
 649:../proyecto.c **** 						if(rtc_time_aux.mday >29){
 4865              		.loc 1 649 0 discriminator 1
 4866 1b98 0000A0E1 		mov	r0, r0	@ nop
 651:../proyecto.c **** 						}
 652:../proyecto.c **** 					} else {
 653:../proyecto.c **** 						// Año no bisiesto
 654:../proyecto.c **** 						rtc_time_aux.mday++;
 655:../proyecto.c **** 						if(rtc_time_aux.mday >28){
 656:../proyecto.c **** 							rtc_time_aux.mday =1;
 657:../proyecto.c **** 						}
 658:../proyecto.c **** 					}
 659:../proyecto.c **** 				} else if (rtc_time_aux.mon == 4 || rtc_time_aux.mon == 6 || rtc_time_aux.mon == 9 || rtc_time_
 660:../proyecto.c **** 					// Meses con 30 días
 661:../proyecto.c **** 					rtc_time_aux.mday++;
 662:../proyecto.c **** 					if(rtc_time_aux.mday >30){
 663:../proyecto.c **** 						rtc_time_aux.mday =1;
 664:../proyecto.c **** 					}
 665:../proyecto.c **** 
 666:../proyecto.c **** 				} else {
 667:../proyecto.c **** 					// Meses con 31 días
 668:../proyecto.c **** 					rtc_time_aux.mday++;
 669:../proyecto.c **** 					if(rtc_time_aux.mday >31){
 670:../proyecto.c **** 						rtc_time_aux.mday =1;
 671:../proyecto.c **** 					}
 672:../proyecto.c **** 				}
 673:../proyecto.c **** 			}else{
 674:../proyecto.c **** 				modo=2;
 675:../proyecto.c **** 				rtc_time_aux.wday--;
 676:../proyecto.c **** 				if(rtc_time_aux.wday <1){
 677:../proyecto.c **** 					rtc_time_aux.wday = 7;
 678:../proyecto.c **** 				}
 679:../proyecto.c **** 
 680:../proyecto.c **** 				if (rtc_time_aux.mon == 2) { // Febrero
 681:../proyecto.c **** 					if ((rtc_time_aux.year % 4 == 0 && rtc_time_aux.year % 100 != 0) || rtc_time_aux.year % 400 ==
 682:../proyecto.c **** 						// Año bisiesto
 683:../proyecto.c **** 						if(rtc_time_aux.mday !=1){
 684:../proyecto.c **** 							rtc_time_aux.mday--;
 685:../proyecto.c **** 						}else{
 686:../proyecto.c **** 							rtc_time_aux.mday =29;
 687:../proyecto.c **** 						}
 688:../proyecto.c **** 					} else {
 689:../proyecto.c **** 						// Año no bisiesto
 690:../proyecto.c **** 						if(rtc_time_aux.mday !=1){
 691:../proyecto.c **** 							rtc_time_aux.mday--;
 692:../proyecto.c **** 						}else{
 693:../proyecto.c **** 							rtc_time_aux.mday =28;
 694:../proyecto.c **** 						}
 695:../proyecto.c **** 					}
 696:../proyecto.c **** 				} else if (rtc_time_aux.mon == 4 || rtc_time_aux.mon == 6 || rtc_time_aux.mon == 9 || rtc_time_
 697:../proyecto.c **** 					// Meses con 30 días
 698:../proyecto.c **** 					if(rtc_time_aux.mday !=1){
 699:../proyecto.c **** 						rtc_time_aux.mday--;
 700:../proyecto.c **** 					}else{
 701:../proyecto.c **** 						rtc_time_aux.mday =30;
 702:../proyecto.c **** 					}
 703:../proyecto.c **** 
 704:../proyecto.c **** 				} else {
 705:../proyecto.c **** 					if(rtc_time_aux.mday !=1){
 706:../proyecto.c **** 						rtc_time_aux.mday--;
 707:../proyecto.c **** 					}else{
 708:../proyecto.c **** 						rtc_time_aux.mday =31;
 4867              		.loc 1 708 0 discriminator 1
 4868 1b9c 450100EA 		b	.L116
 4869              	.L123:
 654:../proyecto.c **** 						rtc_time_aux.mday++;
 4870              		.loc 1 654 0
 4871 1ba0 1C359FE5 		ldr	r3, .L157
 4872 1ba4 0330D3E5 		ldrb	r3, [r3, #3]	@ zero_extendqisi2
 4873 1ba8 013083E2 		add	r3, r3, #1
 4874 1bac FF2003E2 		and	r2, r3, #255
 4875 1bb0 0C359FE5 		ldr	r3, .L157
 4876 1bb4 0320C3E5 		strb	r2, [r3, #3]
 655:../proyecto.c **** 						if(rtc_time_aux.mday >28){
 4877              		.loc 1 655 0
 4878 1bb8 04359FE5 		ldr	r3, .L157
 4879 1bbc 0330D3E5 		ldrb	r3, [r3, #3]	@ zero_extendqisi2
 4880 1bc0 1C0053E3 		cmp	r3, #28
 4881 1bc4 3801009A 		bls	.L155
 656:../proyecto.c **** 							rtc_time_aux.mday =1;
 4882              		.loc 1 656 0
 4883 1bc8 F4349FE5 		ldr	r3, .L157
 4884 1bcc 0120A0E3 		mov	r2, #1
 4885 1bd0 0320C3E5 		strb	r2, [r3, #3]
 4886              		.loc 1 708 0
 4887 1bd4 370100EA 		b	.L116
 4888              	.L120:
 659:../proyecto.c **** 				} else if (rtc_time_aux.mon == 4 || rtc_time_aux.mon == 6 || rtc_time_aux.mon == 9 || rtc_time_
 4889              		.loc 1 659 0
 4890 1bd8 E4349FE5 		ldr	r3, .L157
 4891 1bdc 0530D3E5 		ldrb	r3, [r3, #5]	@ zero_extendqisi2
 4892 1be0 040053E3 		cmp	r3, #4
 4893 1be4 0B00000A 		beq	.L127
 659:../proyecto.c **** 				} else if (rtc_time_aux.mon == 4 || rtc_time_aux.mon == 6 || rtc_time_aux.mon == 9 || rtc_time_
 4894              		.loc 1 659 0 is_stmt 0 discriminator 1
 4895 1be8 D4349FE5 		ldr	r3, .L157
 4896 1bec 0530D3E5 		ldrb	r3, [r3, #5]	@ zero_extendqisi2
 4897 1bf0 060053E3 		cmp	r3, #6
 4898 1bf4 0700000A 		beq	.L127
 4899 1bf8 C4349FE5 		ldr	r3, .L157
 4900 1bfc 0530D3E5 		ldrb	r3, [r3, #5]	@ zero_extendqisi2
 4901 1c00 090053E3 		cmp	r3, #9
 4902 1c04 0300000A 		beq	.L127
 4903 1c08 B4349FE5 		ldr	r3, .L157
 4904 1c0c 0530D3E5 		ldrb	r3, [r3, #5]	@ zero_extendqisi2
 4905 1c10 0B0053E3 		cmp	r3, #11
 4906 1c14 0E00001A 		bne	.L128
 4907              	.L127:
 661:../proyecto.c **** 					rtc_time_aux.mday++;
 4908              		.loc 1 661 0 is_stmt 1
 4909 1c18 A4349FE5 		ldr	r3, .L157
 4910 1c1c 0330D3E5 		ldrb	r3, [r3, #3]	@ zero_extendqisi2
 4911 1c20 013083E2 		add	r3, r3, #1
 4912 1c24 FF2003E2 		and	r2, r3, #255
 4913 1c28 94349FE5 		ldr	r3, .L157
 4914 1c2c 0320C3E5 		strb	r2, [r3, #3]
 662:../proyecto.c **** 					if(rtc_time_aux.mday >30){
 4915              		.loc 1 662 0
 4916 1c30 8C349FE5 		ldr	r3, .L157
 4917 1c34 0330D3E5 		ldrb	r3, [r3, #3]	@ zero_extendqisi2
 4918 1c38 1E0053E3 		cmp	r3, #30
 4919 1c3c 0200009A 		bls	.L129
 663:../proyecto.c **** 						rtc_time_aux.mday =1;
 4920              		.loc 1 663 0
 4921 1c40 7C349FE5 		ldr	r3, .L157
 4922 1c44 0120A0E3 		mov	r2, #1
 4923 1c48 0320C3E5 		strb	r2, [r3, #3]
 4924              	.L129:
 662:../proyecto.c **** 					if(rtc_time_aux.mday >30){
 4925              		.loc 1 662 0 discriminator 1
 4926 1c4c 0000A0E1 		mov	r0, r0	@ nop
 4927              		.loc 1 708 0 discriminator 1
 4928 1c50 180100EA 		b	.L116
 4929              	.L128:
 668:../proyecto.c **** 					rtc_time_aux.mday++;
 4930              		.loc 1 668 0
 4931 1c54 68349FE5 		ldr	r3, .L157
 4932 1c58 0330D3E5 		ldrb	r3, [r3, #3]	@ zero_extendqisi2
 4933 1c5c 013083E2 		add	r3, r3, #1
 4934 1c60 FF2003E2 		and	r2, r3, #255
 4935 1c64 58349FE5 		ldr	r3, .L157
 4936 1c68 0320C3E5 		strb	r2, [r3, #3]
 669:../proyecto.c **** 					if(rtc_time_aux.mday >31){
 4937              		.loc 1 669 0
 4938 1c6c 50349FE5 		ldr	r3, .L157
 4939 1c70 0330D3E5 		ldrb	r3, [r3, #3]	@ zero_extendqisi2
 4940 1c74 1F0053E3 		cmp	r3, #31
 4941 1c78 0D01009A 		bls	.L156
 670:../proyecto.c **** 						rtc_time_aux.mday =1;
 4942              		.loc 1 670 0
 4943 1c7c 40349FE5 		ldr	r3, .L157
 4944 1c80 0120A0E3 		mov	r2, #1
 4945 1c84 0320C3E5 		strb	r2, [r3, #3]
 4946              		.loc 1 708 0
 4947 1c88 0A0100EA 		b	.L116
 4948              	.L118:
 674:../proyecto.c **** 				modo=2;
 4949              		.loc 1 674 0
 4950 1c8c 0230A0E3 		mov	r3, #2
 4951 1c90 0D304BE5 		strb	r3, [fp, #-13]
 675:../proyecto.c **** 				rtc_time_aux.wday--;
 4952              		.loc 1 675 0
 4953 1c94 28349FE5 		ldr	r3, .L157
 4954 1c98 0430D3E5 		ldrb	r3, [r3, #4]	@ zero_extendqisi2
 4955 1c9c 013043E2 		sub	r3, r3, #1
 4956 1ca0 FF2003E2 		and	r2, r3, #255
 4957 1ca4 18349FE5 		ldr	r3, .L157
 4958 1ca8 0420C3E5 		strb	r2, [r3, #4]
 676:../proyecto.c **** 				if(rtc_time_aux.wday <1){
 4959              		.loc 1 676 0
 4960 1cac 10349FE5 		ldr	r3, .L157
 4961 1cb0 0430D3E5 		ldrb	r3, [r3, #4]	@ zero_extendqisi2
 4962 1cb4 000053E3 		cmp	r3, #0
 4963 1cb8 0200001A 		bne	.L131
 677:../proyecto.c **** 					rtc_time_aux.wday = 7;
 4964              		.loc 1 677 0
 4965 1cbc 00349FE5 		ldr	r3, .L157
 4966 1cc0 0720A0E3 		mov	r2, #7
 4967 1cc4 0420C3E5 		strb	r2, [r3, #4]
 4968              	.L131:
 680:../proyecto.c **** 				if (rtc_time_aux.mon == 2) { // Febrero
 4969              		.loc 1 680 0
 4970 1cc8 F4339FE5 		ldr	r3, .L157
 4971 1ccc 0530D3E5 		ldrb	r3, [r3, #5]	@ zero_extendqisi2
 4972 1cd0 020053E3 		cmp	r3, #2
 4973 1cd4 4400001A 		bne	.L132
 681:../proyecto.c **** 					if ((rtc_time_aux.year % 4 == 0 && rtc_time_aux.year % 100 != 0) || rtc_time_aux.year % 400 ==
 4974              		.loc 1 681 0
 4975 1cd8 E4339FE5 		ldr	r3, .L157
 4976 1cdc 0630D3E5 		ldrb	r3, [r3, #6]	@ zero_extendqisi2
 4977 1ce0 033003E2 		and	r3, r3, #3
 4978 1ce4 FF3003E2 		and	r3, r3, #255
 4979 1ce8 000053E3 		cmp	r3, #0
 4980 1cec 0E00001A 		bne	.L133
 681:../proyecto.c **** 					if ((rtc_time_aux.year % 4 == 0 && rtc_time_aux.year % 100 != 0) || rtc_time_aux.year % 400 ==
 4981              		.loc 1 681 0 is_stmt 0 discriminator 1
 4982 1cf0 CC339FE5 		ldr	r3, .L157
 4983 1cf4 0620D3E5 		ldrb	r2, [r3, #6]	@ zero_extendqisi2
 4984 1cf8 C8339FE5 		ldr	r3, .L157+4
 4985 1cfc 921383E0 		umull	r1, r3, r2, r3
 4986 1d00 A312A0E1 		mov	r1, r3, lsr #5
 4987 1d04 0130A0E1 		mov	r3, r1
 4988 1d08 0331A0E1 		mov	r3, r3, asl #2
 4989 1d0c 013083E0 		add	r3, r3, r1
 4990 1d10 0311A0E1 		mov	r1, r3, asl #2
 4991 1d14 013083E0 		add	r3, r3, r1
 4992 1d18 0331A0E1 		mov	r3, r3, asl #2
 4993 1d1c 023063E0 		rsb	r3, r3, r2
 4994 1d20 FF3003E2 		and	r3, r3, #255
 4995 1d24 000053E3 		cmp	r3, #0
 4996 1d28 1000001A 		bne	.L134
 4997              	.L133:
 681:../proyecto.c **** 					if ((rtc_time_aux.year % 4 == 0 && rtc_time_aux.year % 100 != 0) || rtc_time_aux.year % 400 ==
 4998              		.loc 1 681 0 discriminator 2
 4999 1d2c 90339FE5 		ldr	r3, .L157
 5000 1d30 0630D3E5 		ldrb	r3, [r3, #6]	@ zero_extendqisi2
 5001 1d34 0310A0E1 		mov	r1, r3
 5002 1d38 88339FE5 		ldr	r3, .L157+4
 5003 1d3c 9123C3E0 		smull	r2, r3, r1, r3
 5004 1d40 C323A0E1 		mov	r2, r3, asr #7
 5005 1d44 C13FA0E1 		mov	r3, r1, asr #31
 5006 1d48 022063E0 		rsb	r2, r3, r2
 5007 1d4c 0230A0E1 		mov	r3, r2
 5008 1d50 0331A0E1 		mov	r3, r3, asl #2
 5009 1d54 023083E0 		add	r3, r3, r2
 5010 1d58 0321A0E1 		mov	r2, r3, asl #2
 5011 1d5c 023083E0 		add	r3, r3, r2
 5012 1d60 0332A0E1 		mov	r3, r3, asl #4
 5013 1d64 012063E0 		rsb	r2, r3, r1
 5014 1d68 000052E3 		cmp	r2, #0
 5015 1d6c 0F00001A 		bne	.L135
 5016              	.L134:
 683:../proyecto.c **** 						if(rtc_time_aux.mday !=1){
 5017              		.loc 1 683 0 is_stmt 1
 5018 1d70 4C339FE5 		ldr	r3, .L157
 5019 1d74 0330D3E5 		ldrb	r3, [r3, #3]	@ zero_extendqisi2
 5020 1d78 010053E3 		cmp	r3, #1
 5021 1d7c 0600000A 		beq	.L136
 684:../proyecto.c **** 							rtc_time_aux.mday--;
 5022              		.loc 1 684 0
 5023 1d80 3C339FE5 		ldr	r3, .L157
 5024 1d84 0330D3E5 		ldrb	r3, [r3, #3]	@ zero_extendqisi2
 5025 1d88 013043E2 		sub	r3, r3, #1
 5026 1d8c FF2003E2 		and	r2, r3, #255
 5027 1d90 2C339FE5 		ldr	r3, .L157
 5028 1d94 0320C3E5 		strb	r2, [r3, #3]
 5029 1d98 020000EA 		b	.L137
 5030              	.L136:
 686:../proyecto.c **** 							rtc_time_aux.mday =29;
 5031              		.loc 1 686 0
 5032 1d9c 20339FE5 		ldr	r3, .L157
 5033 1da0 1D20A0E3 		mov	r2, #29
 5034 1da4 0320C3E5 		strb	r2, [r3, #3]
 5035              	.L137:
 683:../proyecto.c **** 						if(rtc_time_aux.mday !=1){
 5036              		.loc 1 683 0
 5037 1da8 0000A0E1 		mov	r0, r0	@ nop
 5038              		.loc 1 708 0
 5039 1dac C10000EA 		b	.L116
 5040              	.L135:
 690:../proyecto.c **** 						if(rtc_time_aux.mday !=1){
 5041              		.loc 1 690 0
 5042 1db0 0C339FE5 		ldr	r3, .L157
 5043 1db4 0330D3E5 		ldrb	r3, [r3, #3]	@ zero_extendqisi2
 5044 1db8 010053E3 		cmp	r3, #1
 5045 1dbc 0600000A 		beq	.L139
 691:../proyecto.c **** 							rtc_time_aux.mday--;
 5046              		.loc 1 691 0
 5047 1dc0 FC329FE5 		ldr	r3, .L157
 5048 1dc4 0330D3E5 		ldrb	r3, [r3, #3]	@ zero_extendqisi2
 5049 1dc8 013043E2 		sub	r3, r3, #1
 5050 1dcc FF2003E2 		and	r2, r3, #255
 5051 1dd0 EC329FE5 		ldr	r3, .L157
 5052 1dd4 0320C3E5 		strb	r2, [r3, #3]
 5053              		.loc 1 708 0
 5054 1dd8 B60000EA 		b	.L116
 5055              	.L139:
 693:../proyecto.c **** 							rtc_time_aux.mday =28;
 5056              		.loc 1 693 0
 5057 1ddc E0329FE5 		ldr	r3, .L157
 5058 1de0 1C20A0E3 		mov	r2, #28
 5059 1de4 0320C3E5 		strb	r2, [r3, #3]
 5060              		.loc 1 708 0
 5061 1de8 B20000EA 		b	.L116
 5062              	.L132:
 696:../proyecto.c **** 				} else if (rtc_time_aux.mon == 4 || rtc_time_aux.mon == 6 || rtc_time_aux.mon == 9 || rtc_time_
 5063              		.loc 1 696 0
 5064 1dec D0329FE5 		ldr	r3, .L157
 5065 1df0 0530D3E5 		ldrb	r3, [r3, #5]	@ zero_extendqisi2
 5066 1df4 040053E3 		cmp	r3, #4
 5067 1df8 0B00000A 		beq	.L140
 696:../proyecto.c **** 				} else if (rtc_time_aux.mon == 4 || rtc_time_aux.mon == 6 || rtc_time_aux.mon == 9 || rtc_time_
 5068              		.loc 1 696 0 is_stmt 0 discriminator 1
 5069 1dfc C0329FE5 		ldr	r3, .L157
 5070 1e00 0530D3E5 		ldrb	r3, [r3, #5]	@ zero_extendqisi2
 5071 1e04 060053E3 		cmp	r3, #6
 5072 1e08 0700000A 		beq	.L140
 5073 1e0c B0329FE5 		ldr	r3, .L157
 5074 1e10 0530D3E5 		ldrb	r3, [r3, #5]	@ zero_extendqisi2
 5075 1e14 090053E3 		cmp	r3, #9
 5076 1e18 0300000A 		beq	.L140
 5077 1e1c A0329FE5 		ldr	r3, .L157
 5078 1e20 0530D3E5 		ldrb	r3, [r3, #5]	@ zero_extendqisi2
 5079 1e24 0B0053E3 		cmp	r3, #11
 5080 1e28 0E00001A 		bne	.L141
 5081              	.L140:
 698:../proyecto.c **** 					if(rtc_time_aux.mday !=1){
 5082              		.loc 1 698 0 is_stmt 1
 5083 1e2c 90329FE5 		ldr	r3, .L157
 5084 1e30 0330D3E5 		ldrb	r3, [r3, #3]	@ zero_extendqisi2
 5085 1e34 010053E3 		cmp	r3, #1
 5086 1e38 0600000A 		beq	.L142
 699:../proyecto.c **** 						rtc_time_aux.mday--;
 5087              		.loc 1 699 0
 5088 1e3c 80329FE5 		ldr	r3, .L157
 5089 1e40 0330D3E5 		ldrb	r3, [r3, #3]	@ zero_extendqisi2
 5090 1e44 013043E2 		sub	r3, r3, #1
 5091 1e48 FF2003E2 		and	r2, r3, #255
 5092 1e4c 70329FE5 		ldr	r3, .L157
 5093 1e50 0320C3E5 		strb	r2, [r3, #3]
 698:../proyecto.c **** 					if(rtc_time_aux.mday !=1){
 5094              		.loc 1 698 0
 5095 1e54 970000EA 		b	.L116
 5096              	.L142:
 701:../proyecto.c **** 						rtc_time_aux.mday =30;
 5097              		.loc 1 701 0
 5098 1e58 64329FE5 		ldr	r3, .L157
 5099 1e5c 1E20A0E3 		mov	r2, #30
 5100 1e60 0320C3E5 		strb	r2, [r3, #3]
 698:../proyecto.c **** 					if(rtc_time_aux.mday !=1){
 5101              		.loc 1 698 0
 5102 1e64 930000EA 		b	.L116
 5103              	.L141:
 705:../proyecto.c **** 					if(rtc_time_aux.mday !=1){
 5104              		.loc 1 705 0
 5105 1e68 54329FE5 		ldr	r3, .L157
 5106 1e6c 0330D3E5 		ldrb	r3, [r3, #3]	@ zero_extendqisi2
 5107 1e70 010053E3 		cmp	r3, #1
 5108 1e74 0600000A 		beq	.L144
 706:../proyecto.c **** 						rtc_time_aux.mday--;
 5109              		.loc 1 706 0
 5110 1e78 44329FE5 		ldr	r3, .L157
 5111 1e7c 0330D3E5 		ldrb	r3, [r3, #3]	@ zero_extendqisi2
 5112 1e80 013043E2 		sub	r3, r3, #1
 5113 1e84 FF2003E2 		and	r2, r3, #255
 5114 1e88 34329FE5 		ldr	r3, .L157
 5115 1e8c 0320C3E5 		strb	r2, [r3, #3]
 5116              		.loc 1 708 0
 5117 1e90 880000EA 		b	.L116
 5118              	.L144:
 5119 1e94 28329FE5 		ldr	r3, .L157
 5120 1e98 1F20A0E3 		mov	r2, #31
 5121 1e9c 0320C3E5 		strb	r2, [r3, #3]
 5122 1ea0 840000EA 		b	.L116
 5123              	.L117:
 709:../proyecto.c **** 					}
 710:../proyecto.c **** 				}
 711:../proyecto.c **** 			}
 712:../proyecto.c **** 	}else if(seleccionado == 2){//mes
 5124              		.loc 1 712 0
 5125 1ea4 0E305BE5 		ldrb	r3, [fp, #-14]	@ zero_extendqisi2
 5126 1ea8 020053E3 		cmp	r3, #2
 5127 1eac 3F00001A 		bne	.L146
 713:../proyecto.c **** 		if(modo ==1){
 5128              		.loc 1 713 0
 5129 1eb0 0D305BE5 		ldrb	r3, [fp, #-13]	@ zero_extendqisi2
 5130 1eb4 010053E3 		cmp	r3, #1
 5131 1eb8 1C00001A 		bne	.L147
 714:../proyecto.c **** 			rtc_time_aux.mon++;
 5132              		.loc 1 714 0
 5133 1ebc 00329FE5 		ldr	r3, .L157
 5134 1ec0 0530D3E5 		ldrb	r3, [r3, #5]	@ zero_extendqisi2
 5135 1ec4 013083E2 		add	r3, r3, #1
 5136 1ec8 FF2003E2 		and	r2, r3, #255
 5137 1ecc F0319FE5 		ldr	r3, .L157
 5138 1ed0 0520C3E5 		strb	r2, [r3, #5]
 715:../proyecto.c **** 			if(rtc_time_aux.mon > 12){
 5139              		.loc 1 715 0
 5140 1ed4 E8319FE5 		ldr	r3, .L157
 5141 1ed8 0530D3E5 		ldrb	r3, [r3, #5]	@ zero_extendqisi2
 5142 1edc 0C0053E3 		cmp	r3, #12
 5143 1ee0 0200009A 		bls	.L148
 716:../proyecto.c **** 				rtc_time_aux.mon = 1;
 5144              		.loc 1 716 0
 5145 1ee4 D8319FE5 		ldr	r3, .L157
 5146 1ee8 0120A0E3 		mov	r2, #1
 5147 1eec 0520C3E5 		strb	r2, [r3, #5]
 5148              	.L148:
 717:../proyecto.c **** 			}
 718:../proyecto.c **** 			cambioMesComp();
 5149              		.loc 1 718 0
 5150 1ef0 FEFFFFEB 		bl	cambioMesComp
 719:../proyecto.c **** 			rtc_time_aux.wday = calcularDiaSemana(rtc_time_aux.year,rtc_time_aux.mon,rtc_time_aux.mday);
 5151              		.loc 1 719 0
 5152 1ef4 C8319FE5 		ldr	r3, .L157
 5153 1ef8 0610D3E5 		ldrb	r1, [r3, #6]	@ zero_extendqisi2
 5154 1efc C0319FE5 		ldr	r3, .L157
 5155 1f00 0520D3E5 		ldrb	r2, [r3, #5]	@ zero_extendqisi2
 5156 1f04 B8319FE5 		ldr	r3, .L157
 5157 1f08 0330D3E5 		ldrb	r3, [r3, #3]	@ zero_extendqisi2
 5158 1f0c 0100A0E1 		mov	r0, r1
 5159 1f10 0210A0E1 		mov	r1, r2
 5160 1f14 0320A0E1 		mov	r2, r3
 5161 1f18 FEFFFFEB 		bl	calcularDiaSemana
 5162 1f1c 0030A0E1 		mov	r3, r0
 5163 1f20 0320A0E1 		mov	r2, r3
 5164 1f24 98319FE5 		ldr	r3, .L157
 5165 1f28 0420C3E5 		strb	r2, [r3, #4]
 5166 1f2c 610000EA 		b	.L116
 5167              	.L147:
 720:../proyecto.c **** 		}else{
 721:../proyecto.c **** 			modo=2; //Por si acaso entra sin pillar bien el valor de modo asi por defecto resta
 5168              		.loc 1 721 0
 5169 1f30 0230A0E3 		mov	r3, #2
 5170 1f34 0D304BE5 		strb	r3, [fp, #-13]
 722:../proyecto.c **** 			if(rtc_time_aux.mon !=1){
 5171              		.loc 1 722 0
 5172 1f38 84319FE5 		ldr	r3, .L157
 5173 1f3c 0530D3E5 		ldrb	r3, [r3, #5]	@ zero_extendqisi2
 5174 1f40 010053E3 		cmp	r3, #1
 5175 1f44 0600000A 		beq	.L149
 723:../proyecto.c **** 				rtc_time_aux.mon--;
 5176              		.loc 1 723 0
 5177 1f48 74319FE5 		ldr	r3, .L157
 5178 1f4c 0530D3E5 		ldrb	r3, [r3, #5]	@ zero_extendqisi2
 5179 1f50 013043E2 		sub	r3, r3, #1
 5180 1f54 FF2003E2 		and	r2, r3, #255
 5181 1f58 64319FE5 		ldr	r3, .L157
 5182 1f5c 0520C3E5 		strb	r2, [r3, #5]
 5183 1f60 020000EA 		b	.L150
 5184              	.L149:
 724:../proyecto.c **** 			}else{
 725:../proyecto.c **** 				rtc_time_aux.mon =12;
 5185              		.loc 1 725 0
 5186 1f64 58319FE5 		ldr	r3, .L157
 5187 1f68 0C20A0E3 		mov	r2, #12
 5188 1f6c 0520C3E5 		strb	r2, [r3, #5]
 5189              	.L150:
 726:../proyecto.c **** 			}
 727:../proyecto.c **** 			cambioMesComp();
 5190              		.loc 1 727 0
 5191 1f70 FEFFFFEB 		bl	cambioMesComp
 728:../proyecto.c **** 			rtc_time_aux.wday = calcularDiaSemana(rtc_time_aux.year,rtc_time_aux.mon,rtc_time_aux.mday);
 5192              		.loc 1 728 0
 5193 1f74 48319FE5 		ldr	r3, .L157
 5194 1f78 0610D3E5 		ldrb	r1, [r3, #6]	@ zero_extendqisi2
 5195 1f7c 40319FE5 		ldr	r3, .L157
 5196 1f80 0520D3E5 		ldrb	r2, [r3, #5]	@ zero_extendqisi2
 5197 1f84 38319FE5 		ldr	r3, .L157
 5198 1f88 0330D3E5 		ldrb	r3, [r3, #3]	@ zero_extendqisi2
 5199 1f8c 0100A0E1 		mov	r0, r1
 5200 1f90 0210A0E1 		mov	r1, r2
 5201 1f94 0320A0E1 		mov	r2, r3
 5202 1f98 FEFFFFEB 		bl	calcularDiaSemana
 5203 1f9c 0030A0E1 		mov	r3, r0
 5204 1fa0 0320A0E1 		mov	r2, r3
 5205 1fa4 18319FE5 		ldr	r3, .L157
 5206 1fa8 0420C3E5 		strb	r2, [r3, #4]
 5207 1fac 410000EA 		b	.L116
 5208              	.L146:
 729:../proyecto.c **** 		}
 730:../proyecto.c **** 	}
 731:../proyecto.c **** 	else if(seleccionado == 3){//año
 5209              		.loc 1 731 0
 5210 1fb0 0E305BE5 		ldrb	r3, [fp, #-14]	@ zero_extendqisi2
 5211 1fb4 030053E3 		cmp	r3, #3
 5212 1fb8 3E00001A 		bne	.L116
 732:../proyecto.c **** 		if(modo ==1){
 5213              		.loc 1 732 0
 5214 1fbc 0D305BE5 		ldrb	r3, [fp, #-13]	@ zero_extendqisi2
 5215 1fc0 010053E3 		cmp	r3, #1
 5216 1fc4 1A00001A 		bne	.L151
 733:../proyecto.c **** 			rtc_time_aux.year++;
 5217              		.loc 1 733 0
 5218 1fc8 F4309FE5 		ldr	r3, .L157
 5219 1fcc 0630D3E5 		ldrb	r3, [r3, #6]	@ zero_extendqisi2
 5220 1fd0 013083E2 		add	r3, r3, #1
 5221 1fd4 FF2003E2 		and	r2, r3, #255
 5222 1fd8 E4309FE5 		ldr	r3, .L157
 5223 1fdc 0620C3E5 		strb	r2, [r3, #6]
 734:../proyecto.c **** 			if(rtc_time_aux.year > 99){
 5224              		.loc 1 734 0
 5225 1fe0 DC309FE5 		ldr	r3, .L157
 5226 1fe4 0630D3E5 		ldrb	r3, [r3, #6]	@ zero_extendqisi2
 5227 1fe8 630053E3 		cmp	r3, #99
 5228 1fec 0200009A 		bls	.L152
 735:../proyecto.c **** 				rtc_time_aux.year = 0;
 5229              		.loc 1 735 0
 5230 1ff0 CC309FE5 		ldr	r3, .L157
 5231 1ff4 0020A0E3 		mov	r2, #0
 5232 1ff8 0620C3E5 		strb	r2, [r3, #6]
 5233              	.L152:
 736:../proyecto.c **** 			}
 737:../proyecto.c **** 			//Cada año que pasa cambia el dia de la semana, por ejemplo el 3/1/24 es miercoles pero el 3/1/2
 738:../proyecto.c **** 			rtc_time_aux.wday++;
 5234              		.loc 1 738 0
 5235 1ffc C0309FE5 		ldr	r3, .L157
 5236 2000 0430D3E5 		ldrb	r3, [r3, #4]	@ zero_extendqisi2
 5237 2004 013083E2 		add	r3, r3, #1
 5238 2008 FF2003E2 		and	r2, r3, #255
 5239 200c B0309FE5 		ldr	r3, .L157
 5240 2010 0420C3E5 		strb	r2, [r3, #4]
 739:../proyecto.c **** 			if(rtc_time_aux.wday >7){
 5241              		.loc 1 739 0
 5242 2014 A8309FE5 		ldr	r3, .L157
 5243 2018 0430D3E5 		ldrb	r3, [r3, #4]	@ zero_extendqisi2
 5244 201c 070053E3 		cmp	r3, #7
 5245 2020 2400009A 		bls	.L116
 740:../proyecto.c **** 				rtc_time_aux.wday = 1;
 5246              		.loc 1 740 0
 5247 2024 98309FE5 		ldr	r3, .L157
 5248 2028 0120A0E3 		mov	r2, #1
 5249 202c 0420C3E5 		strb	r2, [r3, #4]
 5250 2030 200000EA 		b	.L116
 5251              	.L151:
 741:../proyecto.c **** 			}
 742:../proyecto.c **** 		}else{
 743:../proyecto.c **** 			modo=2; //Por si acaso entra sin pillar bien el valor de modo asi por defecto resta
 5252              		.loc 1 743 0
 5253 2034 0230A0E3 		mov	r3, #2
 5254 2038 0D304BE5 		strb	r3, [fp, #-13]
 744:../proyecto.c **** 			if(rtc_time_aux.year !=0){
 5255              		.loc 1 744 0
 5256 203c 80309FE5 		ldr	r3, .L157
 5257 2040 0630D3E5 		ldrb	r3, [r3, #6]	@ zero_extendqisi2
 5258 2044 000053E3 		cmp	r3, #0
 5259 2048 0600000A 		beq	.L153
 745:../proyecto.c **** 				rtc_time_aux.year--;
 5260              		.loc 1 745 0
 5261 204c 70309FE5 		ldr	r3, .L157
 5262 2050 0630D3E5 		ldrb	r3, [r3, #6]	@ zero_extendqisi2
 5263 2054 013043E2 		sub	r3, r3, #1
 5264 2058 FF2003E2 		and	r2, r3, #255
 5265 205c 60309FE5 		ldr	r3, .L157
 5266 2060 0620C3E5 		strb	r2, [r3, #6]
 5267 2064 020000EA 		b	.L154
 5268              	.L153:
 746:../proyecto.c **** 			}else{
 747:../proyecto.c **** 				rtc_time_aux.year =99;
 5269              		.loc 1 747 0
 5270 2068 54309FE5 		ldr	r3, .L157
 5271 206c 6320A0E3 		mov	r2, #99
 5272 2070 0620C3E5 		strb	r2, [r3, #6]
 5273              	.L154:
 748:../proyecto.c **** 			}
 749:../proyecto.c **** 			//Cada año que se retrocede cambia el dia de la semana, por ejemplo el 3/1/23 es martes pero el 
 750:../proyecto.c **** 			rtc_time_aux.wday--;
 5274              		.loc 1 750 0
 5275 2074 48309FE5 		ldr	r3, .L157
 5276 2078 0430D3E5 		ldrb	r3, [r3, #4]	@ zero_extendqisi2
 5277 207c 013043E2 		sub	r3, r3, #1
 5278 2080 FF2003E2 		and	r2, r3, #255
 5279 2084 38309FE5 		ldr	r3, .L157
 5280 2088 0420C3E5 		strb	r2, [r3, #4]
 751:../proyecto.c **** 			if(rtc_time_aux.wday <1){
 5281              		.loc 1 751 0
 5282 208c 30309FE5 		ldr	r3, .L157
 5283 2090 0430D3E5 		ldrb	r3, [r3, #4]	@ zero_extendqisi2
 5284 2094 000053E3 		cmp	r3, #0
 5285 2098 0600001A 		bne	.L116
 752:../proyecto.c **** 				rtc_time_aux.wday = 7;
 5286              		.loc 1 752 0
 5287 209c 20309FE5 		ldr	r3, .L157
 5288 20a0 0720A0E3 		mov	r2, #7
 5289 20a4 0420C3E5 		strb	r2, [r3, #4]
 5290 20a8 020000EA 		b	.L116
 5291              	.L155:
 708:../proyecto.c **** 						rtc_time_aux.mday =31;
 5292              		.loc 1 708 0
 5293 20ac 0000A0E1 		mov	r0, r0	@ nop
 5294 20b0 000000EA 		b	.L116
 5295              	.L156:
 5296 20b4 0000A0E1 		mov	r0, r0	@ nop
 5297              	.L116:
 753:../proyecto.c **** 			}
 754:../proyecto.c **** 
 755:../proyecto.c **** 		}
 756:../proyecto.c **** 	}
 757:../proyecto.c **** 
 758:../proyecto.c **** }
 5298              		.loc 1 758 0
 5299 20b8 0CD04BE2 		sub	sp, fp, #12
 5300 20bc 00689DE8 		ldmfd	sp, {fp, sp, lr}
 5301 20c0 1EFF2FE1 		bx	lr
 5302              	.L158:
 5303              		.align	2
 5304              	.L157:
 5305 20c4 00000000 		.word	rtc_time_aux
 5306 20c8 1F85EB51 		.word	1374389535
 5307              		.cfi_endproc
 5308              	.LFE13:
 5310              		.align	2
 5311              		.global	cambiarDatosReloj
 5313              	cambiarDatosReloj:
 5314              	.LFB14:
 759:../proyecto.c **** void cambiarDatosReloj(uint8 seleccionado, boolean fecha){
 5315              		.loc 1 759 0
 5316              		.cfi_startproc
 5317              		@ Function supports interworking.
 5318              		@ args = 0, pretend = 0, frame = 16
 5319              		@ frame_needed = 1, uses_anonymous_args = 0
 5320 20cc 0DC0A0E1 		mov	ip, sp
 5321              	.LCFI28:
 5322              		.cfi_def_cfa_register 12
 5323 20d0 00D82DE9 		stmfd	sp!, {fp, ip, lr, pc}
 5324 20d4 04B04CE2 		sub	fp, ip, #4
 5325              		.cfi_offset 14, -8
 5326              		.cfi_offset 13, -12
 5327              		.cfi_offset 11, -16
 5328              	.LCFI29:
 5329              		.cfi_def_cfa 11, 4
 5330 20d8 10D04DE2 		sub	sp, sp, #16
 5331 20dc 0020A0E1 		mov	r2, r0
 5332 20e0 0130A0E1 		mov	r3, r1
 5333 20e4 15204BE5 		strb	r2, [fp, #-21]
 5334 20e8 16304BE5 		strb	r3, [fp, #-22]
 760:../proyecto.c **** 	//seleccionado valores (1-3) siendo 1 hora, 2 minutos, 3 segundos
 761:../proyecto.c **** 	//El metodo que voy a usar es que mientras el usuario pulse los cuadrados de + y - no salga de est
 762:../proyecto.c **** 	boolean salir = FALSE;
 5335              		.loc 1 762 0
 5336 20ec 0030A0E3 		mov	r3, #0
 5337 20f0 0D304BE5 		strb	r3, [fp, #-13]
 763:../proyecto.c **** 	boolean pulsado = FALSE;
 5338              		.loc 1 763 0
 5339 20f4 0030A0E3 		mov	r3, #0
 5340 20f8 0E304BE5 		strb	r3, [fp, #-14]
 764:../proyecto.c **** 
 765:../proyecto.c **** 	uint8 modo=1; //modo (1-2) siendo 1 la suma y 2 la resta
 5341              		.loc 1 765 0
 5342 20fc 0130A0E3 		mov	r3, #1
 5343 2100 0F304BE5 		strb	r3, [fp, #-15]
 766:../proyecto.c **** 	uint16 x, y;
 767:../proyecto.c **** 
 768:../proyecto.c **** 	while(!salir){
 5344              		.loc 1 768 0
 5345 2104 690000EA 		b	.L160
 5346              	.L172:
 769:../proyecto.c **** 		if(ts_pressed()){
 5347              		.loc 1 769 0
 5348 2108 FEFFFFEB 		bl	ts_pressed
 5349 210c 0030A0E1 		mov	r3, r0
 5350 2110 000053E3 		cmp	r3, #0
 5351 2114 0600000A 		beq	.L161
 770:../proyecto.c **** 			ts_getpos(&x,&y);
 5352              		.loc 1 770 0
 5353 2118 12204BE2 		sub	r2, fp, #18
 5354 211c 14304BE2 		sub	r3, fp, #20
 5355 2120 0200A0E1 		mov	r0, r2
 5356 2124 0310A0E1 		mov	r1, r3
 5357 2128 FEFFFFEB 		bl	ts_getpos
 771:../proyecto.c **** 			pulsado = TRUE; //Uso la variable pulsado porque no quiero parar la ejecucion del sistema para q
 5358              		.loc 1 771 0
 5359 212c 0130A0E3 		mov	r3, #1
 5360 2130 0E304BE5 		strb	r3, [fp, #-14]
 5361              	.L161:
 772:../proyecto.c **** 		}
 773:../proyecto.c **** 
 774:../proyecto.c **** 		if( x>210 && y>109 && x<246 && y<150 )
 5362              		.loc 1 774 0
 5363 2134 B2315BE1 		ldrh	r3, [fp, #-18]
 5364 2138 D20053E3 		cmp	r3, #210
 5365 213c 2900009A 		bls	.L162
 5366              		.loc 1 774 0 is_stmt 0 discriminator 1
 5367 2140 B4315BE1 		ldrh	r3, [fp, #-20]
 5368 2144 6D0053E3 		cmp	r3, #109
 5369 2148 2600009A 		bls	.L162
 5370 214c B2315BE1 		ldrh	r3, [fp, #-18]
 5371 2150 F50053E3 		cmp	r3, #245
 5372 2154 2300008A 		bhi	.L162
 5373 2158 B4315BE1 		ldrh	r3, [fp, #-20]
 5374 215c 950053E3 		cmp	r3, #149
 5375 2160 2000008A 		bhi	.L162
 775:../proyecto.c **** 			{
 776:../proyecto.c **** 			//Boton mas
 777:../proyecto.c **** 			x=0;
 5376              		.loc 1 777 0 is_stmt 1
 5377 2164 0030A0E3 		mov	r3, #0
 5378 2168 B2314BE1 		strh	r3, [fp, #-18]	@ movhi
 778:../proyecto.c **** 			y = 0;
 5379              		.loc 1 778 0
 5380 216c 0030A0E3 		mov	r3, #0
 5381 2170 B4314BE1 		strh	r3, [fp, #-20]	@ movhi
 779:../proyecto.c **** 			modo =1;
 5382              		.loc 1 779 0
 5383 2174 0130A0E3 		mov	r3, #1
 5384 2178 0F304BE5 		strb	r3, [fp, #-15]
 780:../proyecto.c **** 			if(!fecha){
 5385              		.loc 1 780 0
 5386 217c 16305BE5 		ldrb	r3, [fp, #-22]	@ zero_extendqisi2
 5387 2180 000053E3 		cmp	r3, #0
 5388 2184 0500001A 		bne	.L163
 781:../proyecto.c **** 				operacionCambioHora(modo,seleccionado);
 5389              		.loc 1 781 0
 5390 2188 0F205BE5 		ldrb	r2, [fp, #-15]	@ zero_extendqisi2
 5391 218c 15305BE5 		ldrb	r3, [fp, #-21]	@ zero_extendqisi2
 5392 2190 0200A0E1 		mov	r0, r2
 5393 2194 0310A0E1 		mov	r1, r3
 5394 2198 FEFFFFEB 		bl	operacionCambioHora
 5395 219c 040000EA 		b	.L164
 5396              	.L163:
 782:../proyecto.c **** 			}else{
 783:../proyecto.c **** 				operacionCambioFecha(modo,seleccionado);
 5397              		.loc 1 783 0
 5398 21a0 0F205BE5 		ldrb	r2, [fp, #-15]	@ zero_extendqisi2
 5399 21a4 15305BE5 		ldrb	r3, [fp, #-21]	@ zero_extendqisi2
 5400 21a8 0200A0E1 		mov	r0, r2
 5401 21ac 0310A0E1 		mov	r1, r3
 5402 21b0 FEFFFFEB 		bl	operacionCambioFecha
 5403              	.L164:
 784:../proyecto.c **** 			}
 785:../proyecto.c **** 
 786:../proyecto.c **** 
 787:../proyecto.c **** 			//Actualizamos y mostramos la nueva hora
 788:../proyecto.c **** 			rtc_puttime(&rtc_time_aux);
 5404              		.loc 1 788 0
 5405 21b4 0C019FE5 		ldr	r0, .L173
 5406 21b8 FEFFFFEB 		bl	rtc_puttime
 789:../proyecto.c **** 			if(!fecha){
 5407              		.loc 1 789 0
 5408 21bc 16305BE5 		ldrb	r3, [fp, #-22]	@ zero_extendqisi2
 5409 21c0 000053E3 		cmp	r3, #0
 5410 21c4 0200001A 		bne	.L165
 790:../proyecto.c **** 				mostrarRelojAux(&rtc_time_aux);
 5411              		.loc 1 790 0
 5412 21c8 F8009FE5 		ldr	r0, .L173
 5413 21cc FEFFFFEB 		bl	mostrarRelojAux
 5414 21d0 010000EA 		b	.L166
 5415              	.L165:
 791:../proyecto.c **** 			}else{
 792:../proyecto.c **** 				mostrarFecha(&rtc_time_aux);
 5416              		.loc 1 792 0
 5417 21d4 EC009FE5 		ldr	r0, .L173
 5418 21d8 FEFFFFEB 		bl	mostrarFecha
 5419              	.L166:
 793:../proyecto.c **** 			}
 794:../proyecto.c **** 
 795:../proyecto.c **** 			pulsado = FALSE;
 5420              		.loc 1 795 0
 5421 21dc 0030A0E3 		mov	r3, #0
 5422 21e0 0E304BE5 		strb	r3, [fp, #-14]
 5423 21e4 310000EA 		b	.L160
 5424              	.L162:
 796:../proyecto.c **** 
 797:../proyecto.c **** 			}else if( x>210 && y>165 && x<246 && y<204)
 5425              		.loc 1 797 0
 5426 21e8 B2315BE1 		ldrh	r3, [fp, #-18]
 5427 21ec D20053E3 		cmp	r3, #210
 5428 21f0 2900009A 		bls	.L167
 5429              		.loc 1 797 0 is_stmt 0 discriminator 1
 5430 21f4 B4315BE1 		ldrh	r3, [fp, #-20]
 5431 21f8 A50053E3 		cmp	r3, #165
 5432 21fc 2600009A 		bls	.L167
 5433 2200 B2315BE1 		ldrh	r3, [fp, #-18]
 5434 2204 F50053E3 		cmp	r3, #245
 5435 2208 2300008A 		bhi	.L167
 5436 220c B4315BE1 		ldrh	r3, [fp, #-20]
 5437 2210 CB0053E3 		cmp	r3, #203
 5438 2214 2000008A 		bhi	.L167
 798:../proyecto.c **** 			{
 799:../proyecto.c **** 			//Boton menos
 800:../proyecto.c **** 			x=0;
 5439              		.loc 1 800 0 is_stmt 1
 5440 2218 0030A0E3 		mov	r3, #0
 5441 221c B2314BE1 		strh	r3, [fp, #-18]	@ movhi
 801:../proyecto.c **** 			y = 0;
 5442              		.loc 1 801 0
 5443 2220 0030A0E3 		mov	r3, #0
 5444 2224 B4314BE1 		strh	r3, [fp, #-20]	@ movhi
 802:../proyecto.c **** 			modo =2;
 5445              		.loc 1 802 0
 5446 2228 0230A0E3 		mov	r3, #2
 5447 222c 0F304BE5 		strb	r3, [fp, #-15]
 803:../proyecto.c **** 			if(!fecha){
 5448              		.loc 1 803 0
 5449 2230 16305BE5 		ldrb	r3, [fp, #-22]	@ zero_extendqisi2
 5450 2234 000053E3 		cmp	r3, #0
 5451 2238 0500001A 		bne	.L168
 804:../proyecto.c **** 				operacionCambioHora(modo,seleccionado);
 5452              		.loc 1 804 0
 5453 223c 0F205BE5 		ldrb	r2, [fp, #-15]	@ zero_extendqisi2
 5454 2240 15305BE5 		ldrb	r3, [fp, #-21]	@ zero_extendqisi2
 5455 2244 0200A0E1 		mov	r0, r2
 5456 2248 0310A0E1 		mov	r1, r3
 5457 224c FEFFFFEB 		bl	operacionCambioHora
 5458 2250 040000EA 		b	.L169
 5459              	.L168:
 805:../proyecto.c **** 			}else{
 806:../proyecto.c **** 				operacionCambioFecha(modo,seleccionado);
 5460              		.loc 1 806 0
 5461 2254 0F205BE5 		ldrb	r2, [fp, #-15]	@ zero_extendqisi2
 5462 2258 15305BE5 		ldrb	r3, [fp, #-21]	@ zero_extendqisi2
 5463 225c 0200A0E1 		mov	r0, r2
 5464 2260 0310A0E1 		mov	r1, r3
 5465 2264 FEFFFFEB 		bl	operacionCambioFecha
 5466              	.L169:
 807:../proyecto.c **** 			}
 808:../proyecto.c **** 
 809:../proyecto.c **** 			//Actualizamos el reloj del sistema y mostramos la nueva hora
 810:../proyecto.c **** 			rtc_puttime(&rtc_time_aux);
 5467              		.loc 1 810 0
 5468 2268 58009FE5 		ldr	r0, .L173
 5469 226c FEFFFFEB 		bl	rtc_puttime
 811:../proyecto.c **** 			if(!fecha){
 5470              		.loc 1 811 0
 5471 2270 16305BE5 		ldrb	r3, [fp, #-22]	@ zero_extendqisi2
 5472 2274 000053E3 		cmp	r3, #0
 5473 2278 0200001A 		bne	.L170
 812:../proyecto.c **** 				mostrarRelojAux(&rtc_time_aux);
 5474              		.loc 1 812 0
 5475 227c 44009FE5 		ldr	r0, .L173
 5476 2280 FEFFFFEB 		bl	mostrarRelojAux
 5477 2284 010000EA 		b	.L171
 5478              	.L170:
 813:../proyecto.c **** 			}else{
 814:../proyecto.c **** 				mostrarFecha(&rtc_time_aux);
 5479              		.loc 1 814 0
 5480 2288 38009FE5 		ldr	r0, .L173
 5481 228c FEFFFFEB 		bl	mostrarFecha
 5482              	.L171:
 815:../proyecto.c **** 			}
 816:../proyecto.c **** 
 817:../proyecto.c **** 			pulsado = FALSE;
 5483              		.loc 1 817 0
 5484 2290 0030A0E3 		mov	r3, #0
 5485 2294 0E304BE5 		strb	r3, [fp, #-14]
 5486 2298 040000EA 		b	.L160
 5487              	.L167:
 818:../proyecto.c **** 
 819:../proyecto.c **** 			}
 820:../proyecto.c **** 		else{
 821:../proyecto.c **** 			if(pulsado){ //Si ha pulsado fuera de los botones + y - se sale y vuelve a modoCambiarHora()
 5488              		.loc 1 821 0
 5489 229c 0E305BE5 		ldrb	r3, [fp, #-14]	@ zero_extendqisi2
 5490 22a0 000053E3 		cmp	r3, #0
 5491 22a4 0100000A 		beq	.L160
 822:../proyecto.c **** 				salir = TRUE;
 5492              		.loc 1 822 0
 5493 22a8 0130A0E3 		mov	r3, #1
 5494 22ac 0D304BE5 		strb	r3, [fp, #-13]
 5495              	.L160:
 768:../proyecto.c **** 	while(!salir){
 5496              		.loc 1 768 0 discriminator 1
 5497 22b0 0D305BE5 		ldrb	r3, [fp, #-13]	@ zero_extendqisi2
 5498 22b4 000053E3 		cmp	r3, #0
 5499 22b8 92FFFF0A 		beq	.L172
 823:../proyecto.c **** 			}
 824:../proyecto.c **** 		}
 825:../proyecto.c **** 	}
 826:../proyecto.c **** 
 827:../proyecto.c **** 	//Actualizamos el tiempo del sistema
 828:../proyecto.c **** 
 829:../proyecto.c **** }
 5500              		.loc 1 829 0
 5501 22bc 0CD04BE2 		sub	sp, fp, #12
 5502 22c0 00689DE8 		ldmfd	sp, {fp, sp, lr}
 5503 22c4 1EFF2FE1 		bx	lr
 5504              	.L174:
 5505              		.align	2
 5506              	.L173:
 5507 22c8 00000000 		.word	rtc_time_aux
 5508              		.cfi_endproc
 5509              	.LFE14:
 5511              		.section	.rodata
 5512 0123 00       		.align	2
 5513              	.LC32:
 5514 0124 43616D62 		.ascii	"Cambiar minutos\000"
 5514      69617220 
 5514      6D696E75 
 5514      746F7300 
 5515              		.align	2
 5516              	.LC33:
 5517 0134 43616D62 		.ascii	"Cambiar segundos\000"
 5517      69617220 
 5517      73656775 
 5517      6E646F73 
 5517      00
 5518 0145 000000   		.align	2
 5519              	.LC34:
 5520 0148 2B00     		.ascii	"+\000"
 5521 014a 0000     		.align	2
 5522              	.LC35:
 5523 014c 2D00     		.ascii	"-\000"
 5524 014e 0000     		.align	2
 5525              	.LC36:
 5526 0150 43616D62 		.ascii	"Cambiando hora\000"
 5526      69616E64 
 5526      6F20686F 
 5526      726100
 5527 015f 00       		.align	2
 5528              	.LC37:
 5529 0160 20202020 		.ascii	"              \000"
 5529      20202020 
 5529      20202020 
 5529      202000
 5530 016f 00       		.align	2
 5531              	.LC38:
 5532 0170 43616D62 		.ascii	"Cambiando minutos\000"
 5532      69616E64 
 5532      6F206D69 
 5532      6E75746F 
 5532      7300
 5533 0182 0000     		.align	2
 5534              	.LC39:
 5535 0184 20202020 		.ascii	"                 \000"
 5535      20202020 
 5535      20202020 
 5535      20202020 
 5535      2000
 5536 0196 0000     		.align	2
 5537              	.LC40:
 5538 0198 43616D62 		.ascii	"Cambiando segs\000"
 5538      69616E64 
 5538      6F207365 
 5538      677300
 5539              		.text
 5540              		.align	2
 5541              		.global	modoCambiarHora
 5543              	modoCambiarHora:
 5544              	.LFB15:
 830:../proyecto.c **** 
 831:../proyecto.c **** //----Funciones principales de los modos cambio fecha y hora----//
 832:../proyecto.c **** void modoCambiarHora( void ){
 5545              		.loc 1 832 0
 5546              		.cfi_startproc
 5547              		@ Function supports interworking.
 5548              		@ args = 0, pretend = 0, frame = 8
 5549              		@ frame_needed = 1, uses_anonymous_args = 0
 5550 22cc 0DC0A0E1 		mov	ip, sp
 5551              	.LCFI30:
 5552              		.cfi_def_cfa_register 12
 5553 22d0 00D82DE9 		stmfd	sp!, {fp, ip, lr, pc}
 5554 22d4 04B04CE2 		sub	fp, ip, #4
 5555              		.cfi_offset 14, -8
 5556              		.cfi_offset 13, -12
 5557              		.cfi_offset 11, -16
 5558              	.LCFI31:
 5559              		.cfi_def_cfa 11, 4
 5560 22d8 10D04DE2 		sub	sp, sp, #16
 833:../proyecto.c **** 	boolean volverMenuPrincipal = FALSE;
 5561              		.loc 1 833 0
 5562 22dc 0030A0E3 		mov	r3, #0
 5563 22e0 0D304BE5 		strb	r3, [fp, #-13]
 834:../proyecto.c **** 	boolean pintadoInicial = TRUE;
 5564              		.loc 1 834 0
 5565 22e4 0130A0E3 		mov	r3, #1
 5566 22e8 0E304BE5 		strb	r3, [fp, #-14]
 835:../proyecto.c **** 
 836:../proyecto.c **** 	rtc_gettime( &rtc_time_aux ); //Guardamos el tiempo con la que hemos entrado a la opcion
 5567              		.loc 1 836 0
 5568 22ec 98039FE5 		ldr	r0, .L183
 5569 22f0 FEFFFFEB 		bl	rtc_gettime
 837:../proyecto.c **** 
 838:../proyecto.c **** 	uint16 x, y;
 839:../proyecto.c **** 
 840:../proyecto.c **** 	//Limpiamos el menu principal
 841:../proyecto.c **** 	lcd_clear();
 5570              		.loc 1 841 0
 5571 22f4 FEFFFFEB 		bl	lcd_clear
 842:../proyecto.c **** 	lcd_draw_box( 10, 10, 310, 230, BLACK, 5 );
 5572              		.loc 1 842 0
 5573 22f8 0F30A0E3 		mov	r3, #15
 5574 22fc 00308DE5 		str	r3, [sp, #0]
 5575 2300 0530A0E3 		mov	r3, #5
 5576 2304 04308DE5 		str	r3, [sp, #4]
 5577 2308 0A00A0E3 		mov	r0, #10
 5578 230c 0A10A0E3 		mov	r1, #10
 5579 2310 78239FE5 		ldr	r2, .L183+4
 5580 2314 E630A0E3 		mov	r3, #230
 5581 2318 FEFFFFEB 		bl	lcd_draw_box
 843:../proyecto.c **** 
 844:../proyecto.c **** 	while(!volverMenuPrincipal){
 5582              		.loc 1 844 0
 5583 231c D00000EA 		b	.L176
 5584              	.L182:
 845:../proyecto.c **** 
 846:../proyecto.c **** 		//Aqui pintamos las cosas que no se actualizan
 847:../proyecto.c **** 		if(pintadoInicial){
 5585              		.loc 1 847 0
 5586 2320 0E305BE5 		ldrb	r3, [fp, #-14]	@ zero_extendqisi2
 5587 2324 000053E3 		cmp	r3, #0
 5588 2328 5700000A 		beq	.L177
 848:../proyecto.c **** 
 849:../proyecto.c **** 			//Mostrar opcion cambiar fecha
 850:../proyecto.c **** 			lcd_draw_box(170, 12, 310, 40, BLACK, 3);
 5589              		.loc 1 850 0
 5590 232c 0F30A0E3 		mov	r3, #15
 5591 2330 00308DE5 		str	r3, [sp, #0]
 5592 2334 0330A0E3 		mov	r3, #3
 5593 2338 04308DE5 		str	r3, [sp, #4]
 5594 233c AA00A0E3 		mov	r0, #170
 5595 2340 0C10A0E3 		mov	r1, #12
 5596 2344 44239FE5 		ldr	r2, .L183+4
 5597 2348 2830A0E3 		mov	r3, #40
 5598 234c FEFFFFEB 		bl	lcd_draw_box
 851:../proyecto.c **** 			lcd_puts(180, 20, BLACK, "Menu principal");
 5599              		.loc 1 851 0
 5600 2350 B400A0E3 		mov	r0, #180
 5601 2354 1410A0E3 		mov	r1, #20
 5602 2358 0F20A0E3 		mov	r2, #15
 5603 235c 30339FE5 		ldr	r3, .L183+8
 5604 2360 FEFFFFEB 		bl	lcd_puts
 852:../proyecto.c **** 
 853:../proyecto.c **** 			//Mostrar opcion cambiar hora
 854:../proyecto.c **** 			lcd_draw_box(30, 115, 170, 140, BLACK, 3);
 5605              		.loc 1 854 0
 5606 2364 0F30A0E3 		mov	r3, #15
 5607 2368 00308DE5 		str	r3, [sp, #0]
 5608 236c 0330A0E3 		mov	r3, #3
 5609 2370 04308DE5 		str	r3, [sp, #4]
 5610 2374 1E00A0E3 		mov	r0, #30
 5611 2378 7310A0E3 		mov	r1, #115
 5612 237c AA20A0E3 		mov	r2, #170
 5613 2380 8C30A0E3 		mov	r3, #140
 5614 2384 FEFFFFEB 		bl	lcd_draw_box
 855:../proyecto.c **** 			lcd_puts(40, 120, BLACK, "Cambiar hora");
 5615              		.loc 1 855 0
 5616 2388 2800A0E3 		mov	r0, #40
 5617 238c 7810A0E3 		mov	r1, #120
 5618 2390 0F20A0E3 		mov	r2, #15
 5619 2394 FC329FE5 		ldr	r3, .L183+12
 5620 2398 FEFFFFEB 		bl	lcd_puts
 856:../proyecto.c **** 
 857:../proyecto.c **** 			//Mostrar opcion cambiar minutos
 858:../proyecto.c **** 			lcd_draw_box(30, 145, 170, 170, BLACK, 3);
 5621              		.loc 1 858 0
 5622 239c 0F30A0E3 		mov	r3, #15
 5623 23a0 00308DE5 		str	r3, [sp, #0]
 5624 23a4 0330A0E3 		mov	r3, #3
 5625 23a8 04308DE5 		str	r3, [sp, #4]
 5626 23ac 1E00A0E3 		mov	r0, #30
 5627 23b0 9110A0E3 		mov	r1, #145
 5628 23b4 AA20A0E3 		mov	r2, #170
 5629 23b8 AA30A0E3 		mov	r3, #170
 5630 23bc FEFFFFEB 		bl	lcd_draw_box
 859:../proyecto.c **** 			lcd_puts(40, 150, BLACK, "Cambiar minutos");
 5631              		.loc 1 859 0
 5632 23c0 2800A0E3 		mov	r0, #40
 5633 23c4 9610A0E3 		mov	r1, #150
 5634 23c8 0F20A0E3 		mov	r2, #15
 5635 23cc C8329FE5 		ldr	r3, .L183+16
 5636 23d0 FEFFFFEB 		bl	lcd_puts
 860:../proyecto.c **** 
 861:../proyecto.c **** 			//Mostrar opcion contador segundos
 862:../proyecto.c **** 			lcd_draw_box(30, 175, 170, 200, BLACK, 3);
 5637              		.loc 1 862 0
 5638 23d4 0F30A0E3 		mov	r3, #15
 5639 23d8 00308DE5 		str	r3, [sp, #0]
 5640 23dc 0330A0E3 		mov	r3, #3
 5641 23e0 04308DE5 		str	r3, [sp, #4]
 5642 23e4 1E00A0E3 		mov	r0, #30
 5643 23e8 AF10A0E3 		mov	r1, #175
 5644 23ec AA20A0E3 		mov	r2, #170
 5645 23f0 C830A0E3 		mov	r3, #200
 5646 23f4 FEFFFFEB 		bl	lcd_draw_box
 863:../proyecto.c **** 			lcd_puts(40, 180, BLACK, "Cambiar segundos");
 5647              		.loc 1 863 0
 5648 23f8 2800A0E3 		mov	r0, #40
 5649 23fc B410A0E3 		mov	r1, #180
 5650 2400 0F20A0E3 		mov	r2, #15
 5651 2404 94329FE5 		ldr	r3, .L183+20
 5652 2408 FEFFFFEB 		bl	lcd_puts
 864:../proyecto.c **** 
 865:../proyecto.c **** 			// Boton +
 866:../proyecto.c **** 			lcd_draw_box(210, 109, 246, 150, BLACK, 3);
 5653              		.loc 1 866 0
 5654 240c 0F30A0E3 		mov	r3, #15
 5655 2410 00308DE5 		str	r3, [sp, #0]
 5656 2414 0330A0E3 		mov	r3, #3
 5657 2418 04308DE5 		str	r3, [sp, #4]
 5658 241c D200A0E3 		mov	r0, #210
 5659 2420 6D10A0E3 		mov	r1, #109
 5660 2424 F620A0E3 		mov	r2, #246
 5661 2428 9630A0E3 		mov	r3, #150
 5662 242c FEFFFFEB 		bl	lcd_draw_box
 867:../proyecto.c **** 			lcd_puts_x2(220, 115, BLACK, "+");
 5663              		.loc 1 867 0
 5664 2430 DC00A0E3 		mov	r0, #220
 5665 2434 7310A0E3 		mov	r1, #115
 5666 2438 0F20A0E3 		mov	r2, #15
 5667 243c 60329FE5 		ldr	r3, .L183+24
 5668 2440 FEFFFFEB 		bl	lcd_puts_x2
 868:../proyecto.c **** 
 869:../proyecto.c **** 			// Boton -
 870:../proyecto.c **** 			lcd_draw_box(210, 165, 246, 204, BLACK, 3);
 5669              		.loc 1 870 0
 5670 2444 0F30A0E3 		mov	r3, #15
 5671 2448 00308DE5 		str	r3, [sp, #0]
 5672 244c 0330A0E3 		mov	r3, #3
 5673 2450 04308DE5 		str	r3, [sp, #4]
 5674 2454 D200A0E3 		mov	r0, #210
 5675 2458 A510A0E3 		mov	r1, #165
 5676 245c F620A0E3 		mov	r2, #246
 5677 2460 CC30A0E3 		mov	r3, #204
 5678 2464 FEFFFFEB 		bl	lcd_draw_box
 871:../proyecto.c **** 			lcd_puts_x2(221, 169, BLACK, "-");
 5679              		.loc 1 871 0
 5680 2468 DD00A0E3 		mov	r0, #221
 5681 246c A910A0E3 		mov	r1, #169
 5682 2470 0F20A0E3 		mov	r2, #15
 5683 2474 2C329FE5 		ldr	r3, .L183+28
 5684 2478 FEFFFFEB 		bl	lcd_puts_x2
 872:../proyecto.c **** 
 873:../proyecto.c **** 			//Pintamos el reloj inicial
 874:../proyecto.c **** 			mostrarRelojAux(&rtc_time_aux);
 5685              		.loc 1 874 0
 5686 247c 08029FE5 		ldr	r0, .L183
 5687 2480 FEFFFFEB 		bl	mostrarRelojAux
 875:../proyecto.c **** 
 876:../proyecto.c **** 			pintadoInicial = FALSE;
 5688              		.loc 1 876 0
 5689 2484 0030A0E3 		mov	r3, #0
 5690 2488 0E304BE5 		strb	r3, [fp, #-14]
 5691              	.L177:
 877:../proyecto.c **** 		}
 878:../proyecto.c **** 
 879:../proyecto.c **** 
 880:../proyecto.c **** 		//Para que no se quede el programa congelado esperando que el usuario presione la pantalla
 881:../proyecto.c **** 		if(ts_pressed()){
 5692              		.loc 1 881 0
 5693 248c FEFFFFEB 		bl	ts_pressed
 5694 2490 0030A0E1 		mov	r3, r0
 5695 2494 000053E3 		cmp	r3, #0
 5696 2498 0400000A 		beq	.L178
 882:../proyecto.c **** 			ts_getpos(&x,&y);
 5697              		.loc 1 882 0
 5698 249c 10204BE2 		sub	r2, fp, #16
 5699 24a0 12304BE2 		sub	r3, fp, #18
 5700 24a4 0200A0E1 		mov	r0, r2
 5701 24a8 0310A0E1 		mov	r1, r3
 5702 24ac FEFFFFEB 		bl	ts_getpos
 5703              	.L178:
 883:../proyecto.c **** 		}
 884:../proyecto.c **** 
 885:../proyecto.c **** 		if( x>30 && y>115 && x<170 && y<140 )
 5704              		.loc 1 885 0
 5705 24b0 B0315BE1 		ldrh	r3, [fp, #-16]
 5706 24b4 1E0053E3 		cmp	r3, #30
 5707 24b8 1A00009A 		bls	.L179
 5708              		.loc 1 885 0 is_stmt 0 discriminator 1
 5709 24bc B2315BE1 		ldrh	r3, [fp, #-18]
 5710 24c0 730053E3 		cmp	r3, #115
 5711 24c4 1700009A 		bls	.L179
 5712 24c8 B0315BE1 		ldrh	r3, [fp, #-16]
 5713 24cc A90053E3 		cmp	r3, #169
 5714 24d0 1400008A 		bhi	.L179
 5715 24d4 B2315BE1 		ldrh	r3, [fp, #-18]
 5716 24d8 8B0053E3 		cmp	r3, #139
 5717 24dc 1100008A 		bhi	.L179
 886:../proyecto.c **** 			{
 887:../proyecto.c **** 			//CambiarHora
 888:../proyecto.c **** 				x=0;
 5718              		.loc 1 888 0 is_stmt 1
 5719 24e0 0030A0E3 		mov	r3, #0
 5720 24e4 B0314BE1 		strh	r3, [fp, #-16]	@ movhi
 889:../proyecto.c **** 				y = 0;
 5721              		.loc 1 889 0
 5722 24e8 0030A0E3 		mov	r3, #0
 5723 24ec B2314BE1 		strh	r3, [fp, #-18]	@ movhi
 890:../proyecto.c **** 				lcd_puts( 30, 30, BLACK,"Cambiando hora" );
 5724              		.loc 1 890 0
 5725 24f0 1E00A0E3 		mov	r0, #30
 5726 24f4 1E10A0E3 		mov	r1, #30
 5727 24f8 0F20A0E3 		mov	r2, #15
 5728 24fc A8319FE5 		ldr	r3, .L183+32
 5729 2500 FEFFFFEB 		bl	lcd_puts
 891:../proyecto.c **** 				cambiarDatosReloj(1,FALSE);
 5730              		.loc 1 891 0
 5731 2504 0100A0E3 		mov	r0, #1
 5732 2508 0010A0E3 		mov	r1, #0
 5733 250c FEFFFFEB 		bl	cambiarDatosReloj
 892:../proyecto.c **** 				lcd_puts( 30, 30, BLACK,"              " );
 5734              		.loc 1 892 0
 5735 2510 1E00A0E3 		mov	r0, #30
 5736 2514 1E10A0E3 		mov	r1, #30
 5737 2518 0F20A0E3 		mov	r2, #15
 5738 251c 8C319FE5 		ldr	r3, .L183+36
 5739 2520 FEFFFFEB 		bl	lcd_puts
 5740 2524 4E0000EA 		b	.L176
 5741              	.L179:
 893:../proyecto.c **** 			}
 894:../proyecto.c **** 		else if( x>30 && y>145 && x<170 && y<170 )
 5742              		.loc 1 894 0
 5743 2528 B0315BE1 		ldrh	r3, [fp, #-16]
 5744 252c 1E0053E3 		cmp	r3, #30
 5745 2530 1A00009A 		bls	.L180
 5746              		.loc 1 894 0 is_stmt 0 discriminator 1
 5747 2534 B2315BE1 		ldrh	r3, [fp, #-18]
 5748 2538 910053E3 		cmp	r3, #145
 5749 253c 1700009A 		bls	.L180
 5750 2540 B0315BE1 		ldrh	r3, [fp, #-16]
 5751 2544 A90053E3 		cmp	r3, #169
 5752 2548 1400008A 		bhi	.L180
 5753 254c B2315BE1 		ldrh	r3, [fp, #-18]
 5754 2550 A90053E3 		cmp	r3, #169
 5755 2554 1100008A 		bhi	.L180
 895:../proyecto.c **** 			{
 896:../proyecto.c **** 			//CambiarMinutos
 897:../proyecto.c **** 				x=0;
 5756              		.loc 1 897 0 is_stmt 1
 5757 2558 0030A0E3 		mov	r3, #0
 5758 255c B0314BE1 		strh	r3, [fp, #-16]	@ movhi
 898:../proyecto.c **** 				y = 0;
 5759              		.loc 1 898 0
 5760 2560 0030A0E3 		mov	r3, #0
 5761 2564 B2314BE1 		strh	r3, [fp, #-18]	@ movhi
 899:../proyecto.c **** 				lcd_puts( 30, 30, BLACK,"Cambiando minutos" );
 5762              		.loc 1 899 0
 5763 2568 1E00A0E3 		mov	r0, #30
 5764 256c 1E10A0E3 		mov	r1, #30
 5765 2570 0F20A0E3 		mov	r2, #15
 5766 2574 38319FE5 		ldr	r3, .L183+40
 5767 2578 FEFFFFEB 		bl	lcd_puts
 900:../proyecto.c **** 				cambiarDatosReloj(2,FALSE);
 5768              		.loc 1 900 0
 5769 257c 0200A0E3 		mov	r0, #2
 5770 2580 0010A0E3 		mov	r1, #0
 5771 2584 FEFFFFEB 		bl	cambiarDatosReloj
 901:../proyecto.c **** 				lcd_puts( 30, 30, BLACK,"                 " );
 5772              		.loc 1 901 0
 5773 2588 1E00A0E3 		mov	r0, #30
 5774 258c 1E10A0E3 		mov	r1, #30
 5775 2590 0F20A0E3 		mov	r2, #15
 5776 2594 1C319FE5 		ldr	r3, .L183+44
 5777 2598 FEFFFFEB 		bl	lcd_puts
 5778 259c 300000EA 		b	.L176
 5779              	.L180:
 902:../proyecto.c **** 
 903:../proyecto.c **** 			}
 904:../proyecto.c **** 		else if( x>30 && y>175 && x<170 && y<200 )
 5780              		.loc 1 904 0
 5781 25a0 B0315BE1 		ldrh	r3, [fp, #-16]
 5782 25a4 1E0053E3 		cmp	r3, #30
 5783 25a8 1A00009A 		bls	.L181
 5784              		.loc 1 904 0 is_stmt 0 discriminator 1
 5785 25ac B2315BE1 		ldrh	r3, [fp, #-18]
 5786 25b0 AF0053E3 		cmp	r3, #175
 5787 25b4 1700009A 		bls	.L181
 5788 25b8 B0315BE1 		ldrh	r3, [fp, #-16]
 5789 25bc A90053E3 		cmp	r3, #169
 5790 25c0 1400008A 		bhi	.L181
 5791 25c4 B2315BE1 		ldrh	r3, [fp, #-18]
 5792 25c8 C70053E3 		cmp	r3, #199
 5793 25cc 1100008A 		bhi	.L181
 905:../proyecto.c **** 			{
 906:../proyecto.c **** 			//CambiarSegundos
 907:../proyecto.c **** 				x=0;
 5794              		.loc 1 907 0 is_stmt 1
 5795 25d0 0030A0E3 		mov	r3, #0
 5796 25d4 B0314BE1 		strh	r3, [fp, #-16]	@ movhi
 908:../proyecto.c **** 				y = 0;
 5797              		.loc 1 908 0
 5798 25d8 0030A0E3 		mov	r3, #0
 5799 25dc B2314BE1 		strh	r3, [fp, #-18]	@ movhi
 909:../proyecto.c **** 				lcd_puts( 30, 30, BLACK,"Cambiando segs" );
 5800              		.loc 1 909 0
 5801 25e0 1E00A0E3 		mov	r0, #30
 5802 25e4 1E10A0E3 		mov	r1, #30
 5803 25e8 0F20A0E3 		mov	r2, #15
 5804 25ec C8309FE5 		ldr	r3, .L183+48
 5805 25f0 FEFFFFEB 		bl	lcd_puts
 910:../proyecto.c **** 				cambiarDatosReloj(3,FALSE);
 5806              		.loc 1 910 0
 5807 25f4 0300A0E3 		mov	r0, #3
 5808 25f8 0010A0E3 		mov	r1, #0
 5809 25fc FEFFFFEB 		bl	cambiarDatosReloj
 911:../proyecto.c **** 				lcd_puts( 30, 30, BLACK,"              " );
 5810              		.loc 1 911 0
 5811 2600 1E00A0E3 		mov	r0, #30
 5812 2604 1E10A0E3 		mov	r1, #30
 5813 2608 0F20A0E3 		mov	r2, #15
 5814 260c 9C309FE5 		ldr	r3, .L183+36
 5815 2610 FEFFFFEB 		bl	lcd_puts
 5816 2614 120000EA 		b	.L176
 5817              	.L181:
 912:../proyecto.c **** 			}
 913:../proyecto.c **** 		else if( x>170 && y>12 && x<310 && y<40 )
 5818              		.loc 1 913 0
 5819 2618 B0315BE1 		ldrh	r3, [fp, #-16]
 5820 261c AA0053E3 		cmp	r3, #170
 5821 2620 0F00009A 		bls	.L176
 5822              		.loc 1 913 0 is_stmt 0 discriminator 1
 5823 2624 B2315BE1 		ldrh	r3, [fp, #-18]
 5824 2628 0C0053E3 		cmp	r3, #12
 5825 262c 0C00009A 		bls	.L176
 5826 2630 B0215BE1 		ldrh	r2, [fp, #-16]
 5827 2634 84309FE5 		ldr	r3, .L183+52
 5828 2638 030052E1 		cmp	r2, r3
 5829 263c 0800008A 		bhi	.L176
 5830 2640 B2315BE1 		ldrh	r3, [fp, #-18]
 5831 2644 270053E3 		cmp	r3, #39
 5832 2648 0500008A 		bhi	.L176
 914:../proyecto.c **** 			{
 915:../proyecto.c **** 			//Volver menu principal
 916:../proyecto.c **** 				x=0;
 5833              		.loc 1 916 0 is_stmt 1
 5834 264c 0030A0E3 		mov	r3, #0
 5835 2650 B0314BE1 		strh	r3, [fp, #-16]	@ movhi
 917:../proyecto.c **** 				y = 0;
 5836              		.loc 1 917 0
 5837 2654 0030A0E3 		mov	r3, #0
 5838 2658 B2314BE1 		strh	r3, [fp, #-18]	@ movhi
 918:../proyecto.c **** 				volverMenuPrincipal = TRUE;
 5839              		.loc 1 918 0
 5840 265c 0130A0E3 		mov	r3, #1
 5841 2660 0D304BE5 		strb	r3, [fp, #-13]
 5842              	.L176:
 844:../proyecto.c **** 	while(!volverMenuPrincipal){
 5843              		.loc 1 844 0 discriminator 1
 5844 2664 0D305BE5 		ldrb	r3, [fp, #-13]	@ zero_extendqisi2
 5845 2668 000053E3 		cmp	r3, #0
 5846 266c 2BFFFF0A 		beq	.L182
 919:../proyecto.c **** 			}
 920:../proyecto.c **** 		}
 921:../proyecto.c **** 		pintarMenuPrincipal = TRUE;
 5847              		.loc 1 921 0
 5848 2670 4C309FE5 		ldr	r3, .L183+56
 5849 2674 0120A0E3 		mov	r2, #1
 5850 2678 0020C3E5 		strb	r2, [r3, #0]
 922:../proyecto.c **** 		lcd_clear();
 5851              		.loc 1 922 0
 5852 267c FEFFFFEB 		bl	lcd_clear
 923:../proyecto.c **** }
 5853              		.loc 1 923 0
 5854 2680 0CD04BE2 		sub	sp, fp, #12
 5855 2684 00689DE8 		ldmfd	sp, {fp, sp, lr}
 5856 2688 1EFF2FE1 		bx	lr
 5857              	.L184:
 5858              		.align	2
 5859              	.L183:
 5860 268c 00000000 		.word	rtc_time_aux
 5861 2690 36010000 		.word	310
 5862 2694 E4000000 		.word	.LC28
 5863 2698 A8000000 		.word	.LC24
 5864 269c 24010000 		.word	.LC32
 5865 26a0 34010000 		.word	.LC33
 5866 26a4 48010000 		.word	.LC34
 5867 26a8 4C010000 		.word	.LC35
 5868 26ac 50010000 		.word	.LC36
 5869 26b0 60010000 		.word	.LC37
 5870 26b4 70010000 		.word	.LC38
 5871 26b8 84010000 		.word	.LC39
 5872 26bc 98010000 		.word	.LC40
 5873 26c0 35010000 		.word	309
 5874 26c4 00000000 		.word	pintarMenuPrincipal
 5875              		.cfi_endproc
 5876              	.LFE15:
 5878              		.section	.rodata
 5879 01a7 00       		.align	2
 5880              	.LC41:
 5881 01a8 43616D62 		.ascii	"Cambiar dia\000"
 5881      69617220 
 5881      64696100 
 5882              		.align	2
 5883              	.LC42:
 5884 01b4 43616D62 		.ascii	"Cambiar mes\000"
 5884      69617220 
 5884      6D657300 
 5885              		.align	2
 5886              	.LC43:
 5887 01c0 43616D62 		.ascii	"Cambiar a\361o\000"
 5887      69617220 
 5887      61F16F00 
 5888              		.align	2
 5889              	.LC44:
 5890 01cc 43616D62 		.ascii	"Cambiando dia\000"
 5890      69616E64 
 5890      6F206469 
 5890      6100
 5891 01da 0000     		.align	2
 5892              	.LC45:
 5893 01dc 43616D62 		.ascii	"Cambiando mes\000"
 5893      69616E64 
 5893      6F206D65 
 5893      7300
 5894 01ea 0000     		.align	2
 5895              	.LC46:
 5896 01ec 43616D62 		.ascii	"Cambiando a\361o\000"
 5896      69616E64 
 5896      6F2061F1 
 5896      6F00
 5897              		.text
 5898              		.align	2
 5899              		.global	modoFecha
 5901              	modoFecha:
 5902              	.LFB16:
 924:../proyecto.c **** void modoFecha( void ){
 5903              		.loc 1 924 0
 5904              		.cfi_startproc
 5905              		@ Function supports interworking.
 5906              		@ args = 0, pretend = 0, frame = 8
 5907              		@ frame_needed = 1, uses_anonymous_args = 0
 5908 26c8 0DC0A0E1 		mov	ip, sp
 5909              	.LCFI32:
 5910              		.cfi_def_cfa_register 12
 5911 26cc 00D82DE9 		stmfd	sp!, {fp, ip, lr, pc}
 5912 26d0 04B04CE2 		sub	fp, ip, #4
 5913              		.cfi_offset 14, -8
 5914              		.cfi_offset 13, -12
 5915              		.cfi_offset 11, -16
 5916              	.LCFI33:
 5917              		.cfi_def_cfa 11, 4
 5918 26d4 10D04DE2 		sub	sp, sp, #16
 925:../proyecto.c **** 	boolean volverMenuPrincipal = FALSE;
 5919              		.loc 1 925 0
 5920 26d8 0030A0E3 		mov	r3, #0
 5921 26dc 0D304BE5 		strb	r3, [fp, #-13]
 926:../proyecto.c **** 	boolean pintadoInicial = TRUE;
 5922              		.loc 1 926 0
 5923 26e0 0130A0E3 		mov	r3, #1
 5924 26e4 0E304BE5 		strb	r3, [fp, #-14]
 927:../proyecto.c **** 
 928:../proyecto.c **** 	rtc_gettime( &rtc_time_aux ); //Guardamos el tiempo con la que hemos entrado a la opcion
 5925              		.loc 1 928 0
 5926 26e8 98039FE5 		ldr	r0, .L193
 5927 26ec FEFFFFEB 		bl	rtc_gettime
 929:../proyecto.c **** 
 930:../proyecto.c **** 	uint16 x, y;
 931:../proyecto.c **** 
 932:../proyecto.c **** 	//Limpiamos el menu principal
 933:../proyecto.c **** 	lcd_clear();
 5928              		.loc 1 933 0
 5929 26f0 FEFFFFEB 		bl	lcd_clear
 934:../proyecto.c **** 	lcd_draw_box( 10, 10, 310, 230, BLACK, 5 );
 5930              		.loc 1 934 0
 5931 26f4 0F30A0E3 		mov	r3, #15
 5932 26f8 00308DE5 		str	r3, [sp, #0]
 5933 26fc 0530A0E3 		mov	r3, #5
 5934 2700 04308DE5 		str	r3, [sp, #4]
 5935 2704 0A00A0E3 		mov	r0, #10
 5936 2708 0A10A0E3 		mov	r1, #10
 5937 270c 78239FE5 		ldr	r2, .L193+4
 5938 2710 E630A0E3 		mov	r3, #230
 5939 2714 FEFFFFEB 		bl	lcd_draw_box
 935:../proyecto.c **** 
 936:../proyecto.c **** 	while(!volverMenuPrincipal){
 5940              		.loc 1 936 0
 5941 2718 D00000EA 		b	.L186
 5942              	.L192:
 937:../proyecto.c **** 
 938:../proyecto.c **** 		//Aqui pintamos las cosas que no se actualizan
 939:../proyecto.c **** 		if(pintadoInicial){
 5943              		.loc 1 939 0
 5944 271c 0E305BE5 		ldrb	r3, [fp, #-14]	@ zero_extendqisi2
 5945 2720 000053E3 		cmp	r3, #0
 5946 2724 5700000A 		beq	.L187
 940:../proyecto.c **** 
 941:../proyecto.c **** 			//Mostrar opcion cambiar fecha
 942:../proyecto.c **** 			lcd_draw_box(170, 12, 310, 40, BLACK, 3);
 5947              		.loc 1 942 0
 5948 2728 0F30A0E3 		mov	r3, #15
 5949 272c 00308DE5 		str	r3, [sp, #0]
 5950 2730 0330A0E3 		mov	r3, #3
 5951 2734 04308DE5 		str	r3, [sp, #4]
 5952 2738 AA00A0E3 		mov	r0, #170
 5953 273c 0C10A0E3 		mov	r1, #12
 5954 2740 44239FE5 		ldr	r2, .L193+4
 5955 2744 2830A0E3 		mov	r3, #40
 5956 2748 FEFFFFEB 		bl	lcd_draw_box
 943:../proyecto.c **** 			lcd_puts(180, 20, BLACK, "Menu principal");
 5957              		.loc 1 943 0
 5958 274c B400A0E3 		mov	r0, #180
 5959 2750 1410A0E3 		mov	r1, #20
 5960 2754 0F20A0E3 		mov	r2, #15
 5961 2758 30339FE5 		ldr	r3, .L193+8
 5962 275c FEFFFFEB 		bl	lcd_puts
 944:../proyecto.c **** 
 945:../proyecto.c **** 			//Mostrar opcion cambiar hora
 946:../proyecto.c **** 			lcd_draw_box(30, 115, 170, 140, BLACK, 3);
 5963              		.loc 1 946 0
 5964 2760 0F30A0E3 		mov	r3, #15
 5965 2764 00308DE5 		str	r3, [sp, #0]
 5966 2768 0330A0E3 		mov	r3, #3
 5967 276c 04308DE5 		str	r3, [sp, #4]
 5968 2770 1E00A0E3 		mov	r0, #30
 5969 2774 7310A0E3 		mov	r1, #115
 5970 2778 AA20A0E3 		mov	r2, #170
 5971 277c 8C30A0E3 		mov	r3, #140
 5972 2780 FEFFFFEB 		bl	lcd_draw_box
 947:../proyecto.c **** 			lcd_puts(40, 120, BLACK, "Cambiar dia");
 5973              		.loc 1 947 0
 5974 2784 2800A0E3 		mov	r0, #40
 5975 2788 7810A0E3 		mov	r1, #120
 5976 278c 0F20A0E3 		mov	r2, #15
 5977 2790 FC329FE5 		ldr	r3, .L193+12
 5978 2794 FEFFFFEB 		bl	lcd_puts
 948:../proyecto.c **** 
 949:../proyecto.c **** 			//Mostrar opcion cambiar minutos
 950:../proyecto.c **** 			lcd_draw_box(30, 145, 170, 170, BLACK, 3);
 5979              		.loc 1 950 0
 5980 2798 0F30A0E3 		mov	r3, #15
 5981 279c 00308DE5 		str	r3, [sp, #0]
 5982 27a0 0330A0E3 		mov	r3, #3
 5983 27a4 04308DE5 		str	r3, [sp, #4]
 5984 27a8 1E00A0E3 		mov	r0, #30
 5985 27ac 9110A0E3 		mov	r1, #145
 5986 27b0 AA20A0E3 		mov	r2, #170
 5987 27b4 AA30A0E3 		mov	r3, #170
 5988 27b8 FEFFFFEB 		bl	lcd_draw_box
 951:../proyecto.c **** 			lcd_puts(40, 150, BLACK, "Cambiar mes");
 5989              		.loc 1 951 0
 5990 27bc 2800A0E3 		mov	r0, #40
 5991 27c0 9610A0E3 		mov	r1, #150
 5992 27c4 0F20A0E3 		mov	r2, #15
 5993 27c8 C8329FE5 		ldr	r3, .L193+16
 5994 27cc FEFFFFEB 		bl	lcd_puts
 952:../proyecto.c **** 
 953:../proyecto.c **** 			//Mostrar opcion contador segundos
 954:../proyecto.c **** 			lcd_draw_box(30, 175, 170, 200, BLACK, 3);
 5995              		.loc 1 954 0
 5996 27d0 0F30A0E3 		mov	r3, #15
 5997 27d4 00308DE5 		str	r3, [sp, #0]
 5998 27d8 0330A0E3 		mov	r3, #3
 5999 27dc 04308DE5 		str	r3, [sp, #4]
 6000 27e0 1E00A0E3 		mov	r0, #30
 6001 27e4 AF10A0E3 		mov	r1, #175
 6002 27e8 AA20A0E3 		mov	r2, #170
 6003 27ec C830A0E3 		mov	r3, #200
 6004 27f0 FEFFFFEB 		bl	lcd_draw_box
 955:../proyecto.c **** 			lcd_puts(40, 180, BLACK, "Cambiar año");
 6005              		.loc 1 955 0
 6006 27f4 2800A0E3 		mov	r0, #40
 6007 27f8 B410A0E3 		mov	r1, #180
 6008 27fc 0F20A0E3 		mov	r2, #15
 6009 2800 94329FE5 		ldr	r3, .L193+20
 6010 2804 FEFFFFEB 		bl	lcd_puts
 956:../proyecto.c **** 
 957:../proyecto.c **** 			// Boton +
 958:../proyecto.c **** 			lcd_draw_box(210, 109, 246, 150, BLACK, 3);
 6011              		.loc 1 958 0
 6012 2808 0F30A0E3 		mov	r3, #15
 6013 280c 00308DE5 		str	r3, [sp, #0]
 6014 2810 0330A0E3 		mov	r3, #3
 6015 2814 04308DE5 		str	r3, [sp, #4]
 6016 2818 D200A0E3 		mov	r0, #210
 6017 281c 6D10A0E3 		mov	r1, #109
 6018 2820 F620A0E3 		mov	r2, #246
 6019 2824 9630A0E3 		mov	r3, #150
 6020 2828 FEFFFFEB 		bl	lcd_draw_box
 959:../proyecto.c **** 			lcd_puts_x2(220, 115, BLACK, "+");
 6021              		.loc 1 959 0
 6022 282c DC00A0E3 		mov	r0, #220
 6023 2830 7310A0E3 		mov	r1, #115
 6024 2834 0F20A0E3 		mov	r2, #15
 6025 2838 60329FE5 		ldr	r3, .L193+24
 6026 283c FEFFFFEB 		bl	lcd_puts_x2
 960:../proyecto.c **** 
 961:../proyecto.c **** 			// Boton -
 962:../proyecto.c **** 			lcd_draw_box(210, 165, 246, 204, BLACK, 3);
 6027              		.loc 1 962 0
 6028 2840 0F30A0E3 		mov	r3, #15
 6029 2844 00308DE5 		str	r3, [sp, #0]
 6030 2848 0330A0E3 		mov	r3, #3
 6031 284c 04308DE5 		str	r3, [sp, #4]
 6032 2850 D200A0E3 		mov	r0, #210
 6033 2854 A510A0E3 		mov	r1, #165
 6034 2858 F620A0E3 		mov	r2, #246
 6035 285c CC30A0E3 		mov	r3, #204
 6036 2860 FEFFFFEB 		bl	lcd_draw_box
 963:../proyecto.c **** 			lcd_puts_x2(221, 169, BLACK, "-");
 6037              		.loc 1 963 0
 6038 2864 DD00A0E3 		mov	r0, #221
 6039 2868 A910A0E3 		mov	r1, #169
 6040 286c 0F20A0E3 		mov	r2, #15
 6041 2870 2C329FE5 		ldr	r3, .L193+28
 6042 2874 FEFFFFEB 		bl	lcd_puts_x2
 964:../proyecto.c **** 
 965:../proyecto.c **** 			//Pintamos el reloj inicial
 966:../proyecto.c **** 			mostrarFecha(&rtc_time_aux);
 6043              		.loc 1 966 0
 6044 2878 08029FE5 		ldr	r0, .L193
 6045 287c FEFFFFEB 		bl	mostrarFecha
 967:../proyecto.c **** 
 968:../proyecto.c **** 			pintadoInicial = FALSE;
 6046              		.loc 1 968 0
 6047 2880 0030A0E3 		mov	r3, #0
 6048 2884 0E304BE5 		strb	r3, [fp, #-14]
 6049              	.L187:
 969:../proyecto.c **** 		}
 970:../proyecto.c **** 
 971:../proyecto.c **** 
 972:../proyecto.c **** 		//Para que no se quede el programa congelado esperando que el usuario presione la pantalla
 973:../proyecto.c **** 		if(ts_pressed()){
 6050              		.loc 1 973 0
 6051 2888 FEFFFFEB 		bl	ts_pressed
 6052 288c 0030A0E1 		mov	r3, r0
 6053 2890 000053E3 		cmp	r3, #0
 6054 2894 0400000A 		beq	.L188
 974:../proyecto.c **** 			ts_getpos(&x,&y);
 6055              		.loc 1 974 0
 6056 2898 10204BE2 		sub	r2, fp, #16
 6057 289c 12304BE2 		sub	r3, fp, #18
 6058 28a0 0200A0E1 		mov	r0, r2
 6059 28a4 0310A0E1 		mov	r1, r3
 6060 28a8 FEFFFFEB 		bl	ts_getpos
 6061              	.L188:
 975:../proyecto.c **** 		}
 976:../proyecto.c **** 
 977:../proyecto.c **** 		if( x>30 && y>115 && x<170 && y<140 )
 6062              		.loc 1 977 0
 6063 28ac B0315BE1 		ldrh	r3, [fp, #-16]
 6064 28b0 1E0053E3 		cmp	r3, #30
 6065 28b4 1A00009A 		bls	.L189
 6066              		.loc 1 977 0 is_stmt 0 discriminator 1
 6067 28b8 B2315BE1 		ldrh	r3, [fp, #-18]
 6068 28bc 730053E3 		cmp	r3, #115
 6069 28c0 1700009A 		bls	.L189
 6070 28c4 B0315BE1 		ldrh	r3, [fp, #-16]
 6071 28c8 A90053E3 		cmp	r3, #169
 6072 28cc 1400008A 		bhi	.L189
 6073 28d0 B2315BE1 		ldrh	r3, [fp, #-18]
 6074 28d4 8B0053E3 		cmp	r3, #139
 6075 28d8 1100008A 		bhi	.L189
 978:../proyecto.c **** 			{
 979:../proyecto.c **** 			//CambiarHora
 980:../proyecto.c **** 				x=0;
 6076              		.loc 1 980 0 is_stmt 1
 6077 28dc 0030A0E3 		mov	r3, #0
 6078 28e0 B0314BE1 		strh	r3, [fp, #-16]	@ movhi
 981:../proyecto.c **** 				y = 0;
 6079              		.loc 1 981 0
 6080 28e4 0030A0E3 		mov	r3, #0
 6081 28e8 B2314BE1 		strh	r3, [fp, #-18]	@ movhi
 982:../proyecto.c **** 				lcd_puts( 30, 30, BLACK,"Cambiando dia" );
 6082              		.loc 1 982 0
 6083 28ec 1E00A0E3 		mov	r0, #30
 6084 28f0 1E10A0E3 		mov	r1, #30
 6085 28f4 0F20A0E3 		mov	r2, #15
 6086 28f8 A8319FE5 		ldr	r3, .L193+32
 6087 28fc FEFFFFEB 		bl	lcd_puts
 983:../proyecto.c **** 				cambiarDatosReloj(1,TRUE);
 6088              		.loc 1 983 0
 6089 2900 0100A0E3 		mov	r0, #1
 6090 2904 0110A0E3 		mov	r1, #1
 6091 2908 FEFFFFEB 		bl	cambiarDatosReloj
 984:../proyecto.c **** 				lcd_puts( 30, 30, BLACK,"              " );
 6092              		.loc 1 984 0
 6093 290c 1E00A0E3 		mov	r0, #30
 6094 2910 1E10A0E3 		mov	r1, #30
 6095 2914 0F20A0E3 		mov	r2, #15
 6096 2918 8C319FE5 		ldr	r3, .L193+36
 6097 291c FEFFFFEB 		bl	lcd_puts
 6098 2920 4E0000EA 		b	.L186
 6099              	.L189:
 985:../proyecto.c **** 			}
 986:../proyecto.c **** 		else if( x>30 && y>145 && x<170 && y<170 )
 6100              		.loc 1 986 0
 6101 2924 B0315BE1 		ldrh	r3, [fp, #-16]
 6102 2928 1E0053E3 		cmp	r3, #30
 6103 292c 1A00009A 		bls	.L190
 6104              		.loc 1 986 0 is_stmt 0 discriminator 1
 6105 2930 B2315BE1 		ldrh	r3, [fp, #-18]
 6106 2934 910053E3 		cmp	r3, #145
 6107 2938 1700009A 		bls	.L190
 6108 293c B0315BE1 		ldrh	r3, [fp, #-16]
 6109 2940 A90053E3 		cmp	r3, #169
 6110 2944 1400008A 		bhi	.L190
 6111 2948 B2315BE1 		ldrh	r3, [fp, #-18]
 6112 294c A90053E3 		cmp	r3, #169
 6113 2950 1100008A 		bhi	.L190
 987:../proyecto.c **** 			{
 988:../proyecto.c **** 			//CambiarMinutos
 989:../proyecto.c **** 				x=0;
 6114              		.loc 1 989 0 is_stmt 1
 6115 2954 0030A0E3 		mov	r3, #0
 6116 2958 B0314BE1 		strh	r3, [fp, #-16]	@ movhi
 990:../proyecto.c **** 				y = 0;
 6117              		.loc 1 990 0
 6118 295c 0030A0E3 		mov	r3, #0
 6119 2960 B2314BE1 		strh	r3, [fp, #-18]	@ movhi
 991:../proyecto.c **** 				lcd_puts( 30, 30, BLACK,"Cambiando mes" );
 6120              		.loc 1 991 0
 6121 2964 1E00A0E3 		mov	r0, #30
 6122 2968 1E10A0E3 		mov	r1, #30
 6123 296c 0F20A0E3 		mov	r2, #15
 6124 2970 38319FE5 		ldr	r3, .L193+40
 6125 2974 FEFFFFEB 		bl	lcd_puts
 992:../proyecto.c **** 				cambiarDatosReloj(2,TRUE);
 6126              		.loc 1 992 0
 6127 2978 0200A0E3 		mov	r0, #2
 6128 297c 0110A0E3 		mov	r1, #1
 6129 2980 FEFFFFEB 		bl	cambiarDatosReloj
 993:../proyecto.c **** 				lcd_puts( 30, 30, BLACK,"                 " );
 6130              		.loc 1 993 0
 6131 2984 1E00A0E3 		mov	r0, #30
 6132 2988 1E10A0E3 		mov	r1, #30
 6133 298c 0F20A0E3 		mov	r2, #15
 6134 2990 1C319FE5 		ldr	r3, .L193+44
 6135 2994 FEFFFFEB 		bl	lcd_puts
 6136 2998 300000EA 		b	.L186
 6137              	.L190:
 994:../proyecto.c **** 
 995:../proyecto.c **** 			}
 996:../proyecto.c **** 		else if( x>30 && y>175 && x<170 && y<200 )
 6138              		.loc 1 996 0
 6139 299c B0315BE1 		ldrh	r3, [fp, #-16]
 6140 29a0 1E0053E3 		cmp	r3, #30
 6141 29a4 1A00009A 		bls	.L191
 6142              		.loc 1 996 0 is_stmt 0 discriminator 1
 6143 29a8 B2315BE1 		ldrh	r3, [fp, #-18]
 6144 29ac AF0053E3 		cmp	r3, #175
 6145 29b0 1700009A 		bls	.L191
 6146 29b4 B0315BE1 		ldrh	r3, [fp, #-16]
 6147 29b8 A90053E3 		cmp	r3, #169
 6148 29bc 1400008A 		bhi	.L191
 6149 29c0 B2315BE1 		ldrh	r3, [fp, #-18]
 6150 29c4 C70053E3 		cmp	r3, #199
 6151 29c8 1100008A 		bhi	.L191
 997:../proyecto.c **** 			{
 998:../proyecto.c **** 			//CambiarSegundos
 999:../proyecto.c **** 				x=0;
 6152              		.loc 1 999 0 is_stmt 1
 6153 29cc 0030A0E3 		mov	r3, #0
 6154 29d0 B0314BE1 		strh	r3, [fp, #-16]	@ movhi
1000:../proyecto.c **** 				y = 0;
 6155              		.loc 1 1000 0
 6156 29d4 0030A0E3 		mov	r3, #0
 6157 29d8 B2314BE1 		strh	r3, [fp, #-18]	@ movhi
1001:../proyecto.c **** 				lcd_puts( 30, 30, BLACK,"Cambiando año" );
 6158              		.loc 1 1001 0
 6159 29dc 1E00A0E3 		mov	r0, #30
 6160 29e0 1E10A0E3 		mov	r1, #30
 6161 29e4 0F20A0E3 		mov	r2, #15
 6162 29e8 C8309FE5 		ldr	r3, .L193+48
 6163 29ec FEFFFFEB 		bl	lcd_puts
1002:../proyecto.c **** 				cambiarDatosReloj(3,TRUE);
 6164              		.loc 1 1002 0
 6165 29f0 0300A0E3 		mov	r0, #3
 6166 29f4 0110A0E3 		mov	r1, #1
 6167 29f8 FEFFFFEB 		bl	cambiarDatosReloj
1003:../proyecto.c **** 				lcd_puts( 30, 30, BLACK,"              " );
 6168              		.loc 1 1003 0
 6169 29fc 1E00A0E3 		mov	r0, #30
 6170 2a00 1E10A0E3 		mov	r1, #30
 6171 2a04 0F20A0E3 		mov	r2, #15
 6172 2a08 9C309FE5 		ldr	r3, .L193+36
 6173 2a0c FEFFFFEB 		bl	lcd_puts
 6174 2a10 120000EA 		b	.L186
 6175              	.L191:
1004:../proyecto.c **** 			}
1005:../proyecto.c **** 		else if( x>170 && y>12 && x<310 && y<40 )
 6176              		.loc 1 1005 0
 6177 2a14 B0315BE1 		ldrh	r3, [fp, #-16]
 6178 2a18 AA0053E3 		cmp	r3, #170
 6179 2a1c 0F00009A 		bls	.L186
 6180              		.loc 1 1005 0 is_stmt 0 discriminator 1
 6181 2a20 B2315BE1 		ldrh	r3, [fp, #-18]
 6182 2a24 0C0053E3 		cmp	r3, #12
 6183 2a28 0C00009A 		bls	.L186
 6184 2a2c B0215BE1 		ldrh	r2, [fp, #-16]
 6185 2a30 84309FE5 		ldr	r3, .L193+52
 6186 2a34 030052E1 		cmp	r2, r3
 6187 2a38 0800008A 		bhi	.L186
 6188 2a3c B2315BE1 		ldrh	r3, [fp, #-18]
 6189 2a40 270053E3 		cmp	r3, #39
 6190 2a44 0500008A 		bhi	.L186
1006:../proyecto.c **** 			{
1007:../proyecto.c **** 			//Volver menu principal
1008:../proyecto.c **** 				x=0;
 6191              		.loc 1 1008 0 is_stmt 1
 6192 2a48 0030A0E3 		mov	r3, #0
 6193 2a4c B0314BE1 		strh	r3, [fp, #-16]	@ movhi
1009:../proyecto.c **** 				y = 0;
 6194              		.loc 1 1009 0
 6195 2a50 0030A0E3 		mov	r3, #0
 6196 2a54 B2314BE1 		strh	r3, [fp, #-18]	@ movhi
1010:../proyecto.c **** 				volverMenuPrincipal = TRUE;
 6197              		.loc 1 1010 0
 6198 2a58 0130A0E3 		mov	r3, #1
 6199 2a5c 0D304BE5 		strb	r3, [fp, #-13]
 6200              	.L186:
 936:../proyecto.c **** 	while(!volverMenuPrincipal){
 6201              		.loc 1 936 0 discriminator 1
 6202 2a60 0D305BE5 		ldrb	r3, [fp, #-13]	@ zero_extendqisi2
 6203 2a64 000053E3 		cmp	r3, #0
 6204 2a68 2BFFFF0A 		beq	.L192
1011:../proyecto.c **** 			}
1012:../proyecto.c **** 		}
1013:../proyecto.c **** 	pintarMenuPrincipal = TRUE;
 6205              		.loc 1 1013 0
 6206 2a6c 4C309FE5 		ldr	r3, .L193+56
 6207 2a70 0120A0E3 		mov	r2, #1
 6208 2a74 0020C3E5 		strb	r2, [r3, #0]
1014:../proyecto.c **** 	lcd_clear();
 6209              		.loc 1 1014 0
 6210 2a78 FEFFFFEB 		bl	lcd_clear
1015:../proyecto.c **** }
 6211              		.loc 1 1015 0
 6212 2a7c 0CD04BE2 		sub	sp, fp, #12
 6213 2a80 00689DE8 		ldmfd	sp, {fp, sp, lr}
 6214 2a84 1EFF2FE1 		bx	lr
 6215              	.L194:
 6216              		.align	2
 6217              	.L193:
 6218 2a88 00000000 		.word	rtc_time_aux
 6219 2a8c 36010000 		.word	310
 6220 2a90 E4000000 		.word	.LC28
 6221 2a94 A8010000 		.word	.LC41
 6222 2a98 B4010000 		.word	.LC42
 6223 2a9c C0010000 		.word	.LC43
 6224 2aa0 48010000 		.word	.LC34
 6225 2aa4 4C010000 		.word	.LC35
 6226 2aa8 CC010000 		.word	.LC44
 6227 2aac 60010000 		.word	.LC37
 6228 2ab0 DC010000 		.word	.LC45
 6229 2ab4 84010000 		.word	.LC39
 6230 2ab8 EC010000 		.word	.LC46
 6231 2abc 35010000 		.word	309
 6232 2ac0 00000000 		.word	pintarMenuPrincipal
 6233              		.cfi_endproc
 6234              	.LFE16:
 6236              		.align	2
 6237              		.global	invertirCadena
 6239              	invertirCadena:
 6240              	.LFB17:
1016:../proyecto.c **** /*--------------------Funciones para el modo Deporte--------------------*/
1017:../proyecto.c **** char* invertirCadena(char* str) {
 6241              		.loc 1 1017 0
 6242              		.cfi_startproc
 6243              		@ Function supports interworking.
 6244              		@ args = 0, pretend = 0, frame = 24
 6245              		@ frame_needed = 1, uses_anonymous_args = 0
 6246 2ac4 0DC0A0E1 		mov	ip, sp
 6247              	.LCFI34:
 6248              		.cfi_def_cfa_register 12
 6249 2ac8 00D82DE9 		stmfd	sp!, {fp, ip, lr, pc}
 6250 2acc 04B04CE2 		sub	fp, ip, #4
 6251              		.cfi_offset 14, -8
 6252              		.cfi_offset 13, -12
 6253              		.cfi_offset 11, -16
 6254              	.LCFI35:
 6255              		.cfi_def_cfa 11, 4
 6256 2ad0 18D04DE2 		sub	sp, sp, #24
 6257 2ad4 20000BE5 		str	r0, [fp, #-32]
1018:../proyecto.c ****     // Calcular la longitud de la cadena manualmente
1019:../proyecto.c ****     int longitud = 0;
 6258              		.loc 1 1019 0
 6259 2ad8 0030A0E3 		mov	r3, #0
 6260 2adc 10300BE5 		str	r3, [fp, #-16]
1020:../proyecto.c ****     while (str[longitud] != '\0') {
 6261              		.loc 1 1020 0
 6262 2ae0 020000EA 		b	.L196
 6263              	.L197:
1021:../proyecto.c ****         longitud++;
 6264              		.loc 1 1021 0
 6265 2ae4 10301BE5 		ldr	r3, [fp, #-16]
 6266 2ae8 013083E2 		add	r3, r3, #1
 6267 2aec 10300BE5 		str	r3, [fp, #-16]
 6268              	.L196:
1020:../proyecto.c ****     while (str[longitud] != '\0') {
 6269              		.loc 1 1020 0 discriminator 1
 6270 2af0 10301BE5 		ldr	r3, [fp, #-16]
 6271 2af4 20201BE5 		ldr	r2, [fp, #-32]
 6272 2af8 033082E0 		add	r3, r2, r3
 6273 2afc 0030D3E5 		ldrb	r3, [r3, #0]	@ zero_extendqisi2
 6274 2b00 000053E3 		cmp	r3, #0
 6275 2b04 F6FFFF1A 		bne	.L197
1022:../proyecto.c ****     }
1023:../proyecto.c **** 
1024:../proyecto.c ****     int i, j;
1025:../proyecto.c **** 
1026:../proyecto.c ****     for (i = 0, j = longitud - 1; i < j; i++, j--) {
 6276              		.loc 1 1026 0
 6277 2b08 0030A0E3 		mov	r3, #0
 6278 2b0c 14300BE5 		str	r3, [fp, #-20]
 6279 2b10 10301BE5 		ldr	r3, [fp, #-16]
 6280 2b14 013043E2 		sub	r3, r3, #1
 6281 2b18 18300BE5 		str	r3, [fp, #-24]
 6282 2b1c 170000EA 		b	.L198
 6283              	.L199:
 6284              	.LBB2:
1027:../proyecto.c ****         // Intercambiar caracteres de extremo opuesto
1028:../proyecto.c ****         char temp = str[i];
 6285              		.loc 1 1028 0 discriminator 2
 6286 2b20 14301BE5 		ldr	r3, [fp, #-20]
 6287 2b24 20201BE5 		ldr	r2, [fp, #-32]
 6288 2b28 033082E0 		add	r3, r2, r3
 6289 2b2c 0030D3E5 		ldrb	r3, [r3, #0]
 6290 2b30 19304BE5 		strb	r3, [fp, #-25]
1029:../proyecto.c ****         str[i] = str[j];
 6291              		.loc 1 1029 0 discriminator 2
 6292 2b34 14301BE5 		ldr	r3, [fp, #-20]
 6293 2b38 20201BE5 		ldr	r2, [fp, #-32]
 6294 2b3c 033082E0 		add	r3, r2, r3
 6295 2b40 18201BE5 		ldr	r2, [fp, #-24]
 6296 2b44 20101BE5 		ldr	r1, [fp, #-32]
 6297 2b48 022081E0 		add	r2, r1, r2
 6298 2b4c 0020D2E5 		ldrb	r2, [r2, #0]	@ zero_extendqisi2
 6299 2b50 0020C3E5 		strb	r2, [r3, #0]
1030:../proyecto.c ****         str[j] = temp;
 6300              		.loc 1 1030 0 discriminator 2
 6301 2b54 18301BE5 		ldr	r3, [fp, #-24]
 6302 2b58 20201BE5 		ldr	r2, [fp, #-32]
 6303 2b5c 033082E0 		add	r3, r2, r3
 6304 2b60 19205BE5 		ldrb	r2, [fp, #-25]
 6305 2b64 0020C3E5 		strb	r2, [r3, #0]
 6306              	.LBE2:
1026:../proyecto.c ****     for (i = 0, j = longitud - 1; i < j; i++, j--) {
 6307              		.loc 1 1026 0 discriminator 2
 6308 2b68 14301BE5 		ldr	r3, [fp, #-20]
 6309 2b6c 013083E2 		add	r3, r3, #1
 6310 2b70 14300BE5 		str	r3, [fp, #-20]
 6311 2b74 18301BE5 		ldr	r3, [fp, #-24]
 6312 2b78 013043E2 		sub	r3, r3, #1
 6313 2b7c 18300BE5 		str	r3, [fp, #-24]
 6314              	.L198:
1026:../proyecto.c ****     for (i = 0, j = longitud - 1; i < j; i++, j--) {
 6315              		.loc 1 1026 0 is_stmt 0 discriminator 1
 6316 2b80 14201BE5 		ldr	r2, [fp, #-20]
 6317 2b84 18301BE5 		ldr	r3, [fp, #-24]
 6318 2b88 030052E1 		cmp	r2, r3
 6319 2b8c E3FFFFBA 		blt	.L199
1031:../proyecto.c ****     }
1032:../proyecto.c **** 
1033:../proyecto.c ****     return str;
 6320              		.loc 1 1033 0 is_stmt 1
 6321 2b90 20301BE5 		ldr	r3, [fp, #-32]
1034:../proyecto.c **** 
1035:../proyecto.c **** }
 6322              		.loc 1 1035 0
 6323 2b94 0300A0E1 		mov	r0, r3
 6324 2b98 0CD04BE2 		sub	sp, fp, #12
 6325 2b9c 00689DE8 		ldmfd	sp, {fp, sp, lr}
 6326 2ba0 1EFF2FE1 		bx	lr
 6327              		.cfi_endproc
 6328              	.LFE17:
 6330              		.align	2
 6331              		.global	lcd_putKm_x2
 6333              	lcd_putKm_x2:
 6334              	.LFB18:
1036:../proyecto.c **** void lcd_putKm_x2(uint16 x, uint16 y, uint8 color, fix32 f) {
 6335              		.loc 1 1036 0
 6336              		.cfi_startproc
 6337              		@ Function supports interworking.
 6338              		@ args = 0, pretend = 0, frame = 56
 6339              		@ frame_needed = 1, uses_anonymous_args = 0
 6340 2ba4 0DC0A0E1 		mov	ip, sp
 6341              	.LCFI36:
 6342              		.cfi_def_cfa_register 12
 6343 2ba8 00D82DE9 		stmfd	sp!, {fp, ip, lr, pc}
 6344 2bac 04B04CE2 		sub	fp, ip, #4
 6345              		.cfi_offset 14, -8
 6346              		.cfi_offset 13, -12
 6347              		.cfi_offset 11, -16
 6348              	.LCFI37:
 6349              		.cfi_def_cfa 11, 4
 6350 2bb0 38D04DE2 		sub	sp, sp, #56
 6351 2bb4 40300BE5 		str	r3, [fp, #-64]
 6352 2bb8 B6034BE1 		strh	r0, [fp, #-54]	@ movhi
 6353 2bbc B8134BE1 		strh	r1, [fp, #-56]	@ movhi
 6354 2bc0 0230A0E1 		mov	r3, r2
 6355 2bc4 39304BE5 		strb	r3, [fp, #-57]
1037:../proyecto.c ****     char buf[16];
1038:../proyecto.c ****     char *p = buf;
 6356              		.loc 1 1038 0
 6357 2bc8 34304BE2 		sub	r3, fp, #52
 6358 2bcc 10300BE5 		str	r3, [fp, #-16]
1039:../proyecto.c ****     boolean negativo = FALSE;
 6359              		.loc 1 1039 0
 6360 2bd0 0030A0E3 		mov	r3, #0
 6361 2bd4 11304BE5 		strb	r3, [fp, #-17]
1040:../proyecto.c **** 
1041:../proyecto.c ****     // Manejar el caso de números negativos
1042:../proyecto.c ****     if (f < 0) {
 6362              		.loc 1 1042 0
 6363 2bd8 40301BE5 		ldr	r3, [fp, #-64]
 6364 2bdc 000053E3 		cmp	r3, #0
 6365 2be0 040000AA 		bge	.L201
1043:../proyecto.c ****         f *= -1;
 6366              		.loc 1 1043 0
 6367 2be4 40301BE5 		ldr	r3, [fp, #-64]
 6368 2be8 003063E2 		rsb	r3, r3, #0
 6369 2bec 40300BE5 		str	r3, [fp, #-64]
1044:../proyecto.c ****         negativo = TRUE;
 6370              		.loc 1 1044 0
 6371 2bf0 0130A0E3 		mov	r3, #1
 6372 2bf4 11304BE5 		strb	r3, [fp, #-17]
 6373              	.L201:
1045:../proyecto.c ****     }
1046:../proyecto.c **** 
1047:../proyecto.c ****     // Convertir parte entera a cadena con al menos dos dígitos inicializados a 0
1048:../proyecto.c ****     int32 i = f >> QM;
 6374              		.loc 1 1048 0
 6375 2bf8 40301BE5 		ldr	r3, [fp, #-64]
 6376 2bfc 4336A0E1 		mov	r3, r3, asr #12
 6377 2c00 20300BE5 		str	r3, [fp, #-32]
1049:../proyecto.c **** 
1050:../proyecto.c ****     // Añadir los dígitos de la parte entera al buffer
1051:../proyecto.c ****     if (i == 0) {
 6378              		.loc 1 1051 0
 6379 2c04 20301BE5 		ldr	r3, [fp, #-32]
 6380 2c08 000053E3 		cmp	r3, #0
 6381 2c0c 0C00001A 		bne	.L202
1052:../proyecto.c ****         *p++ = '0';
 6382              		.loc 1 1052 0
 6383 2c10 10301BE5 		ldr	r3, [fp, #-16]
 6384 2c14 3020A0E3 		mov	r2, #48
 6385 2c18 0020C3E5 		strb	r2, [r3, #0]
 6386 2c1c 10301BE5 		ldr	r3, [fp, #-16]
 6387 2c20 013083E2 		add	r3, r3, #1
 6388 2c24 10300BE5 		str	r3, [fp, #-16]
1053:../proyecto.c ****         *p++ = '0';
 6389              		.loc 1 1053 0
 6390 2c28 10301BE5 		ldr	r3, [fp, #-16]
 6391 2c2c 3020A0E3 		mov	r2, #48
 6392 2c30 0020C3E5 		strb	r2, [r3, #0]
 6393 2c34 10301BE5 		ldr	r3, [fp, #-16]
 6394 2c38 013083E2 		add	r3, r3, #1
 6395 2c3c 10300BE5 		str	r3, [fp, #-16]
 6396 2c40 200000EA 		b	.L203
 6397              	.L202:
1054:../proyecto.c ****     } else {
1055:../proyecto.c ****         *p++ = '0' + (i / 10);
 6398              		.loc 1 1055 0
 6399 2c44 20301BE5 		ldr	r3, [fp, #-32]
 6400 2c48 6C219FE5 		ldr	r2, .L207
 6401 2c4c 9312C2E0 		smull	r1, r2, r3, r2
 6402 2c50 4221A0E1 		mov	r2, r2, asr #2
 6403 2c54 C33FA0E1 		mov	r3, r3, asr #31
 6404 2c58 023063E0 		rsb	r3, r3, r2
 6405 2c5c FF3003E2 		and	r3, r3, #255
 6406 2c60 303083E2 		add	r3, r3, #48
 6407 2c64 FF2003E2 		and	r2, r3, #255
 6408 2c68 10301BE5 		ldr	r3, [fp, #-16]
 6409 2c6c 0020C3E5 		strb	r2, [r3, #0]
 6410 2c70 10301BE5 		ldr	r3, [fp, #-16]
 6411 2c74 013083E2 		add	r3, r3, #1
 6412 2c78 10300BE5 		str	r3, [fp, #-16]
1056:../proyecto.c ****         *p++ = '0' + (i % 10);
 6413              		.loc 1 1056 0
 6414 2c7c 20101BE5 		ldr	r1, [fp, #-32]
 6415 2c80 34319FE5 		ldr	r3, .L207
 6416 2c84 9123C3E0 		smull	r2, r3, r1, r3
 6417 2c88 4321A0E1 		mov	r2, r3, asr #2
 6418 2c8c C13FA0E1 		mov	r3, r1, asr #31
 6419 2c90 022063E0 		rsb	r2, r3, r2
 6420 2c94 0230A0E1 		mov	r3, r2
 6421 2c98 0331A0E1 		mov	r3, r3, asl #2
 6422 2c9c 023083E0 		add	r3, r3, r2
 6423 2ca0 8330A0E1 		mov	r3, r3, asl #1
 6424 2ca4 012063E0 		rsb	r2, r3, r1
 6425 2ca8 FF3002E2 		and	r3, r2, #255
 6426 2cac 303083E2 		add	r3, r3, #48
 6427 2cb0 FF2003E2 		and	r2, r3, #255
 6428 2cb4 10301BE5 		ldr	r3, [fp, #-16]
 6429 2cb8 0020C3E5 		strb	r2, [r3, #0]
 6430 2cbc 10301BE5 		ldr	r3, [fp, #-16]
 6431 2cc0 013083E2 		add	r3, r3, #1
 6432 2cc4 10300BE5 		str	r3, [fp, #-16]
 6433              	.L203:
1057:../proyecto.c ****     }
1058:../proyecto.c **** 
1059:../proyecto.c ****     // Añadir punto decimal
1060:../proyecto.c ****     *p++ = '.';
 6434              		.loc 1 1060 0
 6435 2cc8 10301BE5 		ldr	r3, [fp, #-16]
 6436 2ccc 2E20A0E3 		mov	r2, #46
 6437 2cd0 0020C3E5 		strb	r2, [r3, #0]
 6438 2cd4 10301BE5 		ldr	r3, [fp, #-16]
 6439 2cd8 013083E2 		add	r3, r3, #1
 6440 2cdc 10300BE5 		str	r3, [fp, #-16]
1061:../proyecto.c **** 
1062:../proyecto.c ****     // Convertir parte decimal a cadena con tres dígitos
1063:../proyecto.c ****     fix32 parte_decimal = f & ((1 << QM) - 1);
 6441              		.loc 1 1063 0
 6442 2ce0 40301BE5 		ldr	r3, [fp, #-64]
 6443 2ce4 033AA0E1 		mov	r3, r3, asl #20
 6444 2ce8 233AA0E1 		mov	r3, r3, lsr #20
 6445 2cec 18300BE5 		str	r3, [fp, #-24]
1064:../proyecto.c ****     int j;
1065:../proyecto.c ****     for (j = 0; j < 3; ++j) {
 6446              		.loc 1 1065 0
 6447 2cf0 0030A0E3 		mov	r3, #0
 6448 2cf4 1C300BE5 		str	r3, [fp, #-28]
 6449 2cf8 180000EA 		b	.L204
 6450              	.L205:
 6451              	.LBB3:
1066:../proyecto.c ****         parte_decimal *= 10;
 6452              		.loc 1 1066 0 discriminator 2
 6453 2cfc 18201BE5 		ldr	r2, [fp, #-24]
 6454 2d00 0230A0E1 		mov	r3, r2
 6455 2d04 0331A0E1 		mov	r3, r3, asl #2
 6456 2d08 023083E0 		add	r3, r3, r2
 6457 2d0c 8330A0E1 		mov	r3, r3, asl #1
 6458 2d10 18300BE5 		str	r3, [fp, #-24]
1067:../proyecto.c ****         int digit = parte_decimal >> QM;  // Ajuste aquí al cambiar la definición de TOFIX
 6459              		.loc 1 1067 0 discriminator 2
 6460 2d14 18301BE5 		ldr	r3, [fp, #-24]
 6461 2d18 4336A0E1 		mov	r3, r3, asr #12
 6462 2d1c 24300BE5 		str	r3, [fp, #-36]
1068:../proyecto.c ****         *p++ = '0' + digit;
 6463              		.loc 1 1068 0 discriminator 2
 6464 2d20 24301BE5 		ldr	r3, [fp, #-36]
 6465 2d24 FF3003E2 		and	r3, r3, #255
 6466 2d28 303083E2 		add	r3, r3, #48
 6467 2d2c FF2003E2 		and	r2, r3, #255
 6468 2d30 10301BE5 		ldr	r3, [fp, #-16]
 6469 2d34 0020C3E5 		strb	r2, [r3, #0]
 6470 2d38 10301BE5 		ldr	r3, [fp, #-16]
 6471 2d3c 013083E2 		add	r3, r3, #1
 6472 2d40 10300BE5 		str	r3, [fp, #-16]
1069:../proyecto.c ****         parte_decimal &= ((1 << QM) - 1);
 6473              		.loc 1 1069 0 discriminator 2
 6474 2d44 18301BE5 		ldr	r3, [fp, #-24]
 6475 2d48 033AA0E1 		mov	r3, r3, asl #20
 6476 2d4c 233AA0E1 		mov	r3, r3, lsr #20
 6477 2d50 18300BE5 		str	r3, [fp, #-24]
 6478              	.LBE3:
1065:../proyecto.c ****     for (j = 0; j < 3; ++j) {
 6479              		.loc 1 1065 0 discriminator 2
 6480 2d54 1C301BE5 		ldr	r3, [fp, #-28]
 6481 2d58 013083E2 		add	r3, r3, #1
 6482 2d5c 1C300BE5 		str	r3, [fp, #-28]
 6483              	.L204:
1065:../proyecto.c ****     for (j = 0; j < 3; ++j) {
 6484              		.loc 1 1065 0 is_stmt 0 discriminator 1
 6485 2d60 1C301BE5 		ldr	r3, [fp, #-28]
 6486 2d64 020053E3 		cmp	r3, #2
 6487 2d68 E3FFFFDA 		ble	.L205
1070:../proyecto.c ****     }
1071:../proyecto.c **** 
1072:../proyecto.c ****     // Añadir terminador nulo
1073:../proyecto.c ****     *p = '\0';
 6488              		.loc 1 1073 0 is_stmt 1
 6489 2d6c 10301BE5 		ldr	r3, [fp, #-16]
 6490 2d70 0020A0E3 		mov	r2, #0
 6491 2d74 0020C3E5 		strb	r2, [r3, #0]
1074:../proyecto.c **** 
1075:../proyecto.c ****     // Manejar el caso de números negativos
1076:../proyecto.c ****     if (negativo) {
 6492              		.loc 1 1076 0
 6493 2d78 11305BE5 		ldrb	r3, [fp, #-17]	@ zero_extendqisi2
 6494 2d7c 000053E3 		cmp	r3, #0
 6495 2d80 0500000A 		beq	.L206
1077:../proyecto.c ****         *--p = '-';
 6496              		.loc 1 1077 0
 6497 2d84 10301BE5 		ldr	r3, [fp, #-16]
 6498 2d88 013043E2 		sub	r3, r3, #1
 6499 2d8c 10300BE5 		str	r3, [fp, #-16]
 6500 2d90 10301BE5 		ldr	r3, [fp, #-16]
 6501 2d94 2D20A0E3 		mov	r2, #45
 6502 2d98 0020C3E5 		strb	r2, [r3, #0]
 6503              	.L206:
1078:../proyecto.c ****     }
1079:../proyecto.c **** 
1080:../proyecto.c ****     lcd_puts_x2(x, y, color, buf);
 6504              		.loc 1 1080 0
 6505 2d9c B6035BE1 		ldrh	r0, [fp, #-54]
 6506 2da0 B8135BE1 		ldrh	r1, [fp, #-56]
 6507 2da4 39205BE5 		ldrb	r2, [fp, #-57]	@ zero_extendqisi2
 6508 2da8 34304BE2 		sub	r3, fp, #52
 6509 2dac FEFFFFEB 		bl	lcd_puts_x2
1081:../proyecto.c **** }
 6510              		.loc 1 1081 0
 6511 2db0 0CD04BE2 		sub	sp, fp, #12
 6512 2db4 00689DE8 		ldmfd	sp, {fp, sp, lr}
 6513 2db8 1EFF2FE1 		bx	lr
 6514              	.L208:
 6515              		.align	2
 6516              	.L207:
 6517 2dbc 67666666 		.word	1717986919
 6518              		.cfi_endproc
 6519              	.LFE18:
 6521              		.align	2
 6522              		.global	lcd_putCal_x2
 6524              	lcd_putCal_x2:
 6525              	.LFB19:
1082:../proyecto.c **** void lcd_putCal_x2(uint16 x, uint16 y, uint8 color, fix32 f) {
 6526              		.loc 1 1082 0
 6527              		.cfi_startproc
 6528              		@ Function supports interworking.
 6529              		@ args = 0, pretend = 0, frame = 56
 6530              		@ frame_needed = 1, uses_anonymous_args = 0
 6531 2dc0 0DC0A0E1 		mov	ip, sp
 6532              	.LCFI38:
 6533              		.cfi_def_cfa_register 12
 6534 2dc4 00D82DE9 		stmfd	sp!, {fp, ip, lr, pc}
 6535 2dc8 04B04CE2 		sub	fp, ip, #4
 6536              		.cfi_offset 14, -8
 6537              		.cfi_offset 13, -12
 6538              		.cfi_offset 11, -16
 6539              	.LCFI39:
 6540              		.cfi_def_cfa 11, 4
 6541 2dcc 38D04DE2 		sub	sp, sp, #56
 6542 2dd0 40300BE5 		str	r3, [fp, #-64]
 6543 2dd4 B6034BE1 		strh	r0, [fp, #-54]	@ movhi
 6544 2dd8 B8134BE1 		strh	r1, [fp, #-56]	@ movhi
 6545 2ddc 0230A0E1 		mov	r3, r2
 6546 2de0 39304BE5 		strb	r3, [fp, #-57]
1083:../proyecto.c ****     char buf[16];
1084:../proyecto.c ****     char *p = buf;
 6547              		.loc 1 1084 0
 6548 2de4 34304BE2 		sub	r3, fp, #52
 6549 2de8 10300BE5 		str	r3, [fp, #-16]
1085:../proyecto.c ****     boolean negativo = FALSE;
 6550              		.loc 1 1085 0
 6551 2dec 0030A0E3 		mov	r3, #0
 6552 2df0 11304BE5 		strb	r3, [fp, #-17]
1086:../proyecto.c **** 
1087:../proyecto.c ****     // Manejar el caso de números negativos
1088:../proyecto.c ****     if (f < 0) {
 6553              		.loc 1 1088 0
 6554 2df4 40301BE5 		ldr	r3, [fp, #-64]
 6555 2df8 000053E3 		cmp	r3, #0
 6556 2dfc 040000AA 		bge	.L210
1089:../proyecto.c ****         f *= -1;
 6557              		.loc 1 1089 0
 6558 2e00 40301BE5 		ldr	r3, [fp, #-64]
 6559 2e04 003063E2 		rsb	r3, r3, #0
 6560 2e08 40300BE5 		str	r3, [fp, #-64]
1090:../proyecto.c ****         negativo = TRUE;
 6561              		.loc 1 1090 0
 6562 2e0c 0130A0E3 		mov	r3, #1
 6563 2e10 11304BE5 		strb	r3, [fp, #-17]
 6564              	.L210:
1091:../proyecto.c ****     }
1092:../proyecto.c **** 
1093:../proyecto.c ****     // Convertir parte entera a cadena con al menos tres dígitos inicializados a 0
1094:../proyecto.c ****     int32 i = f >> QM;
 6565              		.loc 1 1094 0
 6566 2e14 40301BE5 		ldr	r3, [fp, #-64]
 6567 2e18 4336A0E1 		mov	r3, r3, asr #12
 6568 2e1c 20300BE5 		str	r3, [fp, #-32]
1095:../proyecto.c **** 
1096:../proyecto.c ****     // Añadir los dígitos de la parte entera al buffer
1097:../proyecto.c ****     *p++ = '0' + (i / 100);  // Asegurar que haya al menos tres dígitos
 6569              		.loc 1 1097 0
 6570 2e20 20301BE5 		ldr	r3, [fp, #-32]
 6571 2e24 CC219FE5 		ldr	r2, .L214
 6572 2e28 9312C2E0 		smull	r1, r2, r3, r2
 6573 2e2c C222A0E1 		mov	r2, r2, asr #5
 6574 2e30 C33FA0E1 		mov	r3, r3, asr #31
 6575 2e34 023063E0 		rsb	r3, r3, r2
 6576 2e38 FF3003E2 		and	r3, r3, #255
 6577 2e3c 303083E2 		add	r3, r3, #48
 6578 2e40 FF2003E2 		and	r2, r3, #255
 6579 2e44 10301BE5 		ldr	r3, [fp, #-16]
 6580 2e48 0020C3E5 		strb	r2, [r3, #0]
 6581 2e4c 10301BE5 		ldr	r3, [fp, #-16]
 6582 2e50 013083E2 		add	r3, r3, #1
 6583 2e54 10300BE5 		str	r3, [fp, #-16]
1098:../proyecto.c ****     *p++ = '0' + ((i / 10) % 10);
 6584              		.loc 1 1098 0
 6585 2e58 20301BE5 		ldr	r3, [fp, #-32]
 6586 2e5c 98219FE5 		ldr	r2, .L214+4
 6587 2e60 9312C2E0 		smull	r1, r2, r3, r2
 6588 2e64 4221A0E1 		mov	r2, r2, asr #2
 6589 2e68 C33FA0E1 		mov	r3, r3, asr #31
 6590 2e6c 021063E0 		rsb	r1, r3, r2
 6591 2e70 84319FE5 		ldr	r3, .L214+4
 6592 2e74 9123C3E0 		smull	r2, r3, r1, r3
 6593 2e78 4321A0E1 		mov	r2, r3, asr #2
 6594 2e7c C13FA0E1 		mov	r3, r1, asr #31
 6595 2e80 022063E0 		rsb	r2, r3, r2
 6596 2e84 0230A0E1 		mov	r3, r2
 6597 2e88 0331A0E1 		mov	r3, r3, asl #2
 6598 2e8c 023083E0 		add	r3, r3, r2
 6599 2e90 8330A0E1 		mov	r3, r3, asl #1
 6600 2e94 012063E0 		rsb	r2, r3, r1
 6601 2e98 FF3002E2 		and	r3, r2, #255
 6602 2e9c 303083E2 		add	r3, r3, #48
 6603 2ea0 FF2003E2 		and	r2, r3, #255
 6604 2ea4 10301BE5 		ldr	r3, [fp, #-16]
 6605 2ea8 0020C3E5 		strb	r2, [r3, #0]
 6606 2eac 10301BE5 		ldr	r3, [fp, #-16]
 6607 2eb0 013083E2 		add	r3, r3, #1
 6608 2eb4 10300BE5 		str	r3, [fp, #-16]
1099:../proyecto.c ****     *p++ = '0' + (i % 10);
 6609              		.loc 1 1099 0
 6610 2eb8 20101BE5 		ldr	r1, [fp, #-32]
 6611 2ebc 38319FE5 		ldr	r3, .L214+4
 6612 2ec0 9123C3E0 		smull	r2, r3, r1, r3
 6613 2ec4 4321A0E1 		mov	r2, r3, asr #2
 6614 2ec8 C13FA0E1 		mov	r3, r1, asr #31
 6615 2ecc 022063E0 		rsb	r2, r3, r2
 6616 2ed0 0230A0E1 		mov	r3, r2
 6617 2ed4 0331A0E1 		mov	r3, r3, asl #2
 6618 2ed8 023083E0 		add	r3, r3, r2
 6619 2edc 8330A0E1 		mov	r3, r3, asl #1
 6620 2ee0 012063E0 		rsb	r2, r3, r1
 6621 2ee4 FF3002E2 		and	r3, r2, #255
 6622 2ee8 303083E2 		add	r3, r3, #48
 6623 2eec FF2003E2 		and	r2, r3, #255
 6624 2ef0 10301BE5 		ldr	r3, [fp, #-16]
 6625 2ef4 0020C3E5 		strb	r2, [r3, #0]
 6626 2ef8 10301BE5 		ldr	r3, [fp, #-16]
 6627 2efc 013083E2 		add	r3, r3, #1
 6628 2f00 10300BE5 		str	r3, [fp, #-16]
1100:../proyecto.c **** 
1101:../proyecto.c ****     // Añadir punto decimal
1102:../proyecto.c ****     *p++ = '.';
 6629              		.loc 1 1102 0
 6630 2f04 10301BE5 		ldr	r3, [fp, #-16]
 6631 2f08 2E20A0E3 		mov	r2, #46
 6632 2f0c 0020C3E5 		strb	r2, [r3, #0]
 6633 2f10 10301BE5 		ldr	r3, [fp, #-16]
 6634 2f14 013083E2 		add	r3, r3, #1
 6635 2f18 10300BE5 		str	r3, [fp, #-16]
1103:../proyecto.c **** 
1104:../proyecto.c ****     // Convertir parte decimal a cadena con tres dígitos
1105:../proyecto.c ****     fix32 parte_decimal = f & ((1 << QM) - 1);
 6636              		.loc 1 1105 0
 6637 2f1c 40301BE5 		ldr	r3, [fp, #-64]
 6638 2f20 033AA0E1 		mov	r3, r3, asl #20
 6639 2f24 233AA0E1 		mov	r3, r3, lsr #20
 6640 2f28 18300BE5 		str	r3, [fp, #-24]
1106:../proyecto.c ****     int j;
1107:../proyecto.c ****     for (j = 0; j < 3; ++j) {
 6641              		.loc 1 1107 0
 6642 2f2c 0030A0E3 		mov	r3, #0
 6643 2f30 1C300BE5 		str	r3, [fp, #-28]
 6644 2f34 180000EA 		b	.L211
 6645              	.L212:
 6646              	.LBB4:
1108:../proyecto.c ****         parte_decimal *= 10;
 6647              		.loc 1 1108 0 discriminator 2
 6648 2f38 18201BE5 		ldr	r2, [fp, #-24]
 6649 2f3c 0230A0E1 		mov	r3, r2
 6650 2f40 0331A0E1 		mov	r3, r3, asl #2
 6651 2f44 023083E0 		add	r3, r3, r2
 6652 2f48 8330A0E1 		mov	r3, r3, asl #1
 6653 2f4c 18300BE5 		str	r3, [fp, #-24]
1109:../proyecto.c ****         int digit = parte_decimal >> QM;  // Ajuste aquí al cambiar la definición de TOFIX
 6654              		.loc 1 1109 0 discriminator 2
 6655 2f50 18301BE5 		ldr	r3, [fp, #-24]
 6656 2f54 4336A0E1 		mov	r3, r3, asr #12
 6657 2f58 24300BE5 		str	r3, [fp, #-36]
1110:../proyecto.c ****         *p++ = '0' + digit;
 6658              		.loc 1 1110 0 discriminator 2
 6659 2f5c 24301BE5 		ldr	r3, [fp, #-36]
 6660 2f60 FF3003E2 		and	r3, r3, #255
 6661 2f64 303083E2 		add	r3, r3, #48
 6662 2f68 FF2003E2 		and	r2, r3, #255
 6663 2f6c 10301BE5 		ldr	r3, [fp, #-16]
 6664 2f70 0020C3E5 		strb	r2, [r3, #0]
 6665 2f74 10301BE5 		ldr	r3, [fp, #-16]
 6666 2f78 013083E2 		add	r3, r3, #1
 6667 2f7c 10300BE5 		str	r3, [fp, #-16]
1111:../proyecto.c ****         parte_decimal &= ((1 << QM) - 1);
 6668              		.loc 1 1111 0 discriminator 2
 6669 2f80 18301BE5 		ldr	r3, [fp, #-24]
 6670 2f84 033AA0E1 		mov	r3, r3, asl #20
 6671 2f88 233AA0E1 		mov	r3, r3, lsr #20
 6672 2f8c 18300BE5 		str	r3, [fp, #-24]
 6673              	.LBE4:
1107:../proyecto.c ****     for (j = 0; j < 3; ++j) {
 6674              		.loc 1 1107 0 discriminator 2
 6675 2f90 1C301BE5 		ldr	r3, [fp, #-28]
 6676 2f94 013083E2 		add	r3, r3, #1
 6677 2f98 1C300BE5 		str	r3, [fp, #-28]
 6678              	.L211:
1107:../proyecto.c ****     for (j = 0; j < 3; ++j) {
 6679              		.loc 1 1107 0 is_stmt 0 discriminator 1
 6680 2f9c 1C301BE5 		ldr	r3, [fp, #-28]
 6681 2fa0 020053E3 		cmp	r3, #2
 6682 2fa4 E3FFFFDA 		ble	.L212
1112:../proyecto.c ****     }
1113:../proyecto.c **** 
1114:../proyecto.c ****     // Añadir terminador nulo
1115:../proyecto.c ****     *p = '\0';
 6683              		.loc 1 1115 0 is_stmt 1
 6684 2fa8 10301BE5 		ldr	r3, [fp, #-16]
 6685 2fac 0020A0E3 		mov	r2, #0
 6686 2fb0 0020C3E5 		strb	r2, [r3, #0]
1116:../proyecto.c **** 
1117:../proyecto.c ****     // Manejar el caso de números negativos
1118:../proyecto.c ****     if (negativo) {
 6687              		.loc 1 1118 0
 6688 2fb4 11305BE5 		ldrb	r3, [fp, #-17]	@ zero_extendqisi2
 6689 2fb8 000053E3 		cmp	r3, #0
 6690 2fbc 0500000A 		beq	.L213
1119:../proyecto.c ****         *--p = '-';
 6691              		.loc 1 1119 0
 6692 2fc0 10301BE5 		ldr	r3, [fp, #-16]
 6693 2fc4 013043E2 		sub	r3, r3, #1
 6694 2fc8 10300BE5 		str	r3, [fp, #-16]
 6695 2fcc 10301BE5 		ldr	r3, [fp, #-16]
 6696 2fd0 2D20A0E3 		mov	r2, #45
 6697 2fd4 0020C3E5 		strb	r2, [r3, #0]
 6698              	.L213:
1120:../proyecto.c ****     }
1121:../proyecto.c **** 
1122:../proyecto.c ****     lcd_puts_x2(x, y, color, buf);
 6699              		.loc 1 1122 0
 6700 2fd8 B6035BE1 		ldrh	r0, [fp, #-54]
 6701 2fdc B8135BE1 		ldrh	r1, [fp, #-56]
 6702 2fe0 39205BE5 		ldrb	r2, [fp, #-57]	@ zero_extendqisi2
 6703 2fe4 34304BE2 		sub	r3, fp, #52
 6704 2fe8 FEFFFFEB 		bl	lcd_puts_x2
1123:../proyecto.c **** }
 6705              		.loc 1 1123 0
 6706 2fec 0CD04BE2 		sub	sp, fp, #12
 6707 2ff0 00689DE8 		ldmfd	sp, {fp, sp, lr}
 6708 2ff4 1EFF2FE1 		bx	lr
 6709              	.L215:
 6710              		.align	2
 6711              	.L214:
 6712 2ff8 1F85EB51 		.word	1374389535
 6713 2ffc 67666666 		.word	1717986919
 6714              		.cfi_endproc
 6715              	.LFE19:
 6717              		.global	__aeabi_idiv
 6718              		.section	.rodata
 6719 01fa 0000     		.align	2
 6720              	.LC47:
 6721 01fc 6B696C6F 		.ascii	"kilometros\000"
 6721      6D657472 
 6721      6F7300
 6722 0207 00       		.align	2
 6723              	.LC48:
 6724 0208 43616C6F 		.ascii	"Calorias quemadas\000"
 6724      72696173 
 6724      20717565 
 6724      6D616461 
 6724      7300
 6725              		.text
 6726              		.align	2
 6727              		.global	muestraKilometros
 6729              	muestraKilometros:
 6730              	.LFB20:
1124:../proyecto.c **** 
1125:../proyecto.c **** 
1126:../proyecto.c **** void muestraKilometros() {
 6731              		.loc 1 1126 0
 6732              		.cfi_startproc
 6733              		@ Function supports interworking.
 6734              		@ args = 0, pretend = 0, frame = 16
 6735              		@ frame_needed = 1, uses_anonymous_args = 0
 6736 3000 0DC0A0E1 		mov	ip, sp
 6737              	.LCFI40:
 6738              		.cfi_def_cfa_register 12
 6739 3004 00D82DE9 		stmfd	sp!, {fp, ip, lr, pc}
 6740 3008 04B04CE2 		sub	fp, ip, #4
 6741              		.cfi_offset 14, -8
 6742              		.cfi_offset 13, -12
 6743              		.cfi_offset 11, -16
 6744              	.LCFI41:
 6745              		.cfi_def_cfa 11, 4
 6746 300c 10D04DE2 		sub	sp, sp, #16
1127:../proyecto.c ****     INT_DISABLE;
 6747              		.loc 1 1127 0
 6748              	@ 1127 "../proyecto.c" 1
 6749 3010 00000FE1 		mrs   r0, cpsr              
 6750 3014 04002DE5 	stmfd sp!, {r0}             
 6751 3018 C00080E3 	orr   r0, r0, #0b11000000   
 6752 301c 00F021E1 	msr   cpsr_c, r0              
 6753              	@ 0 "" 2
1128:../proyecto.c ****     uint16 pasosAux = total_pasos;
 6754              		.loc 1 1128 0
 6755 3020 D8309FE5 		ldr	r3, .L217
 6756 3024 B030D3E1 		ldrh	r3, [r3, #0]	@ movhi
 6757 3028 BE304BE1 		strh	r3, [fp, #-14]	@ movhi
1129:../proyecto.c ****     INT_ENABLE;
 6758              		.loc 1 1129 0
 6759              	@ 1129 "../proyecto.c" 1
 6760 302c 04009DE4 		ldmfd sp!, {r0}             
 6761 3030 00F021E1 	msr   cpsr_c, r0              
 6762              	@ 0 "" 2
1130:../proyecto.c **** 
1131:../proyecto.c ****     const fix16 metro_por_paso = TOFIX(fix16, 0.7023, QM); // Un paso son 0,7 metros
 6763              		.loc 1 1131 0
 6764 3034 C8309FE5 		ldr	r3, .L217+4
 6765 3038 B0314BE1 		strh	r3, [fp, #-16]	@ movhi
1132:../proyecto.c **** 
1133:../proyecto.c ****     fix32 kilometros = FDIV(FMUL(metro_por_paso, pasosAux, QM), 1000, QM);
 6766              		.loc 1 1133 0
 6767 303c F0315BE1 		ldrsh	r3, [fp, #-16]
 6768 3040 BE205BE1 		ldrh	r2, [fp, #-14]
 6769 3044 920303E0 		mul	r3, r2, r3
 6770 3048 FF3EC3E3 		bic	r3, r3, #4080
 6771 304c 0F30C3E3 		bic	r3, r3, #15
 6772 3050 B0209FE5 		ldr	r2, .L217+8
 6773 3054 9312C2E0 		smull	r1, r2, r3, r2
 6774 3058 4223A0E1 		mov	r2, r2, asr #6
 6775 305c C33FA0E1 		mov	r3, r3, asr #31
 6776 3060 023063E0 		rsb	r3, r3, r2
 6777 3064 14300BE5 		str	r3, [fp, #-20]
1134:../proyecto.c **** 
1135:../proyecto.c ****     // Convertir PESO_CORPORAL y FACTOR_CALORIAS a fix32
1136:../proyecto.c ****     const fix16 peso_corporal = TOFIX(fix16, PESO_CORPORAL, QM);
 6778              		.loc 1 1136 0
 6779 3068 0239E0E3 		mvn	r3, #32768
 6780 306c B6314BE1 		strh	r3, [fp, #-22]	@ movhi
1137:../proyecto.c ****     const fix16 factor_calorias = TOFIX(fix16, 0.200, QM);
 6781              		.loc 1 1137 0
 6782 3070 94309FE5 		ldr	r3, .L217+12
 6783 3074 B8314BE1 		strh	r3, [fp, #-24]	@ movhi
1138:../proyecto.c **** 
1139:../proyecto.c ****     // Calcular las calorías quemadas
1140:../proyecto.c ****     fix32 calorias_quemadas = FDIV(FMUL(kilometros, peso_corporal, QM), factor_calorias, QM);
 6784              		.loc 1 1140 0
 6785 3078 F6315BE1 		ldrsh	r3, [fp, #-22]
 6786 307c 14201BE5 		ldr	r2, [fp, #-20]
 6787 3080 920303E0 		mul	r3, r2, r3
 6788 3084 FF3EC3E3 		bic	r3, r3, #4080
 6789 3088 0F30C3E3 		bic	r3, r3, #15
 6790 308c F8215BE1 		ldrsh	r2, [fp, #-24]
 6791 3090 0300A0E1 		mov	r0, r3
 6792 3094 0210A0E1 		mov	r1, r2
 6793 3098 FEFFFFEB 		bl	__aeabi_idiv
 6794 309c 0030A0E1 		mov	r3, r0
 6795 30a0 1C300BE5 		str	r3, [fp, #-28]
1141:../proyecto.c **** 
1142:../proyecto.c ****     lcd_puts(38, 50, BLACK, "kilometros");
 6796              		.loc 1 1142 0
 6797 30a4 2600A0E3 		mov	r0, #38
 6798 30a8 3210A0E3 		mov	r1, #50
 6799 30ac 0F20A0E3 		mov	r2, #15
 6800 30b0 58309FE5 		ldr	r3, .L217+16
 6801 30b4 FEFFFFEB 		bl	lcd_puts
1143:../proyecto.c ****     // Mostrar el resultado en la pantalla LCD
1144:../proyecto.c ****     lcd_putKm_x2(38,65, BLACK, kilometros);
 6802              		.loc 1 1144 0
 6803 30b8 2600A0E3 		mov	r0, #38
 6804 30bc 4110A0E3 		mov	r1, #65
 6805 30c0 0F20A0E3 		mov	r2, #15
 6806 30c4 14301BE5 		ldr	r3, [fp, #-20]
 6807 30c8 FEFFFFEB 		bl	lcd_putKm_x2
1145:../proyecto.c **** 
1146:../proyecto.c ****     lcd_puts(160,50, BLACK, "Calorias quemadas");
 6808              		.loc 1 1146 0
 6809 30cc A000A0E3 		mov	r0, #160
 6810 30d0 3210A0E3 		mov	r1, #50
 6811 30d4 0F20A0E3 		mov	r2, #15
 6812 30d8 34309FE5 		ldr	r3, .L217+20
 6813 30dc FEFFFFEB 		bl	lcd_puts
1147:../proyecto.c ****     lcd_putCal_x2(160, 65, BLACK, calorias_quemadas);
 6814              		.loc 1 1147 0
 6815 30e0 A000A0E3 		mov	r0, #160
 6816 30e4 4110A0E3 		mov	r1, #65
 6817 30e8 0F20A0E3 		mov	r2, #15
 6818 30ec 1C301BE5 		ldr	r3, [fp, #-28]
 6819 30f0 FEFFFFEB 		bl	lcd_putCal_x2
1148:../proyecto.c **** }
 6820              		.loc 1 1148 0
 6821 30f4 0CD04BE2 		sub	sp, fp, #12
 6822 30f8 00689DE8 		ldmfd	sp, {fp, sp, lr}
 6823 30fc 1EFF2FE1 		bx	lr
 6824              	.L218:
 6825              		.align	2
 6826              	.L217:
 6827 3100 00000000 		.word	total_pasos
 6828 3104 3C0B0000 		.word	2876
 6829 3108 D34D6210 		.word	274877907
 6830 310c 33030000 		.word	819
 6831 3110 FC010000 		.word	.LC47
 6832 3114 08020000 		.word	.LC48
 6833              		.cfi_endproc
 6834              	.LFE20:
 6836              		.section	.rodata
 6837 021a 0000     		.align	2
 6838              	.LC49:
 6839 021c 5061736F 		.ascii	"Pasos totales:\000"
 6839      7320746F 
 6839      74616C65 
 6839      733A00
 6840 022b 00       		.align	2
 6841              	.LC50:
 6842 022c 5061736F 		.ascii	"Pasos por minuto:\000"
 6842      7320706F 
 6842      72206D69 
 6842      6E75746F 
 6842      3A00
 6843 023e 0000     		.align	2
 6844              	.LC51:
 6845 0240 4C617469 		.ascii	"Latidos por minuto:\000"
 6845      646F7320 
 6845      706F7220 
 6845      6D696E75 
 6845      746F3A00 
 6846              		.text
 6847              		.align	2
 6848              		.global	modoDeporte
 6850              	modoDeporte:
 6851              	.LFB21:
1149:../proyecto.c **** 
1150:../proyecto.c **** 
1151:../proyecto.c **** void modoDeporte( void ){
 6852              		.loc 1 1151 0
 6853              		.cfi_startproc
 6854              		@ Function supports interworking.
 6855              		@ args = 0, pretend = 0, frame = 8
 6856              		@ frame_needed = 1, uses_anonymous_args = 0
 6857 3118 0DC0A0E1 		mov	ip, sp
 6858              	.LCFI42:
 6859              		.cfi_def_cfa_register 12
 6860 311c 00D82DE9 		stmfd	sp!, {fp, ip, lr, pc}
 6861 3120 04B04CE2 		sub	fp, ip, #4
 6862              		.cfi_offset 14, -8
 6863              		.cfi_offset 13, -12
 6864              		.cfi_offset 11, -16
 6865              	.LCFI43:
 6866              		.cfi_def_cfa 11, 4
 6867 3124 10D04DE2 		sub	sp, sp, #16
1152:../proyecto.c **** 		boolean volverMenuPrincipal = FALSE;
 6868              		.loc 1 1152 0
 6869 3128 0030A0E3 		mov	r3, #0
 6870 312c 0D304BE5 		strb	r3, [fp, #-13]
1153:../proyecto.c **** 		boolean pintadoInicial = TRUE;
 6871              		.loc 1 1153 0
 6872 3130 0130A0E3 		mov	r3, #1
 6873 3134 0E304BE5 		strb	r3, [fp, #-14]
1154:../proyecto.c **** 		uint16 x, y;
1155:../proyecto.c **** 
1156:../proyecto.c **** 		//Limpiamos el menu principal
1157:../proyecto.c **** 		lcd_clear();
 6874              		.loc 1 1157 0
 6875 3138 FEFFFFEB 		bl	lcd_clear
1158:../proyecto.c **** 		lcd_draw_box( 10, 10, 310, 230, BLACK, 5 );
 6876              		.loc 1 1158 0
 6877 313c 0F30A0E3 		mov	r3, #15
 6878 3140 00308DE5 		str	r3, [sp, #0]
 6879 3144 0530A0E3 		mov	r3, #5
 6880 3148 04308DE5 		str	r3, [sp, #4]
 6881 314c 0A00A0E3 		mov	r0, #10
 6882 3150 0A10A0E3 		mov	r1, #10
 6883 3154 9C219FE5 		ldr	r2, .L224
 6884 3158 E630A0E3 		mov	r3, #230
 6885 315c FEFFFFEB 		bl	lcd_draw_box
1159:../proyecto.c **** 
1160:../proyecto.c **** 
1161:../proyecto.c **** 		while(!volverMenuPrincipal){
 6886              		.loc 1 1161 0
 6887 3160 5A0000EA 		b	.L220
 6888              	.L223:
1162:../proyecto.c **** 
1163:../proyecto.c **** 			//Aqui pintamos las cosas que no se actualizan
1164:../proyecto.c **** 			if(pintadoInicial){
 6889              		.loc 1 1164 0
 6890 3164 0E305BE5 		ldrb	r3, [fp, #-14]	@ zero_extendqisi2
 6891 3168 000053E3 		cmp	r3, #0
 6892 316c 0D00000A 		beq	.L221
1165:../proyecto.c **** 
1166:../proyecto.c **** 				//Mostrar opcion cambiar fecha
1167:../proyecto.c **** 				lcd_draw_box(170, 12, 310, 40, BLACK, 3);
 6893              		.loc 1 1167 0
 6894 3170 0F30A0E3 		mov	r3, #15
 6895 3174 00308DE5 		str	r3, [sp, #0]
 6896 3178 0330A0E3 		mov	r3, #3
 6897 317c 04308DE5 		str	r3, [sp, #4]
 6898 3180 AA00A0E3 		mov	r0, #170
 6899 3184 0C10A0E3 		mov	r1, #12
 6900 3188 68219FE5 		ldr	r2, .L224
 6901 318c 2830A0E3 		mov	r3, #40
 6902 3190 FEFFFFEB 		bl	lcd_draw_box
1168:../proyecto.c **** 				lcd_puts(180, 20, BLACK, "Menu principal");
 6903              		.loc 1 1168 0
 6904 3194 B400A0E3 		mov	r0, #180
 6905 3198 1410A0E3 		mov	r1, #20
 6906 319c 0F20A0E3 		mov	r2, #15
 6907 31a0 54319FE5 		ldr	r3, .L224+4
 6908 31a4 FEFFFFEB 		bl	lcd_puts
 6909              	.L221:
1169:../proyecto.c **** 
1170:../proyecto.c **** 			}
1171:../proyecto.c **** 
1172:../proyecto.c **** 			INT_DISABLE;
 6910              		.loc 1 1172 0
 6911              	@ 1172 "../proyecto.c" 1
 6912 31a8 00000FE1 		mrs   r0, cpsr              
 6913 31ac 04002DE5 	stmfd sp!, {r0}             
 6914 31b0 C00080E3 	orr   r0, r0, #0b11000000   
 6915 31b4 00F021E1 	msr   cpsr_c, r0              
 6916              	@ 0 "" 2
1173:../proyecto.c **** 			lcd_puts(30, 115, BLACK, "Pasos totales:");
 6917              		.loc 1 1173 0
 6918 31b8 1E00A0E3 		mov	r0, #30
 6919 31bc 7310A0E3 		mov	r1, #115
 6920 31c0 0F20A0E3 		mov	r2, #15
 6921 31c4 34319FE5 		ldr	r3, .L224+8
 6922 31c8 FEFFFFEB 		bl	lcd_puts
1174:../proyecto.c **** 			lcd_putint(145, 115, BLACK, (int32) total_pasos);
 6923              		.loc 1 1174 0
 6924 31cc 30319FE5 		ldr	r3, .L224+12
 6925 31d0 B030D3E1 		ldrh	r3, [r3, #0]	@ movhi
 6926 31d4 0338A0E1 		mov	r3, r3, asl #16
 6927 31d8 2338A0E1 		mov	r3, r3, lsr #16
 6928 31dc 9100A0E3 		mov	r0, #145
 6929 31e0 7310A0E3 		mov	r1, #115
 6930 31e4 0F20A0E3 		mov	r2, #15
 6931 31e8 FEFFFFEB 		bl	lcd_putint
1175:../proyecto.c **** 
1176:../proyecto.c **** 			lcd_puts(30, 140, BLACK, "Pasos por minuto:");
 6932              		.loc 1 1176 0
 6933 31ec 1E00A0E3 		mov	r0, #30
 6934 31f0 8C10A0E3 		mov	r1, #140
 6935 31f4 0F20A0E3 		mov	r2, #15
 6936 31f8 08319FE5 		ldr	r3, .L224+16
 6937 31fc FEFFFFEB 		bl	lcd_puts
1177:../proyecto.c **** 			lcd_putint(170, 140, BLACK, (int32) pasosPorMin);
 6938              		.loc 1 1177 0
 6939 3200 04319FE5 		ldr	r3, .L224+20
 6940 3204 B030D3E1 		ldrh	r3, [r3, #0]	@ movhi
 6941 3208 0338A0E1 		mov	r3, r3, asl #16
 6942 320c 2338A0E1 		mov	r3, r3, lsr #16
 6943 3210 AA00A0E3 		mov	r0, #170
 6944 3214 8C10A0E3 		mov	r1, #140
 6945 3218 0F20A0E3 		mov	r2, #15
 6946 321c FEFFFFEB 		bl	lcd_putint
1178:../proyecto.c **** 
1179:../proyecto.c **** 			lcd_puts(30, 165, BLACK, "Latidos por minuto:");
 6947              		.loc 1 1179 0
 6948 3220 1E00A0E3 		mov	r0, #30
 6949 3224 A510A0E3 		mov	r1, #165
 6950 3228 0F20A0E3 		mov	r2, #15
 6951 322c DC309FE5 		ldr	r3, .L224+24
 6952 3230 FEFFFFEB 		bl	lcd_puts
1180:../proyecto.c **** 			lcd_putint(190, 165, BLACK, (int32) latidosPorMin);
 6953              		.loc 1 1180 0
 6954 3234 D8309FE5 		ldr	r3, .L224+28
 6955 3238 B030D3E1 		ldrh	r3, [r3, #0]	@ movhi
 6956 323c 0338A0E1 		mov	r3, r3, asl #16
 6957 3240 2338A0E1 		mov	r3, r3, lsr #16
 6958 3244 BE00A0E3 		mov	r0, #190
 6959 3248 A510A0E3 		mov	r1, #165
 6960 324c 0F20A0E3 		mov	r2, #15
 6961 3250 FEFFFFEB 		bl	lcd_putint
1181:../proyecto.c **** 			INT_ENABLE;
 6962              		.loc 1 1181 0
 6963              	@ 1181 "../proyecto.c" 1
 6964 3254 04009DE4 		ldmfd sp!, {r0}             
 6965 3258 00F021E1 	msr   cpsr_c, r0              
 6966              	@ 0 "" 2
1182:../proyecto.c **** 
1183:../proyecto.c **** 			// Mostrar opcion contador pasos
1184:../proyecto.c **** 
1185:../proyecto.c **** 
1186:../proyecto.c **** 
1187:../proyecto.c **** 
1188:../proyecto.c **** 			muestraKilometros();
 6967              		.loc 1 1188 0
 6968 325c FEFFFFEB 		bl	muestraKilometros
1189:../proyecto.c **** 
1190:../proyecto.c **** 			//Para que no se quede el programa congelado esperando que el usuario presione la pantalla
1191:../proyecto.c **** 			if(ts_pressed()){
 6969              		.loc 1 1191 0
 6970 3260 FEFFFFEB 		bl	ts_pressed
 6971 3264 0030A0E1 		mov	r3, r0
 6972 3268 000053E3 		cmp	r3, #0
 6973 326c 0400000A 		beq	.L222
1192:../proyecto.c **** 				ts_getpos(&x,&y);
 6974              		.loc 1 1192 0
 6975 3270 10204BE2 		sub	r2, fp, #16
 6976 3274 12304BE2 		sub	r3, fp, #18
 6977 3278 0200A0E1 		mov	r0, r2
 6978 327c 0310A0E1 		mov	r1, r3
 6979 3280 FEFFFFEB 		bl	ts_getpos
 6980              	.L222:
1193:../proyecto.c **** 			}
1194:../proyecto.c **** 
1195:../proyecto.c **** 			if( x>170 && y>12 && x<310 && y<40 )
 6981              		.loc 1 1195 0
 6982 3284 B0315BE1 		ldrh	r3, [fp, #-16]
 6983 3288 AA0053E3 		cmp	r3, #170
 6984 328c 0F00009A 		bls	.L220
 6985              		.loc 1 1195 0 is_stmt 0 discriminator 1
 6986 3290 B2315BE1 		ldrh	r3, [fp, #-18]
 6987 3294 0C0053E3 		cmp	r3, #12
 6988 3298 0C00009A 		bls	.L220
 6989 329c B0215BE1 		ldrh	r2, [fp, #-16]
 6990 32a0 70309FE5 		ldr	r3, .L224+32
 6991 32a4 030052E1 		cmp	r2, r3
 6992 32a8 0800008A 		bhi	.L220
 6993 32ac B2315BE1 		ldrh	r3, [fp, #-18]
 6994 32b0 270053E3 		cmp	r3, #39
 6995 32b4 0500008A 		bhi	.L220
1196:../proyecto.c **** 				{
1197:../proyecto.c **** 					x=0;
 6996              		.loc 1 1197 0 is_stmt 1
 6997 32b8 0030A0E3 		mov	r3, #0
 6998 32bc B0314BE1 		strh	r3, [fp, #-16]	@ movhi
1198:../proyecto.c **** 					y = 0;
 6999              		.loc 1 1198 0
 7000 32c0 0030A0E3 		mov	r3, #0
 7001 32c4 B2314BE1 		strh	r3, [fp, #-18]	@ movhi
1199:../proyecto.c **** 					volverMenuPrincipal = TRUE;
 7002              		.loc 1 1199 0
 7003 32c8 0130A0E3 		mov	r3, #1
 7004 32cc 0D304BE5 		strb	r3, [fp, #-13]
 7005              	.L220:
1161:../proyecto.c **** 		while(!volverMenuPrincipal){
 7006              		.loc 1 1161 0 discriminator 1
 7007 32d0 0D305BE5 		ldrb	r3, [fp, #-13]	@ zero_extendqisi2
 7008 32d4 000053E3 		cmp	r3, #0
 7009 32d8 A1FFFF0A 		beq	.L223
1200:../proyecto.c **** 
1201:../proyecto.c **** 				}
1202:../proyecto.c **** 
1203:../proyecto.c **** 
1204:../proyecto.c **** 
1205:../proyecto.c **** 			}
1206:../proyecto.c **** 			pintarMenuPrincipal = TRUE;
 7010              		.loc 1 1206 0
 7011 32dc 38309FE5 		ldr	r3, .L224+36
 7012 32e0 0120A0E3 		mov	r2, #1
 7013 32e4 0020C3E5 		strb	r2, [r3, #0]
1207:../proyecto.c **** 			lcd_clear();
 7014              		.loc 1 1207 0
 7015 32e8 FEFFFFEB 		bl	lcd_clear
1208:../proyecto.c **** }
 7016              		.loc 1 1208 0
 7017 32ec 0CD04BE2 		sub	sp, fp, #12
 7018 32f0 00689DE8 		ldmfd	sp, {fp, sp, lr}
 7019 32f4 1EFF2FE1 		bx	lr
 7020              	.L225:
 7021              		.align	2
 7022              	.L224:
 7023 32f8 36010000 		.word	310
 7024 32fc E4000000 		.word	.LC28
 7025 3300 1C020000 		.word	.LC49
 7026 3304 00000000 		.word	total_pasos
 7027 3308 2C020000 		.word	.LC50
 7028 330c 00000000 		.word	pasosPorMin
 7029 3310 40020000 		.word	.LC51
 7030 3314 00000000 		.word	latidosPorMin
 7031 3318 35010000 		.word	309
 7032 331c 00000000 		.word	pintarMenuPrincipal
 7033              		.cfi_endproc
 7034              	.LFE21:
 7036              		.align	2
 7037              		.global	one_second_loop
 7039              	one_second_loop:
 7040              	.LFB22:
1209:../proyecto.c **** 
1210:../proyecto.c **** 
1211:../proyecto.c **** void one_second_loop( void )
1212:../proyecto.c **** {
 7041              		.loc 1 1212 0
 7042              		.cfi_startproc
 7043              		@ Function supports interworking.
 7044              		@ args = 0, pretend = 0, frame = 8
 7045              		@ frame_needed = 1, uses_anonymous_args = 0
 7046 3320 0DC0A0E1 		mov	ip, sp
 7047              	.LCFI44:
 7048              		.cfi_def_cfa_register 12
 7049 3324 00D82DE9 		stmfd	sp!, {fp, ip, lr, pc}
 7050 3328 04B04CE2 		sub	fp, ip, #4
 7051              		.cfi_offset 14, -8
 7052              		.cfi_offset 13, -12
 7053              		.cfi_offset 11, -16
 7054              	.LCFI45:
 7055              		.cfi_def_cfa 11, 4
 7056 332c 08D04DE2 		sub	sp, sp, #8
1213:../proyecto.c ****     uint32 i;
1214:../proyecto.c **** 
1215:../proyecto.c ****     for( i=591436; i; i-- );
 7057              		.loc 1 1215 0
 7058 3330 28309FE5 		ldr	r3, .L229
 7059 3334 10300BE5 		str	r3, [fp, #-16]
 7060 3338 020000EA 		b	.L227
 7061              	.L228:
 7062              		.loc 1 1215 0 is_stmt 0 discriminator 2
 7063 333c 10301BE5 		ldr	r3, [fp, #-16]
 7064 3340 013043E2 		sub	r3, r3, #1
 7065 3344 10300BE5 		str	r3, [fp, #-16]
 7066              	.L227:
 7067              		.loc 1 1215 0 discriminator 1
 7068 3348 10301BE5 		ldr	r3, [fp, #-16]
 7069 334c 000053E3 		cmp	r3, #0
 7070 3350 F9FFFF1A 		bne	.L228
1216:../proyecto.c **** }
 7071              		.loc 1 1216 0 is_stmt 1
 7072 3354 0CD04BE2 		sub	sp, fp, #12
 7073 3358 00689DE8 		ldmfd	sp, {fp, sp, lr}
 7074 335c 1EFF2FE1 		bx	lr
 7075              	.L230:
 7076              		.align	2
 7077              	.L229:
 7078 3360 4C060900 		.word	591436
 7079              		.cfi_endproc
 7080              	.LFE22:
 7082              		.align	2
 7084              	beatHandler:
 7085              	.LFB23:
1217:../proyecto.c **** 
1218:../proyecto.c **** /*--------------------Funciones para las interrupciones--------------------*/
1219:../proyecto.c **** void beatHandler( void )
1220:../proyecto.c **** {
 7086              		.loc 1 1220 0
 7087              		.cfi_startproc
 7088              		@ Interrupt Service Routine.
 7089              		@ args = 0, pretend = 0, frame = 0
 7090              		@ frame_needed = 1, uses_anonymous_args = 0
 7091 3364 04C02DE5 		str	ip, [sp, #-4]!
 7092 3368 0DC0A0E1 		mov	ip, sp
 7093              	.LCFI46:
 7094              		.cfi_def_cfa_register 12
 7095 336c 0CD82DE9 		stmfd	sp!, {r2, r3, fp, ip, lr, pc}
 7096 3370 04B04CE2 		sub	fp, ip, #4
 7097              		.cfi_offset 14, -8
 7098              		.cfi_offset 13, -12
 7099              		.cfi_offset 11, -16
 7100              		.cfi_offset 3, -20
 7101              		.cfi_offset 2, -24
 7102              	.LCFI47:
 7103              		.cfi_def_cfa 11, 4
1221:../proyecto.c ****     newBeat = TRUE;
 7104              		.loc 1 1221 0
 7105 3374 44309FE5 		ldr	r3, .L232
 7106 3378 0120A0E3 		mov	r2, #1
 7107 337c 0020C3E5 		strb	r2, [r3, #0]
1222:../proyecto.c ****     I_ISPC  = BIT_BEATEMULATOR;
 7108              		.loc 1 1222 0
 7109 3380 3C309FE5 		ldr	r3, .L232+4
 7110 3384 012BA0E3 		mov	r2, #1024
 7111 3388 002083E5 		str	r2, [r3, #0]
1223:../proyecto.c ****     contador_latidos++;
 7112              		.loc 1 1223 0
 7113 338c 34309FE5 		ldr	r3, .L232+8
 7114 3390 B030D3E1 		ldrh	r3, [r3, #0]	@ movhi
 7115 3394 0338A0E1 		mov	r3, r3, asl #16
 7116 3398 2338A0E1 		mov	r3, r3, lsr #16
 7117 339c 013083E2 		add	r3, r3, #1
 7118 33a0 0338A0E1 		mov	r3, r3, asl #16
 7119 33a4 2328A0E1 		mov	r2, r3, lsr #16
 7120 33a8 18309FE5 		ldr	r3, .L232+8
 7121 33ac B020C3E1 		strh	r2, [r3, #0]	@ movhi
1224:../proyecto.c **** }
 7122              		.loc 1 1224 0
 7123 33b0 14D04BE2 		sub	sp, fp, #20
 7124 33b4 0C689DE8 		ldmfd	sp, {r2, r3, fp, sp, lr}
 7125 33b8 04C09DE4 		ldmfd	sp!, {ip}
 7126 33bc 04F05EE2 		subs	pc, lr, #4
 7127              	.L233:
 7128              		.align	2
 7129              	.L232:
 7130 33c0 00000000 		.word	newBeat
 7131 33c4 2400E001 		.word	31457316
 7132 33c8 00000000 		.word	contador_latidos
 7133              		.cfi_endproc
 7134              	.LFE23:
 7136              		.align	2
 7138              	stepHandler:
 7139              	.LFB24:
1225:../proyecto.c **** 
1226:../proyecto.c **** void stepHandler( void )
1227:../proyecto.c **** {
 7140              		.loc 1 1227 0
 7141              		.cfi_startproc
 7142              		@ Interrupt Service Routine.
 7143              		@ args = 0, pretend = 0, frame = 0
 7144              		@ frame_needed = 1, uses_anonymous_args = 0
 7145 33cc 04C02DE5 		str	ip, [sp, #-4]!
 7146 33d0 0DC0A0E1 		mov	ip, sp
 7147              	.LCFI48:
 7148              		.cfi_def_cfa_register 12
 7149 33d4 0CD82DE9 		stmfd	sp!, {r2, r3, fp, ip, lr, pc}
 7150 33d8 04B04CE2 		sub	fp, ip, #4
 7151              		.cfi_offset 14, -8
 7152              		.cfi_offset 13, -12
 7153              		.cfi_offset 11, -16
 7154              		.cfi_offset 3, -20
 7155              		.cfi_offset 2, -24
 7156              	.LCFI49:
 7157              		.cfi_def_cfa 11, 4
1228:../proyecto.c ****     newStep = TRUE;
 7158              		.loc 1 1228 0
 7159 33dc 68309FE5 		ldr	r3, .L235
 7160 33e0 0120A0E3 		mov	r2, #1
 7161 33e4 0020C3E5 		strb	r2, [r3, #0]
1229:../proyecto.c ****     I_ISPC  = BIT_STEPEMULATOR;
 7162              		.loc 1 1229 0
 7163 33e8 60309FE5 		ldr	r3, .L235+4
 7164 33ec 022BA0E3 		mov	r2, #2048
 7165 33f0 002083E5 		str	r2, [r3, #0]
1230:../proyecto.c ****     contador_pasos++;
 7166              		.loc 1 1230 0
 7167 33f4 58309FE5 		ldr	r3, .L235+8
 7168 33f8 B030D3E1 		ldrh	r3, [r3, #0]	@ movhi
 7169 33fc 0338A0E1 		mov	r3, r3, asl #16
 7170 3400 2338A0E1 		mov	r3, r3, lsr #16
 7171 3404 013083E2 		add	r3, r3, #1
 7172 3408 0338A0E1 		mov	r3, r3, asl #16
