
proyecto.elf:     file format elf32-littlearm

Sections:
Idx Name          Size      VMA       LMA       File off  Algn
  0 .text         00009cd8  0c100000  0c100000  00008000  2**2
                  CONTENTS, ALLOC, LOAD, READONLY, CODE
  1 .rodata       00001c90  0c109cd8  0c109cd8  00011cd8  2**2
                  CONTENTS, ALLOC, LOAD, READONLY, DATA
  2 .ARM.exidx    00000008  0c10b968  0c10b968  00013968  2**2
                  CONTENTS, ALLOC, LOAD, READONLY, DATA
  3 .data         00000001  0c10b970  0c10b970  00013970  2**0
                  CONTENTS, ALLOC, LOAD, DATA
  4 .bss          00009a54  0c10b974  0c10b974  00013971  2**2
                  ALLOC
  5 .debug_abbrev 00000d5b  00000000  00000000  00013971  2**0
                  CONTENTS, READONLY, DEBUGGING
  6 .debug_info   00002c7d  00000000  00000000  000146cc  2**0
                  CONTENTS, READONLY, DEBUGGING
  7 .debug_line   00001650  00000000  00000000  00017349  2**0
                  CONTENTS, READONLY, DEBUGGING
  8 .debug_macinfo 00040bd2  00000000  00000000  00018999  2**0
                  CONTENTS, READONLY, DEBUGGING
  9 .debug_loc    00001d38  00000000  00000000  0005956b  2**0
                  CONTENTS, READONLY, DEBUGGING
 10 .debug_pubnames 00000c28  00000000  00000000  0005b2a3  2**0
                  CONTENTS, READONLY, DEBUGGING
 11 .debug_pubtypes 0000031f  00000000  00000000  0005becb  2**0
                  CONTENTS, READONLY, DEBUGGING
 12 .debug_aranges 000001a0  00000000  00000000  0005c1ea  2**0
                  CONTENTS, READONLY, DEBUGGING
 13 .debug_str    00000e19  00000000  00000000  0005c38a  2**0
                  CONTENTS, READONLY, DEBUGGING
 14 .comment      0000002a  00000000  00000000  0005d1a3  2**0
                  CONTENTS, READONLY
 15 .ARM.attributes 00000032  00000000  00000000  0005d1cd  2**0
                  CONTENTS, READONLY
 16 .debug_frame  000018ec  00000000  00000000  0005d200  2**2
                  CONTENTS, READONLY, DEBUGGING

Disassembly of section .text:

0c100000 <main>:
void modoFecha( void );
void modoDeporte( void );

uint8 prueba=0;
int main( void )
{
 c100000:	e1a0c00d 	mov	ip, sp
 c100004:	e92dd800 	push	{fp, ip, lr, pc}
 c100008:	e24cb004 	sub	fp, ip, #4
	/*Inits de los drivers*/
	sys_init();
 c10000c:	eb001a14 	bl	c106864 <sys_init>
	leds_init();
 c100010:	eb00167f 	bl	c105a14 <leds_init>

    timers_init();
 c100014:	eb001d6b 	bl	c1075c8 <timers_init>
    keypad_init();
 c100018:	eb00122e 	bl	c1048d8 <keypad_init>
    pbs_init();
 c10001c:	eb0016f3 	bl	c105bf0 <pbs_init>

	//Iniciamos el touchpad
	ts_init();
 c100020:	eb001fee 	bl	c107fe0 <ts_init>
	ts_on();
 c100024:	eb001fff 	bl	c108028 <ts_on>

    lcd_init();
 c100028:	eb0012ab 	bl	c104adc <lcd_init>
    lcd_clear();
 c10002c:	eb001333 	bl	c104d00 <lcd_clear>
    lcd_on();
 c100030:	eb00130a 	bl	c104c60 <lcd_on>

	startSensorsEmulator( beatHandler, stepHandler, 60, 60 );     // Arranca el emulador de sensores, instalando beatHandler y stepHandler como RTI de los respectivos sensores
 c100034:	e59f00bc 	ldr	r0, [pc, #188]	; c1000f8 <main+0xf8>
 c100038:	e59f10bc 	ldr	r1, [pc, #188]	; c1000fc <main+0xfc>
 c10003c:	e3a0203c 	mov	r2, #60	; 0x3c
 c100040:	e3a0303c 	mov	r3, #60	; 0x3c
 c100044:	eb000d53 	bl	c103598 <startSensorsEmulator>
	pbs_open( isr_pbs );
 c100048:	e59f00b0 	ldr	r0, [pc, #176]	; c100100 <main+0x100>
 c10004c:	eb00178c 	bl	c105e84 <pbs_open>
	sistemaEncendido = FALSE;
 c100050:	e59f30ac 	ldr	r3, [pc, #172]	; c100104 <main+0x104>
 c100054:	e3a02000 	mov	r2, #0
 c100058:	e5c32000 	strb	r2, [r3]
	pintarMenuPrincipal = TRUE;
 c10005c:	e59f30a4 	ldr	r3, [pc, #164]	; c100108 <main+0x108>
 c100060:	e3a02001 	mov	r2, #1
 c100064:	e5c32000 	strb	r2, [r3]

	contador_latidos=0;
 c100068:	e59f309c 	ldr	r3, [pc, #156]	; c10010c <main+0x10c>
 c10006c:	e3a02000 	mov	r2, #0
 c100070:	e1c320b0 	strh	r2, [r3]
	contador_pasos=0;
 c100074:	e59f3094 	ldr	r3, [pc, #148]	; c100110 <main+0x110>
 c100078:	e3a02000 	mov	r2, #0
 c10007c:	e1c320b0 	strh	r2, [r3]
	segundos_transcurridos =0;
 c100080:	e59f308c 	ldr	r3, [pc, #140]	; c100114 <main+0x114>
 c100084:	e3a02000 	mov	r2, #0
 c100088:	e1c320b0 	strh	r2, [r3]
	total_pasos =0;
 c10008c:	e59f3084 	ldr	r3, [pc, #132]	; c100118 <main+0x118>
 c100090:	e3a02000 	mov	r2, #0
 c100094:	e1c320b0 	strh	r2, [r3]
	latidosPorMin=0;
 c100098:	e59f307c 	ldr	r3, [pc, #124]	; c10011c <main+0x11c>
 c10009c:	e3a02000 	mov	r2, #0
 c1000a0:	e1c320b0 	strh	r2, [r3]
	pasosPorMin =0;
 c1000a4:	e59f3074 	ldr	r3, [pc, #116]	; c100120 <main+0x120>
 c1000a8:	e3a02000 	mov	r2, #0
 c1000ac:	e1c320b0 	strh	r2, [r3]
	rtc_cronometro.hour=0;
 c1000b0:	e59f306c 	ldr	r3, [pc, #108]	; c100124 <main+0x124>
 c1000b4:	e3a02000 	mov	r2, #0
 c1000b8:	e5c32002 	strb	r2, [r3, #2]
	rtc_cronometro.min=0;
 c1000bc:	e59f3060 	ldr	r3, [pc, #96]	; c100124 <main+0x124>
 c1000c0:	e3a02000 	mov	r2, #0
 c1000c4:	e5c32001 	strb	r2, [r3, #1]
	rtc_cronometro.sec=0;
 c1000c8:	e59f3054 	ldr	r3, [pc, #84]	; c100124 <main+0x124>
 c1000cc:	e3a02000 	mov	r2, #0
 c1000d0:	e5c32000 	strb	r2, [r3]

	//Inicializacion y configuracion del reloj de la pantalla
	rtc_init();
 c1000d4:	eb001795 	bl	c105f30 <rtc_init>
	flagRtc = FALSE;
 c1000d8:	e59f3048 	ldr	r3, [pc, #72]	; c100128 <main+0x128>
 c1000dc:	e3a02000 	mov	r2, #0
 c1000e0:	e5c32000 	strb	r2, [r3]
	//Ponemos que se genere una interrupcion RTC
	rtc_open( isr_tick, 127);
 c1000e4:	e59f0040 	ldr	r0, [pc, #64]	; c10012c <main+0x12c>
 c1000e8:	e3a0107f 	mov	r1, #127	; 0x7f
 c1000ec:	eb0019a8 	bl	c106794 <rtc_open>

    while( 1 )
    {

    	/*Programa principal*/
    	menuPrincipal();
 c1000f0:	eb000297 	bl	c100b54 <menuPrincipal>

    };
 c1000f4:	eafffffd 	b	c1000f0 <main+0xf0>
 c1000f8:	0c103364 	.word	0x0c103364
 c1000fc:	0c1033cc 	.word	0x0c1033cc
 c100100:	0c103548 	.word	0x0c103548
 c100104:	0c10b97a 	.word	0x0c10b97a
 c100108:	0c10b970 	.word	0x0c10b970
 c10010c:	0c10bd9c 	.word	0x0c10bd9c
 c100110:	0c10bdac 	.word	0x0c10bdac
 c100114:	0c10bd9e 	.word	0x0c10bd9e
 c100118:	0c10bdb8 	.word	0x0c10bdb8
 c10011c:	0c10bda0 	.word	0x0c10bda0
 c100120:	0c10bdc4 	.word	0x0c10bdc4
 c100124:	0c10bdbc 	.word	0x0c10bdbc
 c100128:	0c10b979 	.word	0x0c10b979
 c10012c:	0c10345c 	.word	0x0c10345c

0c100130 <funcionalidadComun>:
    return 0;
}



void funcionalidadComun(){ //Funcion que contiene los calculos que el sistema hace idependiente del modo donde estemos
 c100130:	e1a0c00d 	mov	ip, sp
 c100134:	e92dd800 	push	{fp, ip, lr, pc}
 c100138:	e24cb004 	sub	fp, ip, #4

			if( newBeat )
 c10013c:	e59f30f0 	ldr	r3, [pc, #240]	; c100234 <funcionalidadComun+0x104>
 c100140:	e5d33000 	ldrb	r3, [r3]
 c100144:	e20330ff 	and	r3, r3, #255	; 0xff
 c100148:	e3530000 	cmp	r3, #0
 c10014c:	0a000004 	beq	c100164 <funcionalidadComun+0x34>
		    	{
		    		newBeat = FALSE;
 c100150:	e59f30dc 	ldr	r3, [pc, #220]	; c100234 <funcionalidadComun+0x104>
 c100154:	e3a02000 	mov	r2, #0
 c100158:	e5c32000 	strb	r2, [r3]
		    		led_toggle( LEFT_LED );
 c10015c:	e3a00001 	mov	r0, #1
 c100160:	eb00166b 	bl	c105b14 <led_toggle>
		    	}
		    	//Generador de pasos
		    	if( newStep )
 c100164:	e59f30cc 	ldr	r3, [pc, #204]	; c100238 <funcionalidadComun+0x108>
 c100168:	e5d33000 	ldrb	r3, [r3]
 c10016c:	e20330ff 	and	r3, r3, #255	; 0xff
 c100170:	e3530000 	cmp	r3, #0
 c100174:	0a000004 	beq	c10018c <funcionalidadComun+0x5c>
		    	{
		    		newStep = FALSE;
 c100178:	e59f30b8 	ldr	r3, [pc, #184]	; c100238 <funcionalidadComun+0x108>
 c10017c:	e3a02000 	mov	r2, #0
 c100180:	e5c32000 	strb	r2, [r3]
		    		led_toggle( RIGHT_LED );
 c100184:	e3a00002 	mov	r0, #2
 c100188:	eb001661 	bl	c105b14 <led_toggle>
		    	}

		    	if (segundos_transcurridos > 10) {
 c10018c:	e59f30a8 	ldr	r3, [pc, #168]	; c10023c <funcionalidadComun+0x10c>
 c100190:	e1d330b0 	ldrh	r3, [r3]
 c100194:	e1a03803 	lsl	r3, r3, #16
 c100198:	e1a03823 	lsr	r3, r3, #16
 c10019c:	e353000a 	cmp	r3, #10
 c1001a0:	9a000020 	bls	c100228 <funcionalidadComun+0xf8>
					// Calcular estimación de latidos por minuto y pasos por minuto
		    		latidosPorMin = contador_latidos * 6;
 c1001a4:	e59f3094 	ldr	r3, [pc, #148]	; c100240 <funcionalidadComun+0x110>
 c1001a8:	e1d330b0 	ldrh	r3, [r3]
 c1001ac:	e1a03803 	lsl	r3, r3, #16
 c1001b0:	e1a03823 	lsr	r3, r3, #16
 c1001b4:	e1a02003 	mov	r2, r3
 c1001b8:	e1a02082 	lsl	r2, r2, #1
 c1001bc:	e0823003 	add	r3, r2, r3
 c1001c0:	e1a03083 	lsl	r3, r3, #1
 c1001c4:	e1a03803 	lsl	r3, r3, #16
 c1001c8:	e1a02823 	lsr	r2, r3, #16
 c1001cc:	e59f3070 	ldr	r3, [pc, #112]	; c100244 <funcionalidadComun+0x114>
 c1001d0:	e1c320b0 	strh	r2, [r3]
		    		pasosPorMin = contador_pasos * 6;
 c1001d4:	e59f306c 	ldr	r3, [pc, #108]	; c100248 <funcionalidadComun+0x118>
 c1001d8:	e1d330b0 	ldrh	r3, [r3]
 c1001dc:	e1a03803 	lsl	r3, r3, #16
 c1001e0:	e1a03823 	lsr	r3, r3, #16
 c1001e4:	e1a02003 	mov	r2, r3
 c1001e8:	e1a02082 	lsl	r2, r2, #1
 c1001ec:	e0823003 	add	r3, r2, r3
 c1001f0:	e1a03083 	lsl	r3, r3, #1
 c1001f4:	e1a03803 	lsl	r3, r3, #16
 c1001f8:	e1a02823 	lsr	r2, r3, #16
 c1001fc:	e59f3048 	ldr	r3, [pc, #72]	; c10024c <funcionalidadComun+0x11c>
 c100200:	e1c320b0 	strh	r2, [r3]

					//Restablecer contadores
					contador_pasos=0;
 c100204:	e59f303c 	ldr	r3, [pc, #60]	; c100248 <funcionalidadComun+0x118>
 c100208:	e3a02000 	mov	r2, #0
 c10020c:	e1c320b0 	strh	r2, [r3]
					contador_latidos=0;
 c100210:	e59f3028 	ldr	r3, [pc, #40]	; c100240 <funcionalidadComun+0x110>
 c100214:	e3a02000 	mov	r2, #0
 c100218:	e1c320b0 	strh	r2, [r3]
					// Restablecer el temporizador
					segundos_transcurridos = 0;
 c10021c:	e59f3018 	ldr	r3, [pc, #24]	; c10023c <funcionalidadComun+0x10c>
 c100220:	e3a02000 	mov	r2, #0
 c100224:	e1c320b0 	strh	r2, [r3]
				}
}
 c100228:	e24bd00c 	sub	sp, fp, #12
 c10022c:	e89d6800 	ldm	sp, {fp, sp, lr}
 c100230:	e12fff1e 	bx	lr
 c100234:	0c10b974 	.word	0x0c10b974
 c100238:	0c10b975 	.word	0x0c10b975
 c10023c:	0c10bd9e 	.word	0x0c10bd9e
 c100240:	0c10bd9c 	.word	0x0c10bd9c
 c100244:	0c10bda0 	.word	0x0c10bda0
 c100248:	0c10bdac 	.word	0x0c10bdac
 c10024c:	0c10bdc4 	.word	0x0c10bdc4

0c100250 <compareMonth>:
int compareMonth(const char* monthStr, const char* month) {
 c100250:	e1a0c00d 	mov	ip, sp
 c100254:	e92dd800 	push	{fp, ip, lr, pc}
 c100258:	e24cb004 	sub	fp, ip, #4
 c10025c:	e24dd010 	sub	sp, sp, #16
 c100260:	e50b0018 	str	r0, [fp, #-24]	; 0xffffffe8
 c100264:	e50b101c 	str	r1, [fp, #-28]	; 0xffffffe4
	int i;
	for ( i = 0; i < 3; ++i) {
 c100268:	e3a03000 	mov	r3, #0
 c10026c:	e50b3010 	str	r3, [fp, #-16]
 c100270:	ea00000e 	b	c1002b0 <compareMonth+0x60>
		if (monthStr[i] != month[i]) {
 c100274:	e51b3010 	ldr	r3, [fp, #-16]
 c100278:	e51b2018 	ldr	r2, [fp, #-24]	; 0xffffffe8
 c10027c:	e0823003 	add	r3, r2, r3
 c100280:	e5d32000 	ldrb	r2, [r3]
 c100284:	e51b3010 	ldr	r3, [fp, #-16]
 c100288:	e51b101c 	ldr	r1, [fp, #-28]	; 0xffffffe4
 c10028c:	e0813003 	add	r3, r1, r3
 c100290:	e5d33000 	ldrb	r3, [r3]
 c100294:	e1520003 	cmp	r2, r3
 c100298:	0a000001 	beq	c1002a4 <compareMonth+0x54>
			return 0;
 c10029c:	e3a03000 	mov	r3, #0
 c1002a0:	ea000006 	b	c1002c0 <compareMonth+0x70>
					segundos_transcurridos = 0;
				}
}
int compareMonth(const char* monthStr, const char* month) {
	int i;
	for ( i = 0; i < 3; ++i) {
 c1002a4:	e51b3010 	ldr	r3, [fp, #-16]
 c1002a8:	e2833001 	add	r3, r3, #1
 c1002ac:	e50b3010 	str	r3, [fp, #-16]
 c1002b0:	e51b3010 	ldr	r3, [fp, #-16]
 c1002b4:	e3530002 	cmp	r3, #2
 c1002b8:	daffffed 	ble	c100274 <compareMonth+0x24>
		if (monthStr[i] != month[i]) {
			return 0;
		}
	}
	return 1;
 c1002bc:	e3a03001 	mov	r3, #1
}
 c1002c0:	e1a00003 	mov	r0, r3
 c1002c4:	e24bd00c 	sub	sp, fp, #12
 c1002c8:	e89d6800 	ldm	sp, {fp, sp, lr}
 c1002cc:	e12fff1e 	bx	lr

0c1002d0 <calcularDiaSemana>:
uint8 calcularDiaSemana(uint8 year, uint8 month, uint8 day) {
 c1002d0:	e1a0c00d 	mov	ip, sp
 c1002d4:	e92dd800 	push	{fp, ip, lr, pc}
 c1002d8:	e24cb004 	sub	fp, ip, #4
 c1002dc:	e24dd018 	sub	sp, sp, #24
 c1002e0:	e1a03002 	mov	r3, r2
 c1002e4:	e1a02000 	mov	r2, r0
 c1002e8:	e54b201d 	strb	r2, [fp, #-29]	; 0xffffffe3
 c1002ec:	e1a02001 	mov	r2, r1
 c1002f0:	e54b201e 	strb	r2, [fp, #-30]	; 0xffffffe2
 c1002f4:	e54b301f 	strb	r3, [fp, #-31]	; 0xffffffe1
    if (month < 3) {
 c1002f8:	e55b301e 	ldrb	r3, [fp, #-30]	; 0xffffffe2
 c1002fc:	e3530002 	cmp	r3, #2
 c100300:	8a000005 	bhi	c10031c <calcularDiaSemana+0x4c>
        month += 12;
 c100304:	e55b301e 	ldrb	r3, [fp, #-30]	; 0xffffffe2
 c100308:	e283300c 	add	r3, r3, #12
 c10030c:	e54b301e 	strb	r3, [fp, #-30]	; 0xffffffe2
        year--;
 c100310:	e55b301d 	ldrb	r3, [fp, #-29]	; 0xffffffe3
 c100314:	e2433001 	sub	r3, r3, #1
 c100318:	e54b301d 	strb	r3, [fp, #-29]	; 0xffffffe3
    }
    int K = year % 100;
 c10031c:	e55b201d 	ldrb	r2, [fp, #-29]	; 0xffffffe3
 c100320:	e59f314c 	ldr	r3, [pc, #332]	; c100474 <calcularDiaSemana+0x1a4>
 c100324:	e0830392 	umull	r0, r3, r2, r3
 c100328:	e1a012a3 	lsr	r1, r3, #5
 c10032c:	e1a03001 	mov	r3, r1
 c100330:	e1a03103 	lsl	r3, r3, #2
 c100334:	e0833001 	add	r3, r3, r1
 c100338:	e1a01103 	lsl	r1, r3, #2
 c10033c:	e0833001 	add	r3, r3, r1
 c100340:	e1a03103 	lsl	r3, r3, #2
 c100344:	e0633002 	rsb	r3, r3, r2
 c100348:	e20330ff 	and	r3, r3, #255	; 0xff
 c10034c:	e50b3014 	str	r3, [fp, #-20]	; 0xffffffec
    int J = year / 100;
 c100350:	e55b201d 	ldrb	r2, [fp, #-29]	; 0xffffffe3
 c100354:	e59f3118 	ldr	r3, [pc, #280]	; c100474 <calcularDiaSemana+0x1a4>
 c100358:	e0831392 	umull	r1, r3, r2, r3
 c10035c:	e1a032a3 	lsr	r3, r3, #5
 c100360:	e20330ff 	and	r3, r3, #255	; 0xff
 c100364:	e50b3018 	str	r3, [fp, #-24]	; 0xffffffe8

    int dayOfWeek = (day + 13 * (month + 1) / 5 + K + K / 4 + J / 4 - 2 * J) % 7;
 c100368:	e55b101f 	ldrb	r1, [fp, #-31]	; 0xffffffe1
 c10036c:	e55b301e 	ldrb	r3, [fp, #-30]	; 0xffffffe2
 c100370:	e2832001 	add	r2, r3, #1
 c100374:	e1a03002 	mov	r3, r2
 c100378:	e1a03083 	lsl	r3, r3, #1
 c10037c:	e0833002 	add	r3, r3, r2
 c100380:	e1a03103 	lsl	r3, r3, #2
 c100384:	e0833002 	add	r3, r3, r2
 c100388:	e59f20e8 	ldr	r2, [pc, #232]	; c100478 <calcularDiaSemana+0x1a8>
 c10038c:	e0c20293 	smull	r0, r2, r3, r2
 c100390:	e1a020c2 	asr	r2, r2, #1
 c100394:	e1a03fc3 	asr	r3, r3, #31
 c100398:	e0633002 	rsb	r3, r3, r2
 c10039c:	e0812003 	add	r2, r1, r3
 c1003a0:	e51b3014 	ldr	r3, [fp, #-20]	; 0xffffffec
 c1003a4:	e0822003 	add	r2, r2, r3
 c1003a8:	e51b3014 	ldr	r3, [fp, #-20]	; 0xffffffec
 c1003ac:	e2831003 	add	r1, r3, #3
 c1003b0:	e3530000 	cmp	r3, #0
 c1003b4:	b1a03001 	movlt	r3, r1
 c1003b8:	e1a03143 	asr	r3, r3, #2
 c1003bc:	e0822003 	add	r2, r2, r3
 c1003c0:	e51b3018 	ldr	r3, [fp, #-24]	; 0xffffffe8
 c1003c4:	e2831003 	add	r1, r3, #3
 c1003c8:	e3530000 	cmp	r3, #0
 c1003cc:	b1a03001 	movlt	r3, r1
 c1003d0:	e1a03143 	asr	r3, r3, #2
 c1003d4:	e0821003 	add	r1, r2, r3
 c1003d8:	e51b2018 	ldr	r2, [fp, #-24]	; 0xffffffe8
 c1003dc:	e1a03002 	mov	r3, r2
 c1003e0:	e1a03f83 	lsl	r3, r3, #31
 c1003e4:	e0623003 	rsb	r3, r2, r3
 c1003e8:	e1a03083 	lsl	r3, r3, #1
 c1003ec:	e0812003 	add	r2, r1, r3
 c1003f0:	e59f3084 	ldr	r3, [pc, #132]	; c10047c <calcularDiaSemana+0x1ac>
 c1003f4:	e0c31392 	smull	r1, r3, r2, r3
 c1003f8:	e0833002 	add	r3, r3, r2
 c1003fc:	e1a01143 	asr	r1, r3, #2
 c100400:	e1a03fc2 	asr	r3, r2, #31
 c100404:	e0631001 	rsb	r1, r3, r1
 c100408:	e1a03001 	mov	r3, r1
 c10040c:	e1a03183 	lsl	r3, r3, #3
 c100410:	e0613003 	rsb	r3, r1, r3
 c100414:	e0633002 	rsb	r3, r3, r2
 c100418:	e50b3010 	str	r3, [fp, #-16]
    if (dayOfWeek < 0) {
 c10041c:	e51b3010 	ldr	r3, [fp, #-16]
 c100420:	e3530000 	cmp	r3, #0
 c100424:	aa000002 	bge	c100434 <calcularDiaSemana+0x164>
        dayOfWeek += 7;
 c100428:	e51b3010 	ldr	r3, [fp, #-16]
 c10042c:	e2833007 	add	r3, r3, #7
 c100430:	e50b3010 	str	r3, [fp, #-16]
    }

    return (dayOfWeek % 7); // Ajusta al rango de 1 a 7
 c100434:	e51b1010 	ldr	r1, [fp, #-16]
 c100438:	e59f303c 	ldr	r3, [pc, #60]	; c10047c <calcularDiaSemana+0x1ac>
 c10043c:	e0c32391 	smull	r2, r3, r1, r3
 c100440:	e0833001 	add	r3, r3, r1
 c100444:	e1a02143 	asr	r2, r3, #2
 c100448:	e1a03fc1 	asr	r3, r1, #31
 c10044c:	e0632002 	rsb	r2, r3, r2
 c100450:	e1a03002 	mov	r3, r2
 c100454:	e1a03183 	lsl	r3, r3, #3
 c100458:	e0623003 	rsb	r3, r2, r3
 c10045c:	e0632001 	rsb	r2, r3, r1
 c100460:	e20230ff 	and	r3, r2, #255	; 0xff
}
 c100464:	e1a00003 	mov	r0, r3
 c100468:	e24bd00c 	sub	sp, fp, #12
 c10046c:	e89d6800 	ldm	sp, {fp, sp, lr}
 c100470:	e12fff1e 	bx	lr
 c100474:	51eb851f 	.word	0x51eb851f
 c100478:	66666667 	.word	0x66666667
 c10047c:	92492493 	.word	0x92492493

0c100480 <iniciarReloj>:
void iniciarReloj(){
 c100480:	e1a0c00d 	mov	ip, sp
 c100484:	e92dd800 	push	{fp, ip, lr, pc}
 c100488:	e24cb004 	sub	fp, ip, #4
 c10048c:	e24dd010 	sub	sp, sp, #16
	const char* compileTime = __TIME__;
 c100490:	e59f33e4 	ldr	r3, [pc, #996]	; c10087c <iniciarReloj+0x3fc>
 c100494:	e50b3010 	str	r3, [fp, #-16]
	rtc_time.hour = (compileTime[0] - '0') * 10 + (compileTime[1] - '0');
 c100498:	e51b3010 	ldr	r3, [fp, #-16]
 c10049c:	e5d33000 	ldrb	r3, [r3]
 c1004a0:	e1a02003 	mov	r2, r3
 c1004a4:	e1a02102 	lsl	r2, r2, #2
 c1004a8:	e0823003 	add	r3, r2, r3
 c1004ac:	e1a03083 	lsl	r3, r3, #1
 c1004b0:	e20320ff 	and	r2, r3, #255	; 0xff
 c1004b4:	e51b3010 	ldr	r3, [fp, #-16]
 c1004b8:	e2833001 	add	r3, r3, #1
 c1004bc:	e5d33000 	ldrb	r3, [r3]
 c1004c0:	e0823003 	add	r3, r2, r3
 c1004c4:	e20330ff 	and	r3, r3, #255	; 0xff
 c1004c8:	e2433010 	sub	r3, r3, #16
 c1004cc:	e20320ff 	and	r2, r3, #255	; 0xff
 c1004d0:	e59f33a8 	ldr	r3, [pc, #936]	; c100880 <iniciarReloj+0x400>
 c1004d4:	e5c32002 	strb	r2, [r3, #2]
	rtc_time.min = (compileTime[3] - '0') * 10 + (compileTime[4] - '0');
 c1004d8:	e51b3010 	ldr	r3, [fp, #-16]
 c1004dc:	e2833003 	add	r3, r3, #3
 c1004e0:	e5d33000 	ldrb	r3, [r3]
 c1004e4:	e1a02003 	mov	r2, r3
 c1004e8:	e1a02102 	lsl	r2, r2, #2
 c1004ec:	e0823003 	add	r3, r2, r3
 c1004f0:	e1a03083 	lsl	r3, r3, #1
 c1004f4:	e20320ff 	and	r2, r3, #255	; 0xff
 c1004f8:	e51b3010 	ldr	r3, [fp, #-16]
 c1004fc:	e2833004 	add	r3, r3, #4
 c100500:	e5d33000 	ldrb	r3, [r3]
 c100504:	e0823003 	add	r3, r2, r3
 c100508:	e20330ff 	and	r3, r3, #255	; 0xff
 c10050c:	e2433010 	sub	r3, r3, #16
 c100510:	e20320ff 	and	r2, r3, #255	; 0xff
 c100514:	e59f3364 	ldr	r3, [pc, #868]	; c100880 <iniciarReloj+0x400>
 c100518:	e5c32001 	strb	r2, [r3, #1]
	rtc_time.sec = (compileTime[6] - '0') * 10 + (compileTime[7] - '0');
 c10051c:	e51b3010 	ldr	r3, [fp, #-16]
 c100520:	e2833006 	add	r3, r3, #6
 c100524:	e5d33000 	ldrb	r3, [r3]
 c100528:	e1a02003 	mov	r2, r3
 c10052c:	e1a02102 	lsl	r2, r2, #2
 c100530:	e0823003 	add	r3, r2, r3
 c100534:	e1a03083 	lsl	r3, r3, #1
 c100538:	e20320ff 	and	r2, r3, #255	; 0xff
 c10053c:	e51b3010 	ldr	r3, [fp, #-16]
 c100540:	e2833007 	add	r3, r3, #7
 c100544:	e5d33000 	ldrb	r3, [r3]
 c100548:	e0823003 	add	r3, r2, r3
 c10054c:	e20330ff 	and	r3, r3, #255	; 0xff
 c100550:	e2433010 	sub	r3, r3, #16
 c100554:	e20320ff 	and	r2, r3, #255	; 0xff
 c100558:	e59f3320 	ldr	r3, [pc, #800]	; c100880 <iniciarReloj+0x400>
 c10055c:	e5c32000 	strb	r2, [r3]

	const char* compileDate = __DATE__;
 c100560:	e59f331c 	ldr	r3, [pc, #796]	; c100884 <iniciarReloj+0x404>
 c100564:	e50b3014 	str	r3, [fp, #-20]	; 0xffffffec
	rtc_time.mday = (compileDate[4] - '0') * 10 + (compileDate[5] - '0');
 c100568:	e51b3014 	ldr	r3, [fp, #-20]	; 0xffffffec
 c10056c:	e2833004 	add	r3, r3, #4
 c100570:	e5d33000 	ldrb	r3, [r3]
 c100574:	e1a02003 	mov	r2, r3
 c100578:	e1a02102 	lsl	r2, r2, #2
 c10057c:	e0823003 	add	r3, r2, r3
 c100580:	e1a03083 	lsl	r3, r3, #1
 c100584:	e20320ff 	and	r2, r3, #255	; 0xff
 c100588:	e51b3014 	ldr	r3, [fp, #-20]	; 0xffffffec
 c10058c:	e2833005 	add	r3, r3, #5
 c100590:	e5d33000 	ldrb	r3, [r3]
 c100594:	e0823003 	add	r3, r2, r3
 c100598:	e20330ff 	and	r3, r3, #255	; 0xff
 c10059c:	e2433010 	sub	r3, r3, #16
 c1005a0:	e20320ff 	and	r2, r3, #255	; 0xff
 c1005a4:	e59f32d4 	ldr	r3, [pc, #724]	; c100880 <iniciarReloj+0x400>
 c1005a8:	e5c32003 	strb	r2, [r3, #3]
	char monthStr[4];
	monthStr[0] = compileDate[0];
 c1005ac:	e51b3014 	ldr	r3, [fp, #-20]	; 0xffffffec
 c1005b0:	e5d33000 	ldrb	r3, [r3]
 c1005b4:	e54b3018 	strb	r3, [fp, #-24]	; 0xffffffe8
	monthStr[1] = compileDate[1];
 c1005b8:	e51b3014 	ldr	r3, [fp, #-20]	; 0xffffffec
 c1005bc:	e2833001 	add	r3, r3, #1
 c1005c0:	e5d33000 	ldrb	r3, [r3]
 c1005c4:	e54b3017 	strb	r3, [fp, #-23]	; 0xffffffe9
	monthStr[2] = compileDate[2];
 c1005c8:	e51b3014 	ldr	r3, [fp, #-20]	; 0xffffffec
 c1005cc:	e2833002 	add	r3, r3, #2
 c1005d0:	e5d33000 	ldrb	r3, [r3]
 c1005d4:	e54b3016 	strb	r3, [fp, #-22]	; 0xffffffea
	monthStr[3] = '\0';
 c1005d8:	e3a03000 	mov	r3, #0
 c1005dc:	e54b3015 	strb	r3, [fp, #-21]	; 0xffffffeb

	if (compareMonth(monthStr, "Jan")) rtc_time.mon = 1;
 c1005e0:	e24b3018 	sub	r3, fp, #24
 c1005e4:	e1a00003 	mov	r0, r3
 c1005e8:	e59f1298 	ldr	r1, [pc, #664]	; c100888 <iniciarReloj+0x408>
 c1005ec:	ebffff17 	bl	c100250 <compareMonth>
 c1005f0:	e1a03000 	mov	r3, r0
 c1005f4:	e3530000 	cmp	r3, #0
 c1005f8:	0a000003 	beq	c10060c <iniciarReloj+0x18c>
 c1005fc:	e59f327c 	ldr	r3, [pc, #636]	; c100880 <iniciarReloj+0x400>
 c100600:	e3a02001 	mov	r2, #1
 c100604:	e5c32005 	strb	r2, [r3, #5]
 c100608:	ea000077 	b	c1007ec <iniciarReloj+0x36c>
	else if (compareMonth(monthStr, "Feb")) rtc_time.mon = 2;
 c10060c:	e24b3018 	sub	r3, fp, #24
 c100610:	e1a00003 	mov	r0, r3
 c100614:	e59f1270 	ldr	r1, [pc, #624]	; c10088c <iniciarReloj+0x40c>
 c100618:	ebffff0c 	bl	c100250 <compareMonth>
 c10061c:	e1a03000 	mov	r3, r0
 c100620:	e3530000 	cmp	r3, #0
 c100624:	0a000003 	beq	c100638 <iniciarReloj+0x1b8>
 c100628:	e59f3250 	ldr	r3, [pc, #592]	; c100880 <iniciarReloj+0x400>
 c10062c:	e3a02002 	mov	r2, #2
 c100630:	e5c32005 	strb	r2, [r3, #5]
 c100634:	ea00006c 	b	c1007ec <iniciarReloj+0x36c>
	else if (compareMonth(monthStr, "Mar")) rtc_time.mon = 3;
 c100638:	e24b3018 	sub	r3, fp, #24
 c10063c:	e1a00003 	mov	r0, r3
 c100640:	e59f1248 	ldr	r1, [pc, #584]	; c100890 <iniciarReloj+0x410>
 c100644:	ebffff01 	bl	c100250 <compareMonth>
 c100648:	e1a03000 	mov	r3, r0
 c10064c:	e3530000 	cmp	r3, #0
 c100650:	0a000003 	beq	c100664 <iniciarReloj+0x1e4>
 c100654:	e59f3224 	ldr	r3, [pc, #548]	; c100880 <iniciarReloj+0x400>
 c100658:	e3a02003 	mov	r2, #3
 c10065c:	e5c32005 	strb	r2, [r3, #5]
 c100660:	ea000061 	b	c1007ec <iniciarReloj+0x36c>
	else if (compareMonth(monthStr, "Apr")) rtc_time.mon = 4;
 c100664:	e24b3018 	sub	r3, fp, #24
 c100668:	e1a00003 	mov	r0, r3
 c10066c:	e59f1220 	ldr	r1, [pc, #544]	; c100894 <iniciarReloj+0x414>
 c100670:	ebfffef6 	bl	c100250 <compareMonth>
 c100674:	e1a03000 	mov	r3, r0
 c100678:	e3530000 	cmp	r3, #0
 c10067c:	0a000003 	beq	c100690 <iniciarReloj+0x210>
 c100680:	e59f31f8 	ldr	r3, [pc, #504]	; c100880 <iniciarReloj+0x400>
 c100684:	e3a02004 	mov	r2, #4
 c100688:	e5c32005 	strb	r2, [r3, #5]
 c10068c:	ea000056 	b	c1007ec <iniciarReloj+0x36c>
	else if (compareMonth(monthStr, "May")) rtc_time.mon = 5;
 c100690:	e24b3018 	sub	r3, fp, #24
 c100694:	e1a00003 	mov	r0, r3
 c100698:	e59f11f8 	ldr	r1, [pc, #504]	; c100898 <iniciarReloj+0x418>
 c10069c:	ebfffeeb 	bl	c100250 <compareMonth>
 c1006a0:	e1a03000 	mov	r3, r0
 c1006a4:	e3530000 	cmp	r3, #0
 c1006a8:	0a000003 	beq	c1006bc <iniciarReloj+0x23c>
 c1006ac:	e59f31cc 	ldr	r3, [pc, #460]	; c100880 <iniciarReloj+0x400>
 c1006b0:	e3a02005 	mov	r2, #5
 c1006b4:	e5c32005 	strb	r2, [r3, #5]
 c1006b8:	ea00004b 	b	c1007ec <iniciarReloj+0x36c>
	else if (compareMonth(monthStr, "Jun")) rtc_time.mon = 6;
 c1006bc:	e24b3018 	sub	r3, fp, #24
 c1006c0:	e1a00003 	mov	r0, r3
 c1006c4:	e59f11d0 	ldr	r1, [pc, #464]	; c10089c <iniciarReloj+0x41c>
 c1006c8:	ebfffee0 	bl	c100250 <compareMonth>
 c1006cc:	e1a03000 	mov	r3, r0
 c1006d0:	e3530000 	cmp	r3, #0
 c1006d4:	0a000003 	beq	c1006e8 <iniciarReloj+0x268>
 c1006d8:	e59f31a0 	ldr	r3, [pc, #416]	; c100880 <iniciarReloj+0x400>
 c1006dc:	e3a02006 	mov	r2, #6
 c1006e0:	e5c32005 	strb	r2, [r3, #5]
 c1006e4:	ea000040 	b	c1007ec <iniciarReloj+0x36c>
	else if (compareMonth(monthStr, "Jul")) rtc_time.mon = 7;
 c1006e8:	e24b3018 	sub	r3, fp, #24
 c1006ec:	e1a00003 	mov	r0, r3
 c1006f0:	e59f11a8 	ldr	r1, [pc, #424]	; c1008a0 <iniciarReloj+0x420>
 c1006f4:	ebfffed5 	bl	c100250 <compareMonth>
 c1006f8:	e1a03000 	mov	r3, r0
 c1006fc:	e3530000 	cmp	r3, #0
 c100700:	0a000003 	beq	c100714 <iniciarReloj+0x294>
 c100704:	e59f3174 	ldr	r3, [pc, #372]	; c100880 <iniciarReloj+0x400>
 c100708:	e3a02007 	mov	r2, #7
 c10070c:	e5c32005 	strb	r2, [r3, #5]
 c100710:	ea000035 	b	c1007ec <iniciarReloj+0x36c>
	else if (compareMonth(monthStr, "Aug")) rtc_time.mon = 8;
 c100714:	e24b3018 	sub	r3, fp, #24
 c100718:	e1a00003 	mov	r0, r3
 c10071c:	e59f1180 	ldr	r1, [pc, #384]	; c1008a4 <iniciarReloj+0x424>
 c100720:	ebfffeca 	bl	c100250 <compareMonth>
 c100724:	e1a03000 	mov	r3, r0
 c100728:	e3530000 	cmp	r3, #0
 c10072c:	0a000003 	beq	c100740 <iniciarReloj+0x2c0>
 c100730:	e59f3148 	ldr	r3, [pc, #328]	; c100880 <iniciarReloj+0x400>
 c100734:	e3a02008 	mov	r2, #8
 c100738:	e5c32005 	strb	r2, [r3, #5]
 c10073c:	ea00002a 	b	c1007ec <iniciarReloj+0x36c>
	else if (compareMonth(monthStr, "Sep")) rtc_time.mon = 9;
 c100740:	e24b3018 	sub	r3, fp, #24
 c100744:	e1a00003 	mov	r0, r3
 c100748:	e59f1158 	ldr	r1, [pc, #344]	; c1008a8 <iniciarReloj+0x428>
 c10074c:	ebfffebf 	bl	c100250 <compareMonth>
 c100750:	e1a03000 	mov	r3, r0
 c100754:	e3530000 	cmp	r3, #0
 c100758:	0a000003 	beq	c10076c <iniciarReloj+0x2ec>
 c10075c:	e59f311c 	ldr	r3, [pc, #284]	; c100880 <iniciarReloj+0x400>
 c100760:	e3a02009 	mov	r2, #9
 c100764:	e5c32005 	strb	r2, [r3, #5]
 c100768:	ea00001f 	b	c1007ec <iniciarReloj+0x36c>
	else if (compareMonth(monthStr, "Oct")) rtc_time.mon = 10;
 c10076c:	e24b3018 	sub	r3, fp, #24
 c100770:	e1a00003 	mov	r0, r3
 c100774:	e59f1130 	ldr	r1, [pc, #304]	; c1008ac <iniciarReloj+0x42c>
 c100778:	ebfffeb4 	bl	c100250 <compareMonth>
 c10077c:	e1a03000 	mov	r3, r0
 c100780:	e3530000 	cmp	r3, #0
 c100784:	0a000003 	beq	c100798 <iniciarReloj+0x318>
 c100788:	e59f30f0 	ldr	r3, [pc, #240]	; c100880 <iniciarReloj+0x400>
 c10078c:	e3a0200a 	mov	r2, #10
 c100790:	e5c32005 	strb	r2, [r3, #5]
 c100794:	ea000014 	b	c1007ec <iniciarReloj+0x36c>
	else if (compareMonth(monthStr, "Nov")) rtc_time.mon = 11;
 c100798:	e24b3018 	sub	r3, fp, #24
 c10079c:	e1a00003 	mov	r0, r3
 c1007a0:	e59f1108 	ldr	r1, [pc, #264]	; c1008b0 <iniciarReloj+0x430>
 c1007a4:	ebfffea9 	bl	c100250 <compareMonth>
 c1007a8:	e1a03000 	mov	r3, r0
 c1007ac:	e3530000 	cmp	r3, #0
 c1007b0:	0a000003 	beq	c1007c4 <iniciarReloj+0x344>
 c1007b4:	e59f30c4 	ldr	r3, [pc, #196]	; c100880 <iniciarReloj+0x400>
 c1007b8:	e3a0200b 	mov	r2, #11
 c1007bc:	e5c32005 	strb	r2, [r3, #5]
 c1007c0:	ea000009 	b	c1007ec <iniciarReloj+0x36c>
	else if (compareMonth(monthStr, "Dec")) rtc_time.mon = 12;
 c1007c4:	e24b3018 	sub	r3, fp, #24
 c1007c8:	e1a00003 	mov	r0, r3
 c1007cc:	e59f10e0 	ldr	r1, [pc, #224]	; c1008b4 <iniciarReloj+0x434>
 c1007d0:	ebfffe9e 	bl	c100250 <compareMonth>
 c1007d4:	e1a03000 	mov	r3, r0
 c1007d8:	e3530000 	cmp	r3, #0
 c1007dc:	0a000002 	beq	c1007ec <iniciarReloj+0x36c>
 c1007e0:	e59f3098 	ldr	r3, [pc, #152]	; c100880 <iniciarReloj+0x400>
 c1007e4:	e3a0200c 	mov	r2, #12
 c1007e8:	e5c32005 	strb	r2, [r3, #5]
	rtc_time.wday = calcularDiaSemana(rtc_time.year, rtc_time.mon, rtc_time.mday);
 c1007ec:	e59f308c 	ldr	r3, [pc, #140]	; c100880 <iniciarReloj+0x400>
 c1007f0:	e5d31006 	ldrb	r1, [r3, #6]
 c1007f4:	e59f3084 	ldr	r3, [pc, #132]	; c100880 <iniciarReloj+0x400>
 c1007f8:	e5d32005 	ldrb	r2, [r3, #5]
 c1007fc:	e59f307c 	ldr	r3, [pc, #124]	; c100880 <iniciarReloj+0x400>
 c100800:	e5d33003 	ldrb	r3, [r3, #3]
 c100804:	e1a00001 	mov	r0, r1
 c100808:	e1a01002 	mov	r1, r2
 c10080c:	e1a02003 	mov	r2, r3
 c100810:	ebfffeae 	bl	c1002d0 <calcularDiaSemana>
 c100814:	e1a03000 	mov	r3, r0
 c100818:	e1a02003 	mov	r2, r3
 c10081c:	e59f305c 	ldr	r3, [pc, #92]	; c100880 <iniciarReloj+0x400>
 c100820:	e5c32004 	strb	r2, [r3, #4]
	rtc_time.year = (compileDate[9] - '0') * 10 + (compileDate[10] - '0');
 c100824:	e51b3014 	ldr	r3, [fp, #-20]	; 0xffffffec
 c100828:	e2833009 	add	r3, r3, #9
 c10082c:	e5d33000 	ldrb	r3, [r3]
 c100830:	e1a02003 	mov	r2, r3
 c100834:	e1a02102 	lsl	r2, r2, #2
 c100838:	e0823003 	add	r3, r2, r3
 c10083c:	e1a03083 	lsl	r3, r3, #1
 c100840:	e20320ff 	and	r2, r3, #255	; 0xff
 c100844:	e51b3014 	ldr	r3, [fp, #-20]	; 0xffffffec
 c100848:	e283300a 	add	r3, r3, #10
 c10084c:	e5d33000 	ldrb	r3, [r3]
 c100850:	e0823003 	add	r3, r2, r3
 c100854:	e20330ff 	and	r3, r3, #255	; 0xff
 c100858:	e2433010 	sub	r3, r3, #16
 c10085c:	e20320ff 	and	r2, r3, #255	; 0xff
 c100860:	e59f3018 	ldr	r3, [pc, #24]	; c100880 <iniciarReloj+0x400>
 c100864:	e5c32006 	strb	r2, [r3, #6]
	rtc_puttime( &rtc_time );
 c100868:	e59f0010 	ldr	r0, [pc, #16]	; c100880 <iniciarReloj+0x400>
 c10086c:	eb001600 	bl	c106074 <rtc_puttime>
}
 c100870:	e24bd00c 	sub	sp, fp, #12
 c100874:	e89d6800 	ldm	sp, {fp, sp, lr}
 c100878:	e12fff1e 	bx	lr
 c10087c:	0c109cd8 	.word	0x0c109cd8
 c100880:	0c10bdb0 	.word	0x0c10bdb0
 c100884:	0c109ce4 	.word	0x0c109ce4
 c100888:	0c109cf0 	.word	0x0c109cf0
 c10088c:	0c109cf4 	.word	0x0c109cf4
 c100890:	0c109cf8 	.word	0x0c109cf8
 c100894:	0c109cfc 	.word	0x0c109cfc
 c100898:	0c109d00 	.word	0x0c109d00
 c10089c:	0c109d04 	.word	0x0c109d04
 c1008a0:	0c109d08 	.word	0x0c109d08
 c1008a4:	0c109d0c 	.word	0x0c109d0c
 c1008a8:	0c109d10 	.word	0x0c109d10
 c1008ac:	0c109d14 	.word	0x0c109d14
 c1008b0:	0c109d18 	.word	0x0c109d18
 c1008b4:	0c109d1c 	.word	0x0c109d1c

0c1008b8 <mostrarDiaSemana>:
void mostrarDiaSemana(void){
 c1008b8:	e1a0c00d 	mov	ip, sp
 c1008bc:	e92dd800 	push	{fp, ip, lr, pc}
 c1008c0:	e24cb004 	sub	fp, ip, #4

	switch( rtc_time.wday){
 c1008c4:	e59f30f8 	ldr	r3, [pc, #248]	; c1009c4 <mostrarDiaSemana+0x10c>
 c1008c8:	e5d33004 	ldrb	r3, [r3, #4]
 c1008cc:	e2433001 	sub	r3, r3, #1
 c1008d0:	e3530006 	cmp	r3, #6
 c1008d4:	979ff103 	ldrls	pc, [pc, r3, lsl #2]
 c1008d8:	ea000030 	b	c1009a0 <mostrarDiaSemana+0xe8>
 c1008dc:	0c1008f8 	.word	0x0c1008f8
 c1008e0:	0c100910 	.word	0x0c100910
 c1008e4:	0c100928 	.word	0x0c100928
 c1008e8:	0c100940 	.word	0x0c100940
 c1008ec:	0c100958 	.word	0x0c100958
 c1008f0:	0c100970 	.word	0x0c100970
 c1008f4:	0c100988 	.word	0x0c100988
		case 1:
			lcd_puts( 30, 45, BLACK,"Domingo");
 c1008f8:	e3a0001e 	mov	r0, #30
 c1008fc:	e3a0102d 	mov	r1, #45	; 0x2d
 c100900:	e3a0200f 	mov	r2, #15
 c100904:	e59f30bc 	ldr	r3, [pc, #188]	; c1009c8 <mostrarDiaSemana+0x110>
 c100908:	eb00124d 	bl	c105244 <lcd_puts>
				break;
 c10090c:	ea000029 	b	c1009b8 <mostrarDiaSemana+0x100>
		case 2:
			lcd_puts( 30, 45, BLACK,"Lunes");
 c100910:	e3a0001e 	mov	r0, #30
 c100914:	e3a0102d 	mov	r1, #45	; 0x2d
 c100918:	e3a0200f 	mov	r2, #15
 c10091c:	e59f30a8 	ldr	r3, [pc, #168]	; c1009cc <mostrarDiaSemana+0x114>
 c100920:	eb001247 	bl	c105244 <lcd_puts>
					break;
 c100924:	ea000023 	b	c1009b8 <mostrarDiaSemana+0x100>
		case 3:
			lcd_puts( 30, 45, BLACK,"Martes");
 c100928:	e3a0001e 	mov	r0, #30
 c10092c:	e3a0102d 	mov	r1, #45	; 0x2d
 c100930:	e3a0200f 	mov	r2, #15
 c100934:	e59f3094 	ldr	r3, [pc, #148]	; c1009d0 <mostrarDiaSemana+0x118>
 c100938:	eb001241 	bl	c105244 <lcd_puts>
					break;
 c10093c:	ea00001d 	b	c1009b8 <mostrarDiaSemana+0x100>
		case 4:
			lcd_puts( 30, 45, BLACK,"Miercoles");
 c100940:	e3a0001e 	mov	r0, #30
 c100944:	e3a0102d 	mov	r1, #45	; 0x2d
 c100948:	e3a0200f 	mov	r2, #15
 c10094c:	e59f3080 	ldr	r3, [pc, #128]	; c1009d4 <mostrarDiaSemana+0x11c>
 c100950:	eb00123b 	bl	c105244 <lcd_puts>
					break;
 c100954:	ea000017 	b	c1009b8 <mostrarDiaSemana+0x100>
		case 5:
			lcd_puts( 30, 45, BLACK,"Jueves");
 c100958:	e3a0001e 	mov	r0, #30
 c10095c:	e3a0102d 	mov	r1, #45	; 0x2d
 c100960:	e3a0200f 	mov	r2, #15
 c100964:	e59f306c 	ldr	r3, [pc, #108]	; c1009d8 <mostrarDiaSemana+0x120>
 c100968:	eb001235 	bl	c105244 <lcd_puts>
					break;
 c10096c:	ea000011 	b	c1009b8 <mostrarDiaSemana+0x100>
		case 6:
			lcd_puts( 30, 45, BLACK,"Viernes");
 c100970:	e3a0001e 	mov	r0, #30
 c100974:	e3a0102d 	mov	r1, #45	; 0x2d
 c100978:	e3a0200f 	mov	r2, #15
 c10097c:	e59f3058 	ldr	r3, [pc, #88]	; c1009dc <mostrarDiaSemana+0x124>
 c100980:	eb00122f 	bl	c105244 <lcd_puts>
					break;
 c100984:	ea00000b 	b	c1009b8 <mostrarDiaSemana+0x100>
		case 7:
			lcd_puts( 30, 45, BLACK,"Sabado");
 c100988:	e3a0001e 	mov	r0, #30
 c10098c:	e3a0102d 	mov	r1, #45	; 0x2d
 c100990:	e3a0200f 	mov	r2, #15
 c100994:	e59f3044 	ldr	r3, [pc, #68]	; c1009e0 <mostrarDiaSemana+0x128>
 c100998:	eb001229 	bl	c105244 <lcd_puts>
					break;
 c10099c:	ea000005 	b	c1009b8 <mostrarDiaSemana+0x100>
		default:
			lcd_puts( 30, 45, BLACK,"Error");
 c1009a0:	e3a0001e 	mov	r0, #30
 c1009a4:	e3a0102d 	mov	r1, #45	; 0x2d
 c1009a8:	e3a0200f 	mov	r2, #15
 c1009ac:	e59f3030 	ldr	r3, [pc, #48]	; c1009e4 <mostrarDiaSemana+0x12c>
 c1009b0:	eb001223 	bl	c105244 <lcd_puts>
				break;
 c1009b4:	e1a00000 	nop			; (mov r0, r0)
	}

}
 c1009b8:	e24bd00c 	sub	sp, fp, #12
 c1009bc:	e89d6800 	ldm	sp, {fp, sp, lr}
 c1009c0:	e12fff1e 	bx	lr
 c1009c4:	0c10bdb0 	.word	0x0c10bdb0
 c1009c8:	0c109d20 	.word	0x0c109d20
 c1009cc:	0c109d28 	.word	0x0c109d28
 c1009d0:	0c109d30 	.word	0x0c109d30
 c1009d4:	0c109d38 	.word	0x0c109d38
 c1009d8:	0c109d44 	.word	0x0c109d44
 c1009dc:	0c109d4c 	.word	0x0c109d4c
 c1009e0:	0c109d54 	.word	0x0c109d54
 c1009e4:	0c109d5c 	.word	0x0c109d5c

0c1009e8 <mostrarRelojPrincipal>:
void mostrarRelojPrincipal(void){
 c1009e8:	e1a0c00d 	mov	ip, sp
 c1009ec:	e92dd800 	push	{fp, ip, lr, pc}
 c1009f0:	e24cb004 	sub	fp, ip, #4
	if( flagRtc )
 c1009f4:	e59f3150 	ldr	r3, [pc, #336]	; c100b4c <mostrarRelojPrincipal+0x164>
 c1009f8:	e5d33000 	ldrb	r3, [r3]
 c1009fc:	e20330ff 	and	r3, r3, #255	; 0xff
 c100a00:	e3530000 	cmp	r3, #0
 c100a04:	0a00004d 	beq	c100b40 <mostrarRelojPrincipal+0x158>
		{
		flagRtc = FALSE;
 c100a08:	e59f313c 	ldr	r3, [pc, #316]	; c100b4c <mostrarRelojPrincipal+0x164>
 c100a0c:	e3a02000 	mov	r2, #0
 c100a10:	e5c32000 	strb	r2, [r3]

		rtc_gettime( &rtc_time );
 c100a14:	e59f0134 	ldr	r0, [pc, #308]	; c100b50 <mostrarRelojPrincipal+0x168>
 c100a18:	eb001643 	bl	c10632c <rtc_gettime>

		//Mostrar la hora (16 pixeles el caracter en x2, 8 pixeles de normal)
		lcd_putint_x2(100, 90, BLACK, (int32) rtc_time.hour );
 c100a1c:	e59f312c 	ldr	r3, [pc, #300]	; c100b50 <mostrarRelojPrincipal+0x168>
 c100a20:	e5d33002 	ldrb	r3, [r3, #2]
 c100a24:	e3a00064 	mov	r0, #100	; 0x64
 c100a28:	e3a0105a 	mov	r1, #90	; 0x5a
 c100a2c:	e3a0200f 	mov	r2, #15
 c100a30:	eb00131b 	bl	c1056a4 <lcd_putint_x2>
		if(rtc_time.hour < 10){ //Para poner un 0 en el lcd y no sea solo un digito
 c100a34:	e59f3114 	ldr	r3, [pc, #276]	; c100b50 <mostrarRelojPrincipal+0x168>
 c100a38:	e5d33002 	ldrb	r3, [r3, #2]
 c100a3c:	e3530009 	cmp	r3, #9
 c100a40:	8a00000a 	bhi	c100a70 <mostrarRelojPrincipal+0x88>
				lcd_putint_x2(100, 90, BLACK, (int32) 0 );
 c100a44:	e3a00064 	mov	r0, #100	; 0x64
 c100a48:	e3a0105a 	mov	r1, #90	; 0x5a
 c100a4c:	e3a0200f 	mov	r2, #15
 c100a50:	e3a03000 	mov	r3, #0
 c100a54:	eb001312 	bl	c1056a4 <lcd_putint_x2>
				lcd_putint_x2(116, 90, BLACK, (int32) rtc_time.hour );
 c100a58:	e59f30f0 	ldr	r3, [pc, #240]	; c100b50 <mostrarRelojPrincipal+0x168>
 c100a5c:	e5d33002 	ldrb	r3, [r3, #2]
 c100a60:	e3a00074 	mov	r0, #116	; 0x74
 c100a64:	e3a0105a 	mov	r1, #90	; 0x5a
 c100a68:	e3a0200f 	mov	r2, #15
 c100a6c:	eb00130c 	bl	c1056a4 <lcd_putint_x2>
		}
		lcd_putchar_x2(132, 90, BLACK, ':' );
 c100a70:	e3a00084 	mov	r0, #132	; 0x84
 c100a74:	e3a0105a 	mov	r1, #90	; 0x5a
 c100a78:	e3a0200f 	mov	r2, #15
 c100a7c:	e3a0303a 	mov	r3, #58	; 0x3a
 c100a80:	eb001291 	bl	c1054cc <lcd_putchar_x2>
		lcd_putint_x2(148, 90, BLACK, (int32) rtc_time.min );
 c100a84:	e59f30c4 	ldr	r3, [pc, #196]	; c100b50 <mostrarRelojPrincipal+0x168>
 c100a88:	e5d33001 	ldrb	r3, [r3, #1]
 c100a8c:	e3a00094 	mov	r0, #148	; 0x94
 c100a90:	e3a0105a 	mov	r1, #90	; 0x5a
 c100a94:	e3a0200f 	mov	r2, #15
 c100a98:	eb001301 	bl	c1056a4 <lcd_putint_x2>
		if(rtc_time.min < 10){ //Para poner un 0 en el lcd y no sea solo un digito
 c100a9c:	e59f30ac 	ldr	r3, [pc, #172]	; c100b50 <mostrarRelojPrincipal+0x168>
 c100aa0:	e5d33001 	ldrb	r3, [r3, #1]
 c100aa4:	e3530009 	cmp	r3, #9
 c100aa8:	8a00000a 	bhi	c100ad8 <mostrarRelojPrincipal+0xf0>
				lcd_putint_x2(148, 90, BLACK, (int32) 0);
 c100aac:	e3a00094 	mov	r0, #148	; 0x94
 c100ab0:	e3a0105a 	mov	r1, #90	; 0x5a
 c100ab4:	e3a0200f 	mov	r2, #15
 c100ab8:	e3a03000 	mov	r3, #0
 c100abc:	eb0012f8 	bl	c1056a4 <lcd_putint_x2>
				lcd_putint_x2(164, 90, BLACK, (int32)  rtc_time.min );
 c100ac0:	e59f3088 	ldr	r3, [pc, #136]	; c100b50 <mostrarRelojPrincipal+0x168>
 c100ac4:	e5d33001 	ldrb	r3, [r3, #1]
 c100ac8:	e3a000a4 	mov	r0, #164	; 0xa4
 c100acc:	e3a0105a 	mov	r1, #90	; 0x5a
 c100ad0:	e3a0200f 	mov	r2, #15
 c100ad4:	eb0012f2 	bl	c1056a4 <lcd_putint_x2>
		}
		lcd_putchar_x2(180, 90, BLACK, ':' );
 c100ad8:	e3a000b4 	mov	r0, #180	; 0xb4
 c100adc:	e3a0105a 	mov	r1, #90	; 0x5a
 c100ae0:	e3a0200f 	mov	r2, #15
 c100ae4:	e3a0303a 	mov	r3, #58	; 0x3a
 c100ae8:	eb001277 	bl	c1054cc <lcd_putchar_x2>
		lcd_putint_x2(196, 90, BLACK, (int32) rtc_time.sec );
 c100aec:	e59f305c 	ldr	r3, [pc, #92]	; c100b50 <mostrarRelojPrincipal+0x168>
 c100af0:	e5d33000 	ldrb	r3, [r3]
 c100af4:	e3a000c4 	mov	r0, #196	; 0xc4
 c100af8:	e3a0105a 	mov	r1, #90	; 0x5a
 c100afc:	e3a0200f 	mov	r2, #15
 c100b00:	eb0012e7 	bl	c1056a4 <lcd_putint_x2>
		if(rtc_time.sec < 10){ //Para poner un 0 en el lcd y no sea solo un digito
 c100b04:	e59f3044 	ldr	r3, [pc, #68]	; c100b50 <mostrarRelojPrincipal+0x168>
 c100b08:	e5d33000 	ldrb	r3, [r3]
 c100b0c:	e3530009 	cmp	r3, #9
 c100b10:	8a00000a 	bhi	c100b40 <mostrarRelojPrincipal+0x158>
				lcd_putint_x2(196, 90, BLACK, (int32) 0 );
 c100b14:	e3a000c4 	mov	r0, #196	; 0xc4
 c100b18:	e3a0105a 	mov	r1, #90	; 0x5a
 c100b1c:	e3a0200f 	mov	r2, #15
 c100b20:	e3a03000 	mov	r3, #0
 c100b24:	eb0012de 	bl	c1056a4 <lcd_putint_x2>
				lcd_putint_x2(212, 90, BLACK, (int32) rtc_time.sec );
 c100b28:	e59f3020 	ldr	r3, [pc, #32]	; c100b50 <mostrarRelojPrincipal+0x168>
 c100b2c:	e5d33000 	ldrb	r3, [r3]
 c100b30:	e3a000d4 	mov	r0, #212	; 0xd4
 c100b34:	e3a0105a 	mov	r1, #90	; 0x5a
 c100b38:	e3a0200f 	mov	r2, #15
 c100b3c:	eb0012d8 	bl	c1056a4 <lcd_putint_x2>
			}


		};
}
 c100b40:	e24bd00c 	sub	sp, fp, #12
 c100b44:	e89d6800 	ldm	sp, {fp, sp, lr}
 c100b48:	e12fff1e 	bx	lr
 c100b4c:	0c10b979 	.word	0x0c10b979
 c100b50:	0c10bdb0 	.word	0x0c10bdb0

0c100b54 <menuPrincipal>:
void menuPrincipal( void ){
 c100b54:	e1a0c00d 	mov	ip, sp
 c100b58:	e92dd800 	push	{fp, ip, lr, pc}
 c100b5c:	e24cb004 	sub	fp, ip, #4
 c100b60:	e24dd010 	sub	sp, sp, #16



	//Inicializamos el reloj a una fecha
	iniciarReloj();
 c100b64:	ebfffe45 	bl	c100480 <iniciarReloj>
	rtc_gettime( &rtc_time );
 c100b68:	e59f049c 	ldr	r0, [pc, #1180]	; c10100c <menuPrincipal+0x4b8>
 c100b6c:	eb0015ee 	bl	c10632c <rtc_gettime>


	uint16 x, y;


	lcd_clear();
 c100b70:	eb001062 	bl	c104d00 <lcd_clear>
	flagPbs = FALSE;
 c100b74:	e59f3494 	ldr	r3, [pc, #1172]	; c101010 <menuPrincipal+0x4bc>
 c100b78:	e3a02000 	mov	r2, #0
 c100b7c:	e5c32000 	strb	r2, [r3]
	//Empieza programa menu principal
	//Mientras no se pulse ningun pulsador
	while(!flagPbs){
 c100b80:	ea000119 	b	c100fec <menuPrincipal+0x498>

		//Generador de latidos
		    	if( newBeat )
 c100b84:	e59f3488 	ldr	r3, [pc, #1160]	; c101014 <menuPrincipal+0x4c0>
 c100b88:	e5d33000 	ldrb	r3, [r3]
 c100b8c:	e20330ff 	and	r3, r3, #255	; 0xff
 c100b90:	e3530000 	cmp	r3, #0
 c100b94:	0a000004 	beq	c100bac <menuPrincipal+0x58>
		    	{
		    		newBeat = FALSE;
 c100b98:	e59f3474 	ldr	r3, [pc, #1140]	; c101014 <menuPrincipal+0x4c0>
 c100b9c:	e3a02000 	mov	r2, #0
 c100ba0:	e5c32000 	strb	r2, [r3]
		    		led_toggle( LEFT_LED );
 c100ba4:	e3a00001 	mov	r0, #1
 c100ba8:	eb0013d9 	bl	c105b14 <led_toggle>
		    	}
		    	//Generador de pasos
		    	if( newStep )
 c100bac:	e59f3464 	ldr	r3, [pc, #1124]	; c101018 <menuPrincipal+0x4c4>
 c100bb0:	e5d33000 	ldrb	r3, [r3]
 c100bb4:	e20330ff 	and	r3, r3, #255	; 0xff
 c100bb8:	e3530000 	cmp	r3, #0
 c100bbc:	0a000004 	beq	c100bd4 <menuPrincipal+0x80>
		    	{
		    		newStep = FALSE;
 c100bc0:	e59f3450 	ldr	r3, [pc, #1104]	; c101018 <menuPrincipal+0x4c4>
 c100bc4:	e3a02000 	mov	r2, #0
 c100bc8:	e5c32000 	strb	r2, [r3]
		    		led_toggle( RIGHT_LED );
 c100bcc:	e3a00002 	mov	r0, #2
 c100bd0:	eb0013cf 	bl	c105b14 <led_toggle>
		    	}

			mostrarRelojPrincipal();
 c100bd4:	ebffff83 	bl	c1009e8 <mostrarRelojPrincipal>

		/*-------------Pintamos el menu principal-------------*/

		//Usamos esta variable para que no este constantemente pintando el menu
		if(pintarMenuPrincipal){
 c100bd8:	e59f343c 	ldr	r3, [pc, #1084]	; c10101c <menuPrincipal+0x4c8>
 c100bdc:	e5d33000 	ldrb	r3, [r3]
 c100be0:	e20330ff 	and	r3, r3, #255	; 0xff
 c100be4:	e3530000 	cmp	r3, #0
 c100be8:	0a00008d 	beq	c100e24 <menuPrincipal+0x2d0>
			lcd_draw_box( 10, 10, 310, 230, BLACK, 5 );
 c100bec:	e3a0300f 	mov	r3, #15
 c100bf0:	e58d3000 	str	r3, [sp]
 c100bf4:	e3a03005 	mov	r3, #5
 c100bf8:	e58d3004 	str	r3, [sp, #4]
 c100bfc:	e3a0000a 	mov	r0, #10
 c100c00:	e3a0100a 	mov	r1, #10
 c100c04:	e59f2414 	ldr	r2, [pc, #1044]	; c101020 <menuPrincipal+0x4cc>
 c100c08:	e3a030e6 	mov	r3, #230	; 0xe6
 c100c0c:	eb001108 	bl	c105034 <lcd_draw_box>

			//Mostrar dia de la semana
			mostrarDiaSemana();
 c100c10:	ebffff28 	bl	c1008b8 <mostrarDiaSemana>

			//Mostrar la fecha
			lcd_putint( 30, 30, BLACK,(int32) rtc_time.mday );
 c100c14:	e59f33f0 	ldr	r3, [pc, #1008]	; c10100c <menuPrincipal+0x4b8>
 c100c18:	e5d33003 	ldrb	r3, [r3, #3]
 c100c1c:	e3a0001e 	mov	r0, #30
 c100c20:	e3a0101e 	mov	r1, #30
 c100c24:	e3a0200f 	mov	r2, #15
 c100c28:	eb0011a2 	bl	c1052b8 <lcd_putint>
			if(rtc_time.mday < 10){ //Para poner un 0 en el lcd y no sea solo un digito
 c100c2c:	e59f33d8 	ldr	r3, [pc, #984]	; c10100c <menuPrincipal+0x4b8>
 c100c30:	e5d33003 	ldrb	r3, [r3, #3]
 c100c34:	e3530009 	cmp	r3, #9
 c100c38:	8a00000a 	bhi	c100c68 <menuPrincipal+0x114>
					lcd_putint(30, 30, BLACK, (int32) 0 );
 c100c3c:	e3a0001e 	mov	r0, #30
 c100c40:	e3a0101e 	mov	r1, #30
 c100c44:	e3a0200f 	mov	r2, #15
 c100c48:	e3a03000 	mov	r3, #0
 c100c4c:	eb001199 	bl	c1052b8 <lcd_putint>
					lcd_putint(38, 30, BLACK, (int32) rtc_time.mday );
 c100c50:	e59f33b4 	ldr	r3, [pc, #948]	; c10100c <menuPrincipal+0x4b8>
 c100c54:	e5d33003 	ldrb	r3, [r3, #3]
 c100c58:	e3a00026 	mov	r0, #38	; 0x26
 c100c5c:	e3a0101e 	mov	r1, #30
 c100c60:	e3a0200f 	mov	r2, #15
 c100c64:	eb001193 	bl	c1052b8 <lcd_putint>
				}
			lcd_putchar( 46, 30, BLACK, '/' );
 c100c68:	e3a0002e 	mov	r0, #46	; 0x2e
 c100c6c:	e3a0101e 	mov	r1, #30
 c100c70:	e3a0200f 	mov	r2, #15
 c100c74:	e3a0302f 	mov	r3, #47	; 0x2f
 c100c78:	eb00111c 	bl	c1050f0 <lcd_putchar>
			lcd_putint( 54, 30, BLACK,(int32) rtc_time.mon );
 c100c7c:	e59f3388 	ldr	r3, [pc, #904]	; c10100c <menuPrincipal+0x4b8>
 c100c80:	e5d33005 	ldrb	r3, [r3, #5]
 c100c84:	e3a00036 	mov	r0, #54	; 0x36
 c100c88:	e3a0101e 	mov	r1, #30
 c100c8c:	e3a0200f 	mov	r2, #15
 c100c90:	eb001188 	bl	c1052b8 <lcd_putint>
			if(rtc_time.mon < 10){ //Para poner un 0 en el lcd y no sea solo un digito
 c100c94:	e59f3370 	ldr	r3, [pc, #880]	; c10100c <menuPrincipal+0x4b8>
 c100c98:	e5d33005 	ldrb	r3, [r3, #5]
 c100c9c:	e3530009 	cmp	r3, #9
 c100ca0:	8a00000a 	bhi	c100cd0 <menuPrincipal+0x17c>
					lcd_putint(54, 30, BLACK, (int32) 0 );
 c100ca4:	e3a00036 	mov	r0, #54	; 0x36
 c100ca8:	e3a0101e 	mov	r1, #30
 c100cac:	e3a0200f 	mov	r2, #15
 c100cb0:	e3a03000 	mov	r3, #0
 c100cb4:	eb00117f 	bl	c1052b8 <lcd_putint>
					lcd_putint(62, 30, BLACK, (int32) rtc_time.mon );
 c100cb8:	e59f334c 	ldr	r3, [pc, #844]	; c10100c <menuPrincipal+0x4b8>
 c100cbc:	e5d33005 	ldrb	r3, [r3, #5]
 c100cc0:	e3a0003e 	mov	r0, #62	; 0x3e
 c100cc4:	e3a0101e 	mov	r1, #30
 c100cc8:	e3a0200f 	mov	r2, #15
 c100ccc:	eb001179 	bl	c1052b8 <lcd_putint>
				}
			lcd_putchar( 70, 30, BLACK, '/' );
 c100cd0:	e3a00046 	mov	r0, #70	; 0x46
 c100cd4:	e3a0101e 	mov	r1, #30
 c100cd8:	e3a0200f 	mov	r2, #15
 c100cdc:	e3a0302f 	mov	r3, #47	; 0x2f
 c100ce0:	eb001102 	bl	c1050f0 <lcd_putchar>
			lcd_putint( 78, 30, BLACK,(int32) rtc_time.year );
 c100ce4:	e59f3320 	ldr	r3, [pc, #800]	; c10100c <menuPrincipal+0x4b8>
 c100ce8:	e5d33006 	ldrb	r3, [r3, #6]
 c100cec:	e3a0004e 	mov	r0, #78	; 0x4e
 c100cf0:	e3a0101e 	mov	r1, #30
 c100cf4:	e3a0200f 	mov	r2, #15
 c100cf8:	eb00116e 	bl	c1052b8 <lcd_putint>
			if(rtc_time.year < 10){ //Para poner un 0 en el lcd y no sea solo un digito
 c100cfc:	e59f3308 	ldr	r3, [pc, #776]	; c10100c <menuPrincipal+0x4b8>
 c100d00:	e5d33006 	ldrb	r3, [r3, #6]
 c100d04:	e3530009 	cmp	r3, #9
 c100d08:	8a00000a 	bhi	c100d38 <menuPrincipal+0x1e4>
				lcd_putint(78, 30, BLACK, (int32) 0 );
 c100d0c:	e3a0004e 	mov	r0, #78	; 0x4e
 c100d10:	e3a0101e 	mov	r1, #30
 c100d14:	e3a0200f 	mov	r2, #15
 c100d18:	e3a03000 	mov	r3, #0
 c100d1c:	eb001165 	bl	c1052b8 <lcd_putint>
				lcd_putint(86, 30, BLACK, (int32) rtc_time.year );
 c100d20:	e59f32e4 	ldr	r3, [pc, #740]	; c10100c <menuPrincipal+0x4b8>
 c100d24:	e5d33006 	ldrb	r3, [r3, #6]
 c100d28:	e3a00056 	mov	r0, #86	; 0x56
 c100d2c:	e3a0101e 	mov	r1, #30
 c100d30:	e3a0200f 	mov	r2, #15
 c100d34:	eb00115f 	bl	c1052b8 <lcd_putint>


			//Parte izquierda
			//----------------------
			//Mostrar opcion cronometro
			lcd_draw_box(30, 135, 150, 160, BLACK, 3);
 c100d38:	e3a0300f 	mov	r3, #15
 c100d3c:	e58d3000 	str	r3, [sp]
 c100d40:	e3a03003 	mov	r3, #3
 c100d44:	e58d3004 	str	r3, [sp, #4]
 c100d48:	e3a0001e 	mov	r0, #30
 c100d4c:	e3a01087 	mov	r1, #135	; 0x87
 c100d50:	e3a02096 	mov	r2, #150	; 0x96
 c100d54:	e3a030a0 	mov	r3, #160	; 0xa0
 c100d58:	eb0010b5 	bl	c105034 <lcd_draw_box>
			lcd_puts(40, 140, BLACK, "Cronometro");
 c100d5c:	e3a00028 	mov	r0, #40	; 0x28
 c100d60:	e3a0108c 	mov	r1, #140	; 0x8c
 c100d64:	e3a0200f 	mov	r2, #15
 c100d68:	e59f32b4 	ldr	r3, [pc, #692]	; c101024 <menuPrincipal+0x4d0>
 c100d6c:	eb001134 	bl	c105244 <lcd_puts>

			//Mostrar opcion cambiar fecha
			lcd_draw_box(30, 165, 150, 190, BLACK, 3);
 c100d70:	e3a0300f 	mov	r3, #15
 c100d74:	e58d3000 	str	r3, [sp]
 c100d78:	e3a03003 	mov	r3, #3
 c100d7c:	e58d3004 	str	r3, [sp, #4]
 c100d80:	e3a0001e 	mov	r0, #30
 c100d84:	e3a010a5 	mov	r1, #165	; 0xa5
 c100d88:	e3a02096 	mov	r2, #150	; 0x96
 c100d8c:	e3a030be 	mov	r3, #190	; 0xbe
 c100d90:	eb0010a7 	bl	c105034 <lcd_draw_box>
			lcd_puts(40, 170, BLACK, "Cambiar fecha");
 c100d94:	e3a00028 	mov	r0, #40	; 0x28
 c100d98:	e3a010aa 	mov	r1, #170	; 0xaa
 c100d9c:	e3a0200f 	mov	r2, #15
 c100da0:	e59f3280 	ldr	r3, [pc, #640]	; c101028 <menuPrincipal+0x4d4>
 c100da4:	eb001126 	bl	c105244 <lcd_puts>

			//Parte derecha
			//----------------------

			//Mostrar opcion cambiar hora
			lcd_draw_box(170, 135, 290, 160, BLACK, 3);
 c100da8:	e3a0300f 	mov	r3, #15
 c100dac:	e58d3000 	str	r3, [sp]
 c100db0:	e3a03003 	mov	r3, #3
 c100db4:	e58d3004 	str	r3, [sp, #4]
 c100db8:	e3a000aa 	mov	r0, #170	; 0xaa
 c100dbc:	e3a01087 	mov	r1, #135	; 0x87
 c100dc0:	e59f2264 	ldr	r2, [pc, #612]	; c10102c <menuPrincipal+0x4d8>
 c100dc4:	e3a030a0 	mov	r3, #160	; 0xa0
 c100dc8:	eb001099 	bl	c105034 <lcd_draw_box>
			lcd_puts(180, 140, BLACK, "Cambiar hora");
 c100dcc:	e3a000b4 	mov	r0, #180	; 0xb4
 c100dd0:	e3a0108c 	mov	r1, #140	; 0x8c
 c100dd4:	e3a0200f 	mov	r2, #15
 c100dd8:	e59f3250 	ldr	r3, [pc, #592]	; c101030 <menuPrincipal+0x4dc>
 c100ddc:	eb001118 	bl	c105244 <lcd_puts>

			//Mostrar opcion contador latidos
			lcd_draw_box(170, 165, 290, 190, BLACK, 3);
 c100de0:	e3a0300f 	mov	r3, #15
 c100de4:	e58d3000 	str	r3, [sp]
 c100de8:	e3a03003 	mov	r3, #3
 c100dec:	e58d3004 	str	r3, [sp, #4]
 c100df0:	e3a000aa 	mov	r0, #170	; 0xaa
 c100df4:	e3a010a5 	mov	r1, #165	; 0xa5
 c100df8:	e59f222c 	ldr	r2, [pc, #556]	; c10102c <menuPrincipal+0x4d8>
 c100dfc:	e3a030be 	mov	r3, #190	; 0xbe
 c100e00:	eb00108b 	bl	c105034 <lcd_draw_box>
			lcd_puts(180, 170, BLACK, "Modo deporte");
 c100e04:	e3a000b4 	mov	r0, #180	; 0xb4
 c100e08:	e3a010aa 	mov	r1, #170	; 0xaa
 c100e0c:	e3a0200f 	mov	r2, #15
 c100e10:	e59f321c 	ldr	r3, [pc, #540]	; c101034 <menuPrincipal+0x4e0>
 c100e14:	eb00110a 	bl	c105244 <lcd_puts>

			//Hacemos que el programa no vuelva a pintar el menu
			pintarMenuPrincipal = FALSE;
 c100e18:	e59f31fc 	ldr	r3, [pc, #508]	; c10101c <menuPrincipal+0x4c8>
 c100e1c:	e3a02000 	mov	r2, #0
 c100e20:	e5c32000 	strb	r2, [r3]
		}

		INT_DISABLE;
 c100e24:	e10f0000 	mrs	r0, CPSR
 c100e28:	e52d0004 	push	{r0}		; (str r0, [sp, #-4]!)
 c100e2c:	e38000c0 	orr	r0, r0, #192	; 0xc0
 c100e30:	e121f000 	msr	CPSR_c, r0
		lcd_puts(180, 30, BLACK, "Pasos/min:");
 c100e34:	e3a000b4 	mov	r0, #180	; 0xb4
 c100e38:	e3a0101e 	mov	r1, #30
 c100e3c:	e3a0200f 	mov	r2, #15
 c100e40:	e59f31f0 	ldr	r3, [pc, #496]	; c101038 <menuPrincipal+0x4e4>
 c100e44:	eb0010fe 	bl	c105244 <lcd_puts>
		lcd_putint(270, 30, BLACK, (int32) pasosPorMin);
 c100e48:	e59f31ec 	ldr	r3, [pc, #492]	; c10103c <menuPrincipal+0x4e8>
 c100e4c:	e1d330b0 	ldrh	r3, [r3]
 c100e50:	e1a03803 	lsl	r3, r3, #16
 c100e54:	e1a03823 	lsr	r3, r3, #16
 c100e58:	e59f01e0 	ldr	r0, [pc, #480]	; c101040 <menuPrincipal+0x4ec>
 c100e5c:	e3a0101e 	mov	r1, #30
 c100e60:	e3a0200f 	mov	r2, #15
 c100e64:	eb001113 	bl	c1052b8 <lcd_putint>

		lcd_puts(164, 45, BLACK, "Latidos/min:");
 c100e68:	e3a000a4 	mov	r0, #164	; 0xa4
 c100e6c:	e3a0102d 	mov	r1, #45	; 0x2d
 c100e70:	e3a0200f 	mov	r2, #15
 c100e74:	e59f31c8 	ldr	r3, [pc, #456]	; c101044 <menuPrincipal+0x4f0>
 c100e78:	eb0010f1 	bl	c105244 <lcd_puts>
		lcd_putint(270, 45, BLACK, (int32) latidosPorMin);
 c100e7c:	e59f31c4 	ldr	r3, [pc, #452]	; c101048 <menuPrincipal+0x4f4>
 c100e80:	e1d330b0 	ldrh	r3, [r3]
 c100e84:	e1a03803 	lsl	r3, r3, #16
 c100e88:	e1a03823 	lsr	r3, r3, #16
 c100e8c:	e59f01ac 	ldr	r0, [pc, #428]	; c101040 <menuPrincipal+0x4ec>
 c100e90:	e3a0102d 	mov	r1, #45	; 0x2d
 c100e94:	e3a0200f 	mov	r2, #15
 c100e98:	eb001106 	bl	c1052b8 <lcd_putint>
		INT_ENABLE;
 c100e9c:	e49d0004 	pop	{r0}		; (ldr r0, [sp], #4)
 c100ea0:	e121f000 	msr	CPSR_c, r0
		/*-------------Reconocemos pulsaciones del touchpad el menu principal-------------*/
			//Captamos donde ha presionado el usuario
		if(ts_pressed()){
 c100ea4:	eb001c7f 	bl	c1080a8 <ts_pressed>
 c100ea8:	e1a03000 	mov	r3, r0
 c100eac:	e3530000 	cmp	r3, #0
 c100eb0:	0a000004 	beq	c100ec8 <menuPrincipal+0x374>
			ts_getpos(&x,&y);
 c100eb4:	e24b200e 	sub	r2, fp, #14
 c100eb8:	e24b3010 	sub	r3, fp, #16
 c100ebc:	e1a00002 	mov	r0, r2
 c100ec0:	e1a01003 	mov	r1, r3
 c100ec4:	eb001cfe 	bl	c1082c4 <ts_getpos>
		}


		if( x>30 && y>135 && x<150 && y<160 )
 c100ec8:	e15b30be 	ldrh	r3, [fp, #-14]
 c100ecc:	e353001e 	cmp	r3, #30
 c100ed0:	9a00000e 	bls	c100f10 <menuPrincipal+0x3bc>
 c100ed4:	e15b31b0 	ldrh	r3, [fp, #-16]
 c100ed8:	e3530087 	cmp	r3, #135	; 0x87
 c100edc:	9a00000b 	bls	c100f10 <menuPrincipal+0x3bc>
 c100ee0:	e15b30be 	ldrh	r3, [fp, #-14]
 c100ee4:	e3530095 	cmp	r3, #149	; 0x95
 c100ee8:	8a000008 	bhi	c100f10 <menuPrincipal+0x3bc>
 c100eec:	e15b31b0 	ldrh	r3, [fp, #-16]
 c100ef0:	e353009f 	cmp	r3, #159	; 0x9f
 c100ef4:	8a000005 	bhi	c100f10 <menuPrincipal+0x3bc>
			{
				x=0;
 c100ef8:	e3a03000 	mov	r3, #0
 c100efc:	e14b30be 	strh	r3, [fp, #-14]
				y = 0;
 c100f00:	e3a03000 	mov	r3, #0
 c100f04:	e14b31b0 	strh	r3, [fp, #-16]
				modoCronometro();
 c100f08:	eb0000f2 	bl	c1012d8 <modoCronometro>
 c100f0c:	ea000036 	b	c100fec <menuPrincipal+0x498>
			}
		else if( x>30 && y>165 && x<150 && y<190 )
 c100f10:	e15b30be 	ldrh	r3, [fp, #-14]
 c100f14:	e353001e 	cmp	r3, #30
 c100f18:	9a00000e 	bls	c100f58 <menuPrincipal+0x404>
 c100f1c:	e15b31b0 	ldrh	r3, [fp, #-16]
 c100f20:	e35300a5 	cmp	r3, #165	; 0xa5
 c100f24:	9a00000b 	bls	c100f58 <menuPrincipal+0x404>
 c100f28:	e15b30be 	ldrh	r3, [fp, #-14]
 c100f2c:	e3530095 	cmp	r3, #149	; 0x95
 c100f30:	8a000008 	bhi	c100f58 <menuPrincipal+0x404>
 c100f34:	e15b31b0 	ldrh	r3, [fp, #-16]
 c100f38:	e35300bd 	cmp	r3, #189	; 0xbd
 c100f3c:	8a000005 	bhi	c100f58 <menuPrincipal+0x404>
			{
				x=0;
 c100f40:	e3a03000 	mov	r3, #0
 c100f44:	e14b30be 	strh	r3, [fp, #-14]
				y = 0;
 c100f48:	e3a03000 	mov	r3, #0
 c100f4c:	e14b31b0 	strh	r3, [fp, #-16]
				modoFecha();
 c100f50:	eb0005dc 	bl	c1026c8 <modoFecha>
 c100f54:	ea000024 	b	c100fec <menuPrincipal+0x498>
			}
		else if( x>170 && y>135 && x<290 && y<160 )
 c100f58:	e15b30be 	ldrh	r3, [fp, #-14]
 c100f5c:	e35300aa 	cmp	r3, #170	; 0xaa
 c100f60:	9a00000f 	bls	c100fa4 <menuPrincipal+0x450>
 c100f64:	e15b31b0 	ldrh	r3, [fp, #-16]
 c100f68:	e3530087 	cmp	r3, #135	; 0x87
 c100f6c:	9a00000c 	bls	c100fa4 <menuPrincipal+0x450>
 c100f70:	e15b20be 	ldrh	r2, [fp, #-14]
 c100f74:	e59f30d0 	ldr	r3, [pc, #208]	; c10104c <menuPrincipal+0x4f8>
 c100f78:	e1520003 	cmp	r2, r3
 c100f7c:	8a000008 	bhi	c100fa4 <menuPrincipal+0x450>
 c100f80:	e15b31b0 	ldrh	r3, [fp, #-16]
 c100f84:	e353009f 	cmp	r3, #159	; 0x9f
 c100f88:	8a000005 	bhi	c100fa4 <menuPrincipal+0x450>
			{
				x=0;
 c100f8c:	e3a03000 	mov	r3, #0
 c100f90:	e14b30be 	strh	r3, [fp, #-14]
				y = 0;
 c100f94:	e3a03000 	mov	r3, #0
 c100f98:	e14b31b0 	strh	r3, [fp, #-16]
				modoCambiarHora();
 c100f9c:	eb0004ca 	bl	c1022cc <modoCambiarHora>
 c100fa0:	ea000011 	b	c100fec <menuPrincipal+0x498>
			}
		else if( x>170 && y>165 && x<290 && y<190 )
 c100fa4:	e15b30be 	ldrh	r3, [fp, #-14]
 c100fa8:	e35300aa 	cmp	r3, #170	; 0xaa
 c100fac:	9a00000e 	bls	c100fec <menuPrincipal+0x498>
 c100fb0:	e15b31b0 	ldrh	r3, [fp, #-16]
 c100fb4:	e35300a5 	cmp	r3, #165	; 0xa5
 c100fb8:	9a00000b 	bls	c100fec <menuPrincipal+0x498>
 c100fbc:	e15b20be 	ldrh	r2, [fp, #-14]
 c100fc0:	e59f3084 	ldr	r3, [pc, #132]	; c10104c <menuPrincipal+0x4f8>
 c100fc4:	e1520003 	cmp	r2, r3
 c100fc8:	8a000007 	bhi	c100fec <menuPrincipal+0x498>
 c100fcc:	e15b31b0 	ldrh	r3, [fp, #-16]
 c100fd0:	e35300bd 	cmp	r3, #189	; 0xbd
 c100fd4:	8a000004 	bhi	c100fec <menuPrincipal+0x498>
			{
				x=0;
 c100fd8:	e3a03000 	mov	r3, #0
 c100fdc:	e14b30be 	strh	r3, [fp, #-14]
				y = 0;
 c100fe0:	e3a03000 	mov	r3, #0
 c100fe4:	e14b31b0 	strh	r3, [fp, #-16]
				modoDeporte();
 c100fe8:	eb00084a 	bl	c103118 <modoDeporte>

	lcd_clear();
	flagPbs = FALSE;
	//Empieza programa menu principal
	//Mientras no se pulse ningun pulsador
	while(!flagPbs){
 c100fec:	e59f301c 	ldr	r3, [pc, #28]	; c101010 <menuPrincipal+0x4bc>
 c100ff0:	e5d33000 	ldrb	r3, [r3]
 c100ff4:	e20330ff 	and	r3, r3, #255	; 0xff
 c100ff8:	e3530000 	cmp	r3, #0
 c100ffc:	0afffee0 	beq	c100b84 <menuPrincipal+0x30>
			}


	};//Fin while menuPrincipal

}
 c101000:	e24bd00c 	sub	sp, fp, #12
 c101004:	e89d6800 	ldm	sp, {fp, sp, lr}
 c101008:	e12fff1e 	bx	lr
 c10100c:	0c10bdb0 	.word	0x0c10bdb0
 c101010:	0c10b978 	.word	0x0c10b978
 c101014:	0c10b974 	.word	0x0c10b974
 c101018:	0c10b975 	.word	0x0c10b975
 c10101c:	0c10b970 	.word	0x0c10b970
 c101020:	00000136 	.word	0x00000136
 c101024:	0c109d64 	.word	0x0c109d64
 c101028:	0c109d70 	.word	0x0c109d70
 c10102c:	00000122 	.word	0x00000122
 c101030:	0c109d80 	.word	0x0c109d80
 c101034:	0c109d90 	.word	0x0c109d90
 c101038:	0c109da0 	.word	0x0c109da0
 c10103c:	0c10bdc4 	.word	0x0c10bdc4
 c101040:	0000010e 	.word	0x0000010e
 c101044:	0c109dac 	.word	0x0c109dac
 c101048:	0c10bda0 	.word	0x0c10bda0
 c10104c:	00000121 	.word	0x00000121

0c101050 <mostrarRelojAux>:
void mostrarRelojAux(rtc_time_t *rtc_aux){
 c101050:	e1a0c00d 	mov	ip, sp
 c101054:	e92dd800 	push	{fp, ip, lr, pc}
 c101058:	e24cb004 	sub	fp, ip, #4
 c10105c:	e24dd008 	sub	sp, sp, #8
 c101060:	e50b0010 	str	r0, [fp, #-16]

	lcd_putint_x2(100, 70, BLACK, (int32) rtc_aux->hour );
 c101064:	e51b3010 	ldr	r3, [fp, #-16]
 c101068:	e5d33002 	ldrb	r3, [r3, #2]
 c10106c:	e3a00064 	mov	r0, #100	; 0x64
 c101070:	e3a01046 	mov	r1, #70	; 0x46
 c101074:	e3a0200f 	mov	r2, #15
 c101078:	eb001189 	bl	c1056a4 <lcd_putint_x2>
	if(rtc_aux->hour < 10){ //Para poner un 0 en el lcd y no sea solo un digito
 c10107c:	e51b3010 	ldr	r3, [fp, #-16]
 c101080:	e5d33002 	ldrb	r3, [r3, #2]
 c101084:	e3530009 	cmp	r3, #9
 c101088:	8a00000a 	bhi	c1010b8 <mostrarRelojAux+0x68>
		lcd_putint_x2(100, 70, BLACK, (int32) 0 );
 c10108c:	e3a00064 	mov	r0, #100	; 0x64
 c101090:	e3a01046 	mov	r1, #70	; 0x46
 c101094:	e3a0200f 	mov	r2, #15
 c101098:	e3a03000 	mov	r3, #0
 c10109c:	eb001180 	bl	c1056a4 <lcd_putint_x2>
		lcd_putint_x2(116, 70, BLACK, (int32) rtc_aux->hour );
 c1010a0:	e51b3010 	ldr	r3, [fp, #-16]
 c1010a4:	e5d33002 	ldrb	r3, [r3, #2]
 c1010a8:	e3a00074 	mov	r0, #116	; 0x74
 c1010ac:	e3a01046 	mov	r1, #70	; 0x46
 c1010b0:	e3a0200f 	mov	r2, #15
 c1010b4:	eb00117a 	bl	c1056a4 <lcd_putint_x2>
	}

	lcd_putchar_x2(132, 70, BLACK, ':' );
 c1010b8:	e3a00084 	mov	r0, #132	; 0x84
 c1010bc:	e3a01046 	mov	r1, #70	; 0x46
 c1010c0:	e3a0200f 	mov	r2, #15
 c1010c4:	e3a0303a 	mov	r3, #58	; 0x3a
 c1010c8:	eb0010ff 	bl	c1054cc <lcd_putchar_x2>
	lcd_putint_x2(148, 70, BLACK, (int32) rtc_aux->min );
 c1010cc:	e51b3010 	ldr	r3, [fp, #-16]
 c1010d0:	e5d33001 	ldrb	r3, [r3, #1]
 c1010d4:	e3a00094 	mov	r0, #148	; 0x94
 c1010d8:	e3a01046 	mov	r1, #70	; 0x46
 c1010dc:	e3a0200f 	mov	r2, #15
 c1010e0:	eb00116f 	bl	c1056a4 <lcd_putint_x2>
	if(rtc_aux->min < 10){ //Para poner un 0 en el lcd y no sea solo un digito
 c1010e4:	e51b3010 	ldr	r3, [fp, #-16]
 c1010e8:	e5d33001 	ldrb	r3, [r3, #1]
 c1010ec:	e3530009 	cmp	r3, #9
 c1010f0:	8a00000a 	bhi	c101120 <mostrarRelojAux+0xd0>
		lcd_putint_x2(148, 70, BLACK, (int32) 0);
 c1010f4:	e3a00094 	mov	r0, #148	; 0x94
 c1010f8:	e3a01046 	mov	r1, #70	; 0x46
 c1010fc:	e3a0200f 	mov	r2, #15
 c101100:	e3a03000 	mov	r3, #0
 c101104:	eb001166 	bl	c1056a4 <lcd_putint_x2>
		lcd_putint_x2(164, 70, BLACK, (int32)  rtc_aux->min );
 c101108:	e51b3010 	ldr	r3, [fp, #-16]
 c10110c:	e5d33001 	ldrb	r3, [r3, #1]
 c101110:	e3a000a4 	mov	r0, #164	; 0xa4
 c101114:	e3a01046 	mov	r1, #70	; 0x46
 c101118:	e3a0200f 	mov	r2, #15
 c10111c:	eb001160 	bl	c1056a4 <lcd_putint_x2>
	}

	lcd_putchar_x2(180, 70, BLACK, ':' );
 c101120:	e3a000b4 	mov	r0, #180	; 0xb4
 c101124:	e3a01046 	mov	r1, #70	; 0x46
 c101128:	e3a0200f 	mov	r2, #15
 c10112c:	e3a0303a 	mov	r3, #58	; 0x3a
 c101130:	eb0010e5 	bl	c1054cc <lcd_putchar_x2>
	lcd_putint_x2(196, 70, BLACK, (int32) rtc_aux->sec );
 c101134:	e51b3010 	ldr	r3, [fp, #-16]
 c101138:	e5d33000 	ldrb	r3, [r3]
 c10113c:	e3a000c4 	mov	r0, #196	; 0xc4
 c101140:	e3a01046 	mov	r1, #70	; 0x46
 c101144:	e3a0200f 	mov	r2, #15
 c101148:	eb001155 	bl	c1056a4 <lcd_putint_x2>
	if(rtc_aux->sec < 10){ //Para poner un 0 en el lcd y no sea solo un digito
 c10114c:	e51b3010 	ldr	r3, [fp, #-16]
 c101150:	e5d33000 	ldrb	r3, [r3]
 c101154:	e3530009 	cmp	r3, #9
 c101158:	8a00000a 	bhi	c101188 <mostrarRelojAux+0x138>
		lcd_putint_x2(196, 70, BLACK, (int32) 0 );
 c10115c:	e3a000c4 	mov	r0, #196	; 0xc4
 c101160:	e3a01046 	mov	r1, #70	; 0x46
 c101164:	e3a0200f 	mov	r2, #15
 c101168:	e3a03000 	mov	r3, #0
 c10116c:	eb00114c 	bl	c1056a4 <lcd_putint_x2>
		lcd_putint_x2(212, 70, BLACK, (int32) rtc_aux->sec );
 c101170:	e51b3010 	ldr	r3, [fp, #-16]
 c101174:	e5d33000 	ldrb	r3, [r3]
 c101178:	e3a000d4 	mov	r0, #212	; 0xd4
 c10117c:	e3a01046 	mov	r1, #70	; 0x46
 c101180:	e3a0200f 	mov	r2, #15
 c101184:	eb001146 	bl	c1056a4 <lcd_putint_x2>
	}
}
 c101188:	e24bd00c 	sub	sp, fp, #12
 c10118c:	e89d6800 	ldm	sp, {fp, sp, lr}
 c101190:	e12fff1e 	bx	lr

0c101194 <mostrarFecha>:
void mostrarFecha(rtc_time_t *rtc_aux){
 c101194:	e1a0c00d 	mov	ip, sp
 c101198:	e92dd800 	push	{fp, ip, lr, pc}
 c10119c:	e24cb004 	sub	fp, ip, #4
 c1011a0:	e24dd008 	sub	sp, sp, #8
 c1011a4:	e50b0010 	str	r0, [fp, #-16]

	lcd_putint_x2(100, 70, BLACK, (int32) rtc_aux->mday );
 c1011a8:	e51b3010 	ldr	r3, [fp, #-16]
 c1011ac:	e5d33003 	ldrb	r3, [r3, #3]
 c1011b0:	e3a00064 	mov	r0, #100	; 0x64
 c1011b4:	e3a01046 	mov	r1, #70	; 0x46
 c1011b8:	e3a0200f 	mov	r2, #15
 c1011bc:	eb001138 	bl	c1056a4 <lcd_putint_x2>
	if(rtc_aux->mday < 10){ //Para poner un 0 en el lcd y no sea solo un digito
 c1011c0:	e51b3010 	ldr	r3, [fp, #-16]
 c1011c4:	e5d33003 	ldrb	r3, [r3, #3]
 c1011c8:	e3530009 	cmp	r3, #9
 c1011cc:	8a00000a 	bhi	c1011fc <mostrarFecha+0x68>
		lcd_putint_x2(100, 70, BLACK, (int32) 0 );
 c1011d0:	e3a00064 	mov	r0, #100	; 0x64
 c1011d4:	e3a01046 	mov	r1, #70	; 0x46
 c1011d8:	e3a0200f 	mov	r2, #15
 c1011dc:	e3a03000 	mov	r3, #0
 c1011e0:	eb00112f 	bl	c1056a4 <lcd_putint_x2>
		lcd_putint_x2(116, 70, BLACK, (int32) rtc_aux->mday );
 c1011e4:	e51b3010 	ldr	r3, [fp, #-16]
 c1011e8:	e5d33003 	ldrb	r3, [r3, #3]
 c1011ec:	e3a00074 	mov	r0, #116	; 0x74
 c1011f0:	e3a01046 	mov	r1, #70	; 0x46
 c1011f4:	e3a0200f 	mov	r2, #15
 c1011f8:	eb001129 	bl	c1056a4 <lcd_putint_x2>
	}

	lcd_putchar_x2(132, 70, BLACK, '/' );
 c1011fc:	e3a00084 	mov	r0, #132	; 0x84
 c101200:	e3a01046 	mov	r1, #70	; 0x46
 c101204:	e3a0200f 	mov	r2, #15
 c101208:	e3a0302f 	mov	r3, #47	; 0x2f
 c10120c:	eb0010ae 	bl	c1054cc <lcd_putchar_x2>
	lcd_putint_x2(148, 70, BLACK, (int32) rtc_aux->mon );
 c101210:	e51b3010 	ldr	r3, [fp, #-16]
 c101214:	e5d33005 	ldrb	r3, [r3, #5]
 c101218:	e3a00094 	mov	r0, #148	; 0x94
 c10121c:	e3a01046 	mov	r1, #70	; 0x46
 c101220:	e3a0200f 	mov	r2, #15
 c101224:	eb00111e 	bl	c1056a4 <lcd_putint_x2>
	if(rtc_aux->mon < 10){ //Para poner un 0 en el lcd y no sea solo un digito
 c101228:	e51b3010 	ldr	r3, [fp, #-16]
 c10122c:	e5d33005 	ldrb	r3, [r3, #5]
 c101230:	e3530009 	cmp	r3, #9
 c101234:	8a00000a 	bhi	c101264 <mostrarFecha+0xd0>
		lcd_putint_x2(148, 70, BLACK, (int32) 0);
 c101238:	e3a00094 	mov	r0, #148	; 0x94
 c10123c:	e3a01046 	mov	r1, #70	; 0x46
 c101240:	e3a0200f 	mov	r2, #15
 c101244:	e3a03000 	mov	r3, #0
 c101248:	eb001115 	bl	c1056a4 <lcd_putint_x2>
		lcd_putint_x2(164, 70, BLACK, (int32)  rtc_aux->mon );
 c10124c:	e51b3010 	ldr	r3, [fp, #-16]
 c101250:	e5d33005 	ldrb	r3, [r3, #5]
 c101254:	e3a000a4 	mov	r0, #164	; 0xa4
 c101258:	e3a01046 	mov	r1, #70	; 0x46
 c10125c:	e3a0200f 	mov	r2, #15
 c101260:	eb00110f 	bl	c1056a4 <lcd_putint_x2>
	}

	lcd_putchar_x2(180, 70, BLACK, '/' );
 c101264:	e3a000b4 	mov	r0, #180	; 0xb4
 c101268:	e3a01046 	mov	r1, #70	; 0x46
 c10126c:	e3a0200f 	mov	r2, #15
 c101270:	e3a0302f 	mov	r3, #47	; 0x2f
 c101274:	eb001094 	bl	c1054cc <lcd_putchar_x2>
	lcd_putint_x2(196, 70, BLACK, (int32) rtc_aux->year );
 c101278:	e51b3010 	ldr	r3, [fp, #-16]
 c10127c:	e5d33006 	ldrb	r3, [r3, #6]
 c101280:	e3a000c4 	mov	r0, #196	; 0xc4
 c101284:	e3a01046 	mov	r1, #70	; 0x46
 c101288:	e3a0200f 	mov	r2, #15
 c10128c:	eb001104 	bl	c1056a4 <lcd_putint_x2>
	if(rtc_aux->year < 10){ //Para poner un 0 en el lcd y no sea solo un digito
 c101290:	e51b3010 	ldr	r3, [fp, #-16]
 c101294:	e5d33006 	ldrb	r3, [r3, #6]
 c101298:	e3530009 	cmp	r3, #9
 c10129c:	8a00000a 	bhi	c1012cc <mostrarFecha+0x138>
		lcd_putint_x2(196, 70, BLACK, (int32) 0 );
 c1012a0:	e3a000c4 	mov	r0, #196	; 0xc4
 c1012a4:	e3a01046 	mov	r1, #70	; 0x46
 c1012a8:	e3a0200f 	mov	r2, #15
 c1012ac:	e3a03000 	mov	r3, #0
 c1012b0:	eb0010fb 	bl	c1056a4 <lcd_putint_x2>
		lcd_putint_x2(212, 70, BLACK, (int32) rtc_aux->year );
 c1012b4:	e51b3010 	ldr	r3, [fp, #-16]
 c1012b8:	e5d33006 	ldrb	r3, [r3, #6]
 c1012bc:	e3a000d4 	mov	r0, #212	; 0xd4
 c1012c0:	e3a01046 	mov	r1, #70	; 0x46
 c1012c4:	e3a0200f 	mov	r2, #15
 c1012c8:	eb0010f5 	bl	c1056a4 <lcd_putint_x2>
	}
}
 c1012cc:	e24bd00c 	sub	sp, fp, #12
 c1012d0:	e89d6800 	ldm	sp, {fp, sp, lr}
 c1012d4:	e12fff1e 	bx	lr

0c1012d8 <modoCronometro>:
void modoCronometro( void ){
 c1012d8:	e1a0c00d 	mov	ip, sp
 c1012dc:	e92dd800 	push	{fp, ip, lr, pc}
 c1012e0:	e24cb004 	sub	fp, ip, #4
 c1012e4:	e24dd010 	sub	sp, sp, #16

	boolean volverMenuPrincipal = FALSE;
 c1012e8:	e3a03000 	mov	r3, #0
 c1012ec:	e54b300d 	strb	r3, [fp, #-13]
	boolean pintadoInicial = TRUE;
 c1012f0:	e3a03001 	mov	r3, #1
 c1012f4:	e54b300e 	strb	r3, [fp, #-14]
	boolean crono_on = FALSE;
 c1012f8:	e3a03000 	mov	r3, #0
 c1012fc:	e54b300f 	strb	r3, [fp, #-15]
	boolean crono_reset = FALSE;
 c101300:	e3a03000 	mov	r3, #0
 c101304:	e54b3010 	strb	r3, [fp, #-16]



	uint16 x, y;
	//Limpiamos el menu principal
	lcd_clear();
 c101308:	eb000e7c 	bl	c104d00 <lcd_clear>
	lcd_draw_box( 10, 10, 310, 230, BLACK, 5 );
 c10130c:	e3a0300f 	mov	r3, #15
 c101310:	e58d3000 	str	r3, [sp]
 c101314:	e3a03005 	mov	r3, #5
 c101318:	e58d3004 	str	r3, [sp, #4]
 c10131c:	e3a0000a 	mov	r0, #10
 c101320:	e3a0100a 	mov	r1, #10
 c101324:	e59f23a4 	ldr	r2, [pc, #932]	; c1016d0 <modoCronometro+0x3f8>
 c101328:	e3a030e6 	mov	r3, #230	; 0xe6
 c10132c:	eb000f40 	bl	c105034 <lcd_draw_box>

	while(!volverMenuPrincipal){
 c101330:	ea0000dc 	b	c1016a8 <modoCronometro+0x3d0>

		//Aqui pintamos las cosas que no se actualizan
		if(pintadoInicial){
 c101334:	e55b300e 	ldrb	r3, [fp, #-14]
 c101338:	e3530000 	cmp	r3, #0
 c10133c:	0a00003b 	beq	c101430 <modoCronometro+0x158>

			//Mostrar opcion volver menu principal
			lcd_draw_box(170, 12, 310, 40, BLACK, 3);
 c101340:	e3a0300f 	mov	r3, #15
 c101344:	e58d3000 	str	r3, [sp]
 c101348:	e3a03003 	mov	r3, #3
 c10134c:	e58d3004 	str	r3, [sp, #4]
 c101350:	e3a000aa 	mov	r0, #170	; 0xaa
 c101354:	e3a0100c 	mov	r1, #12
 c101358:	e59f2370 	ldr	r2, [pc, #880]	; c1016d0 <modoCronometro+0x3f8>
 c10135c:	e3a03028 	mov	r3, #40	; 0x28
 c101360:	eb000f33 	bl	c105034 <lcd_draw_box>
			lcd_puts(180, 20, BLACK, "Menu principal");
 c101364:	e3a000b4 	mov	r0, #180	; 0xb4
 c101368:	e3a01014 	mov	r1, #20
 c10136c:	e3a0200f 	mov	r2, #15
 c101370:	e59f335c 	ldr	r3, [pc, #860]	; c1016d4 <modoCronometro+0x3fc>
 c101374:	eb000fb2 	bl	c105244 <lcd_puts>

			// Mostrar opcion cambiar fecha
			lcd_draw_box(95, 165, 225, 190, BLACK, 3);
 c101378:	e3a0300f 	mov	r3, #15
 c10137c:	e58d3000 	str	r3, [sp]
 c101380:	e3a03003 	mov	r3, #3
 c101384:	e58d3004 	str	r3, [sp, #4]
 c101388:	e3a0005f 	mov	r0, #95	; 0x5f
 c10138c:	e3a010a5 	mov	r1, #165	; 0xa5
 c101390:	e3a020e1 	mov	r2, #225	; 0xe1
 c101394:	e3a030be 	mov	r3, #190	; 0xbe
 c101398:	eb000f25 	bl	c105034 <lcd_draw_box>
			lcd_puts(105, 170, BLACK, "Iniciar crono");
 c10139c:	e3a00069 	mov	r0, #105	; 0x69
 c1013a0:	e3a010aa 	mov	r1, #170	; 0xaa
 c1013a4:	e3a0200f 	mov	r2, #15
 c1013a8:	e59f3328 	ldr	r3, [pc, #808]	; c1016d8 <modoCronometro+0x400>
 c1013ac:	eb000fa4 	bl	c105244 <lcd_puts>

			// Mostrar opcion contador pasos
			lcd_draw_box(20, 195, 150, 220, BLACK, 3);
 c1013b0:	e3a0300f 	mov	r3, #15
 c1013b4:	e58d3000 	str	r3, [sp]
 c1013b8:	e3a03003 	mov	r3, #3
 c1013bc:	e58d3004 	str	r3, [sp, #4]
 c1013c0:	e3a00014 	mov	r0, #20
 c1013c4:	e3a010c3 	mov	r1, #195	; 0xc3
 c1013c8:	e3a02096 	mov	r2, #150	; 0x96
 c1013cc:	e3a030dc 	mov	r3, #220	; 0xdc
 c1013d0:	eb000f17 	bl	c105034 <lcd_draw_box>
			lcd_puts(30, 200, BLACK, "Detener crono");
 c1013d4:	e3a0001e 	mov	r0, #30
 c1013d8:	e3a010c8 	mov	r1, #200	; 0xc8
 c1013dc:	e3a0200f 	mov	r2, #15
 c1013e0:	e59f32f4 	ldr	r3, [pc, #756]	; c1016dc <modoCronometro+0x404>
 c1013e4:	eb000f96 	bl	c105244 <lcd_puts>

			// Mostrar opcion contador modo deporte
			lcd_draw_box(170, 195, 300, 220, BLACK, 3);
 c1013e8:	e3a0300f 	mov	r3, #15
 c1013ec:	e58d3000 	str	r3, [sp]
 c1013f0:	e3a03003 	mov	r3, #3
 c1013f4:	e58d3004 	str	r3, [sp, #4]
 c1013f8:	e3a000aa 	mov	r0, #170	; 0xaa
 c1013fc:	e3a010c3 	mov	r1, #195	; 0xc3
 c101400:	e3a02f4b 	mov	r2, #300	; 0x12c
 c101404:	e3a030dc 	mov	r3, #220	; 0xdc
 c101408:	eb000f09 	bl	c105034 <lcd_draw_box>
			lcd_puts(180, 200, BLACK, "Resetear crono");
 c10140c:	e3a000b4 	mov	r0, #180	; 0xb4
 c101410:	e3a010c8 	mov	r1, #200	; 0xc8
 c101414:	e3a0200f 	mov	r2, #15
 c101418:	e59f32c0 	ldr	r3, [pc, #704]	; c1016e0 <modoCronometro+0x408>
 c10141c:	eb000f88 	bl	c105244 <lcd_puts>

			//Mostrar el cronometro inicial (16 pixeles el caracter en x2, 8 pixeles de normal)
			mostrarRelojAux(&rtc_cronometro);
 c101420:	e59f02bc 	ldr	r0, [pc, #700]	; c1016e4 <modoCronometro+0x40c>
 c101424:	ebffff09 	bl	c101050 <mostrarRelojAux>

			pintadoInicial = FALSE;
 c101428:	e3a03000 	mov	r3, #0
 c10142c:	e54b300e 	strb	r3, [fp, #-14]
		}


		//Para que no se quede el programa congelado esperando que el usuario presione la pantalla
		if(ts_pressed()){
 c101430:	eb001b1c 	bl	c1080a8 <ts_pressed>
 c101434:	e1a03000 	mov	r3, r0
 c101438:	e3530000 	cmp	r3, #0
 c10143c:	0a000004 	beq	c101454 <modoCronometro+0x17c>
			ts_getpos(&x,&y);
 c101440:	e24b2012 	sub	r2, fp, #18
 c101444:	e24b3014 	sub	r3, fp, #20
 c101448:	e1a00002 	mov	r0, r2
 c10144c:	e1a01003 	mov	r1, r3
 c101450:	eb001b9b 	bl	c1082c4 <ts_getpos>
		}

		if( x>95 && y>165 && x<225 && y<190 )
 c101454:	e15b31b2 	ldrh	r3, [fp, #-18]	; 0xffffffee
 c101458:	e353005f 	cmp	r3, #95	; 0x5f
 c10145c:	9a000013 	bls	c1014b0 <modoCronometro+0x1d8>
 c101460:	e15b31b4 	ldrh	r3, [fp, #-20]	; 0xffffffec
 c101464:	e35300a5 	cmp	r3, #165	; 0xa5
 c101468:	9a000010 	bls	c1014b0 <modoCronometro+0x1d8>
 c10146c:	e15b31b2 	ldrh	r3, [fp, #-18]	; 0xffffffee
 c101470:	e35300e0 	cmp	r3, #224	; 0xe0
 c101474:	8a00000d 	bhi	c1014b0 <modoCronometro+0x1d8>
 c101478:	e15b31b4 	ldrh	r3, [fp, #-20]	; 0xffffffec
 c10147c:	e35300bd 	cmp	r3, #189	; 0xbd
 c101480:	8a00000a 	bhi	c1014b0 <modoCronometro+0x1d8>
			{
				x=0;
 c101484:	e3a03000 	mov	r3, #0
 c101488:	e14b31b2 	strh	r3, [fp, #-18]	; 0xffffffee
				y = 0;
 c10148c:	e3a03000 	mov	r3, #0
 c101490:	e14b31b4 	strh	r3, [fp, #-20]	; 0xffffffec
				crono_on = TRUE;
 c101494:	e3a03001 	mov	r3, #1
 c101498:	e54b300f 	strb	r3, [fp, #-15]
				timer0_open_ms( isr_timer0, 1000, TIMER_INTERVAL );
 c10149c:	e59f0244 	ldr	r0, [pc, #580]	; c1016e8 <modoCronometro+0x410>
 c1014a0:	e3a01ffa 	mov	r1, #1000	; 0x3e8
 c1014a4:	e3a02001 	mov	r2, #1
 c1014a8:	eb001a64 	bl	c107e40 <timer0_open_ms>
 c1014ac:	ea000040 	b	c1015b4 <modoCronometro+0x2dc>
			}
		else if( x>20 && y>195 && x<150 && y<220 )
 c1014b0:	e15b31b2 	ldrh	r3, [fp, #-18]	; 0xffffffee
 c1014b4:	e3530014 	cmp	r3, #20
 c1014b8:	9a000010 	bls	c101500 <modoCronometro+0x228>
 c1014bc:	e15b31b4 	ldrh	r3, [fp, #-20]	; 0xffffffec
 c1014c0:	e35300c3 	cmp	r3, #195	; 0xc3
 c1014c4:	9a00000d 	bls	c101500 <modoCronometro+0x228>
 c1014c8:	e15b31b2 	ldrh	r3, [fp, #-18]	; 0xffffffee
 c1014cc:	e3530095 	cmp	r3, #149	; 0x95
 c1014d0:	8a00000a 	bhi	c101500 <modoCronometro+0x228>
 c1014d4:	e15b31b4 	ldrh	r3, [fp, #-20]	; 0xffffffec
 c1014d8:	e35300db 	cmp	r3, #219	; 0xdb
 c1014dc:	8a000007 	bhi	c101500 <modoCronometro+0x228>
			{
				x=0;
 c1014e0:	e3a03000 	mov	r3, #0
 c1014e4:	e14b31b2 	strh	r3, [fp, #-18]	; 0xffffffee
				y = 0;
 c1014e8:	e3a03000 	mov	r3, #0
 c1014ec:	e14b31b4 	strh	r3, [fp, #-20]	; 0xffffffec
				crono_on = FALSE;
 c1014f0:	e3a03000 	mov	r3, #0
 c1014f4:	e54b300f 	strb	r3, [fp, #-15]
				timer0_close();
 c1014f8:	eb001a93 	bl	c107f4c <timer0_close>
 c1014fc:	ea00002c 	b	c1015b4 <modoCronometro+0x2dc>
			}
		else if( x>170 && y>195 && x<300 && y<220 )
 c101500:	e15b31b2 	ldrh	r3, [fp, #-18]	; 0xffffffee
 c101504:	e35300aa 	cmp	r3, #170	; 0xaa
 c101508:	9a000013 	bls	c10155c <modoCronometro+0x284>
 c10150c:	e15b31b4 	ldrh	r3, [fp, #-20]	; 0xffffffec
 c101510:	e35300c3 	cmp	r3, #195	; 0xc3
 c101514:	9a000010 	bls	c10155c <modoCronometro+0x284>
 c101518:	e15b21b2 	ldrh	r2, [fp, #-18]	; 0xffffffee
 c10151c:	e59f31c8 	ldr	r3, [pc, #456]	; c1016ec <modoCronometro+0x414>
 c101520:	e1520003 	cmp	r2, r3
 c101524:	8a00000c 	bhi	c10155c <modoCronometro+0x284>
 c101528:	e15b31b4 	ldrh	r3, [fp, #-20]	; 0xffffffec
 c10152c:	e35300db 	cmp	r3, #219	; 0xdb
 c101530:	8a000009 	bhi	c10155c <modoCronometro+0x284>
			{
				x=0;
 c101534:	e3a03000 	mov	r3, #0
 c101538:	e14b31b2 	strh	r3, [fp, #-18]	; 0xffffffee
				y = 0;
 c10153c:	e3a03000 	mov	r3, #0
 c101540:	e14b31b4 	strh	r3, [fp, #-20]	; 0xffffffec
				crono_on = FALSE;
 c101544:	e3a03000 	mov	r3, #0
 c101548:	e54b300f 	strb	r3, [fp, #-15]
				crono_reset = TRUE;
 c10154c:	e3a03001 	mov	r3, #1
 c101550:	e54b3010 	strb	r3, [fp, #-16]
				timer0_close();
 c101554:	eb001a7c 	bl	c107f4c <timer0_close>
 c101558:	ea000015 	b	c1015b4 <modoCronometro+0x2dc>
			}
		else if( x>170 && y>12 && x<310 && y<40 )
 c10155c:	e15b31b2 	ldrh	r3, [fp, #-18]	; 0xffffffee
 c101560:	e35300aa 	cmp	r3, #170	; 0xaa
 c101564:	9a000012 	bls	c1015b4 <modoCronometro+0x2dc>
 c101568:	e15b31b4 	ldrh	r3, [fp, #-20]	; 0xffffffec
 c10156c:	e353000c 	cmp	r3, #12
 c101570:	9a00000f 	bls	c1015b4 <modoCronometro+0x2dc>
 c101574:	e15b21b2 	ldrh	r2, [fp, #-18]	; 0xffffffee
 c101578:	e59f3170 	ldr	r3, [pc, #368]	; c1016f0 <modoCronometro+0x418>
 c10157c:	e1520003 	cmp	r2, r3
 c101580:	8a00000b 	bhi	c1015b4 <modoCronometro+0x2dc>
 c101584:	e15b31b4 	ldrh	r3, [fp, #-20]	; 0xffffffec
 c101588:	e3530027 	cmp	r3, #39	; 0x27
 c10158c:	8a000008 	bhi	c1015b4 <modoCronometro+0x2dc>
			{
				x=0;
 c101590:	e3a03000 	mov	r3, #0
 c101594:	e14b31b2 	strh	r3, [fp, #-18]	; 0xffffffee
				y = 0;
 c101598:	e3a03000 	mov	r3, #0
 c10159c:	e14b31b4 	strh	r3, [fp, #-20]	; 0xffffffec
				volverMenuPrincipal = TRUE;
 c1015a0:	e3a03001 	mov	r3, #1
 c1015a4:	e54b300d 	strb	r3, [fp, #-13]
				crono_on = FALSE;
 c1015a8:	e3a03000 	mov	r3, #0
 c1015ac:	e54b300f 	strb	r3, [fp, #-15]
				timer0_close();
 c1015b0:	eb001a65 	bl	c107f4c <timer0_close>
			}

		if(crono_reset){
 c1015b4:	e55b3010 	ldrb	r3, [fp, #-16]
 c1015b8:	e3530000 	cmp	r3, #0
 c1015bc:	0a00000c 	beq	c1015f4 <modoCronometro+0x31c>
			rtc_cronometro.sec = 0;
 c1015c0:	e59f311c 	ldr	r3, [pc, #284]	; c1016e4 <modoCronometro+0x40c>
 c1015c4:	e3a02000 	mov	r2, #0
 c1015c8:	e5c32000 	strb	r2, [r3]
			rtc_cronometro.min = 0;
 c1015cc:	e59f3110 	ldr	r3, [pc, #272]	; c1016e4 <modoCronometro+0x40c>
 c1015d0:	e3a02000 	mov	r2, #0
 c1015d4:	e5c32001 	strb	r2, [r3, #1]
			rtc_cronometro.hour= 0;
 c1015d8:	e59f3104 	ldr	r3, [pc, #260]	; c1016e4 <modoCronometro+0x40c>
 c1015dc:	e3a02000 	mov	r2, #0
 c1015e0:	e5c32002 	strb	r2, [r3, #2]
			mostrarRelojAux(&rtc_cronometro);
 c1015e4:	e59f00f8 	ldr	r0, [pc, #248]	; c1016e4 <modoCronometro+0x40c>
 c1015e8:	ebfffe98 	bl	c101050 <mostrarRelojAux>
			crono_reset = FALSE;
 c1015ec:	e3a03000 	mov	r3, #0
 c1015f0:	e54b3010 	strb	r3, [fp, #-16]
		}
		//Mostrar y actualizar el cronometro
		if( crono_on && flagTimer0)
 c1015f4:	e55b300f 	ldrb	r3, [fp, #-15]
 c1015f8:	e3530000 	cmp	r3, #0
 c1015fc:	0a000029 	beq	c1016a8 <modoCronometro+0x3d0>
 c101600:	e59f30ec 	ldr	r3, [pc, #236]	; c1016f4 <modoCronometro+0x41c>
 c101604:	e5d33000 	ldrb	r3, [r3]
 c101608:	e20330ff 	and	r3, r3, #255	; 0xff
 c10160c:	e3530000 	cmp	r3, #0
 c101610:	0a000024 	beq	c1016a8 <modoCronometro+0x3d0>
		{
			//Usar timer0
			flagTimer0 = FALSE;
 c101614:	e59f30d8 	ldr	r3, [pc, #216]	; c1016f4 <modoCronometro+0x41c>
 c101618:	e3a02000 	mov	r2, #0
 c10161c:	e5c32000 	strb	r2, [r3]

			rtc_cronometro.sec++;
 c101620:	e59f30bc 	ldr	r3, [pc, #188]	; c1016e4 <modoCronometro+0x40c>
 c101624:	e5d33000 	ldrb	r3, [r3]
 c101628:	e2833001 	add	r3, r3, #1
 c10162c:	e20320ff 	and	r2, r3, #255	; 0xff
 c101630:	e59f30ac 	ldr	r3, [pc, #172]	; c1016e4 <modoCronometro+0x40c>
 c101634:	e5c32000 	strb	r2, [r3]

			if(rtc_cronometro.sec >59){
 c101638:	e59f30a4 	ldr	r3, [pc, #164]	; c1016e4 <modoCronometro+0x40c>
 c10163c:	e5d33000 	ldrb	r3, [r3]
 c101640:	e353003b 	cmp	r3, #59	; 0x3b
 c101644:	9a000008 	bls	c10166c <modoCronometro+0x394>
				rtc_cronometro.sec = 0;
 c101648:	e59f3094 	ldr	r3, [pc, #148]	; c1016e4 <modoCronometro+0x40c>
 c10164c:	e3a02000 	mov	r2, #0
 c101650:	e5c32000 	strb	r2, [r3]
				 rtc_cronometro.min++;
 c101654:	e59f3088 	ldr	r3, [pc, #136]	; c1016e4 <modoCronometro+0x40c>
 c101658:	e5d33001 	ldrb	r3, [r3, #1]
 c10165c:	e2833001 	add	r3, r3, #1
 c101660:	e20320ff 	and	r2, r3, #255	; 0xff
 c101664:	e59f3078 	ldr	r3, [pc, #120]	; c1016e4 <modoCronometro+0x40c>
 c101668:	e5c32001 	strb	r2, [r3, #1]
			}
			if(rtc_cronometro.min >59){
 c10166c:	e59f3070 	ldr	r3, [pc, #112]	; c1016e4 <modoCronometro+0x40c>
 c101670:	e5d33001 	ldrb	r3, [r3, #1]
 c101674:	e353003b 	cmp	r3, #59	; 0x3b
 c101678:	9a000008 	bls	c1016a0 <modoCronometro+0x3c8>
				rtc_cronometro.min = 0;
 c10167c:	e59f3060 	ldr	r3, [pc, #96]	; c1016e4 <modoCronometro+0x40c>
 c101680:	e3a02000 	mov	r2, #0
 c101684:	e5c32001 	strb	r2, [r3, #1]
				 rtc_cronometro.hour++;
 c101688:	e59f3054 	ldr	r3, [pc, #84]	; c1016e4 <modoCronometro+0x40c>
 c10168c:	e5d33002 	ldrb	r3, [r3, #2]
 c101690:	e2833001 	add	r3, r3, #1
 c101694:	e20320ff 	and	r2, r3, #255	; 0xff
 c101698:	e59f3044 	ldr	r3, [pc, #68]	; c1016e4 <modoCronometro+0x40c>
 c10169c:	e5c32002 	strb	r2, [r3, #2]
			}

			//Mostrar el cronometro inicial (16 pixeles el caracter en x2, 8 pixeles de normal)
			mostrarRelojAux(&rtc_cronometro);
 c1016a0:	e59f003c 	ldr	r0, [pc, #60]	; c1016e4 <modoCronometro+0x40c>
 c1016a4:	ebfffe69 	bl	c101050 <mostrarRelojAux>
	uint16 x, y;
	//Limpiamos el menu principal
	lcd_clear();
	lcd_draw_box( 10, 10, 310, 230, BLACK, 5 );

	while(!volverMenuPrincipal){
 c1016a8:	e55b300d 	ldrb	r3, [fp, #-13]
 c1016ac:	e3530000 	cmp	r3, #0
 c1016b0:	0affff1f 	beq	c101334 <modoCronometro+0x5c>

			//Mostrar el cronometro inicial (16 pixeles el caracter en x2, 8 pixeles de normal)
			mostrarRelojAux(&rtc_cronometro);
		};
	}
	pintarMenuPrincipal = TRUE;
 c1016b4:	e59f303c 	ldr	r3, [pc, #60]	; c1016f8 <modoCronometro+0x420>
 c1016b8:	e3a02001 	mov	r2, #1
 c1016bc:	e5c32000 	strb	r2, [r3]
	lcd_clear();
 c1016c0:	eb000d8e 	bl	c104d00 <lcd_clear>

}
 c1016c4:	e24bd00c 	sub	sp, fp, #12
 c1016c8:	e89d6800 	ldm	sp, {fp, sp, lr}
 c1016cc:	e12fff1e 	bx	lr
 c1016d0:	00000136 	.word	0x00000136
 c1016d4:	0c109dbc 	.word	0x0c109dbc
 c1016d8:	0c109dcc 	.word	0x0c109dcc
 c1016dc:	0c109ddc 	.word	0x0c109ddc
 c1016e0:	0c109dec 	.word	0x0c109dec
 c1016e4:	0c10bdbc 	.word	0x0c10bdbc
 c1016e8:	0c1034c8 	.word	0x0c1034c8
 c1016ec:	0000012b 	.word	0x0000012b
 c1016f0:	00000135 	.word	0x00000135
 c1016f4:	0c10b976 	.word	0x0c10b976
 c1016f8:	0c10b970 	.word	0x0c10b970

0c1016fc <operacionCambioHora>:


/*--------------------Funciones para el cambio de fecha y hora--------------------*/

//----Funciones auxiliares de los modos cambio fecha y hora----//
void operacionCambioHora(uint8 modo, uint8 seleccionado){
 c1016fc:	e1a0c00d 	mov	ip, sp
 c101700:	e92dd800 	push	{fp, ip, lr, pc}
 c101704:	e24cb004 	sub	fp, ip, #4
 c101708:	e24dd008 	sub	sp, sp, #8
 c10170c:	e1a02000 	mov	r2, r0
 c101710:	e1a03001 	mov	r3, r1
 c101714:	e54b200d 	strb	r2, [fp, #-13]
 c101718:	e54b300e 	strb	r3, [fp, #-14]
	//seleccionado valores (1-3) siendo 1 hora, 2 minutos, 3 segundos
	//modo (1-2) siendo 1 la suma y 2 la resta

	if(seleccionado ==1){//Cambio segundos
 c10171c:	e55b300e 	ldrb	r3, [fp, #-14]
 c101720:	e3530001 	cmp	r3, #1
 c101724:	1a000021 	bne	c1017b0 <operacionCambioHora+0xb4>
			if(modo ==1){
 c101728:	e55b300d 	ldrb	r3, [fp, #-13]
 c10172c:	e3530001 	cmp	r3, #1
 c101730:	1a00000d 	bne	c10176c <operacionCambioHora+0x70>
				rtc_time_aux.hour++;
 c101734:	e59f31a4 	ldr	r3, [pc, #420]	; c1018e0 <operacionCambioHora+0x1e4>
 c101738:	e5d33002 	ldrb	r3, [r3, #2]
 c10173c:	e2833001 	add	r3, r3, #1
 c101740:	e20320ff 	and	r2, r3, #255	; 0xff
 c101744:	e59f3194 	ldr	r3, [pc, #404]	; c1018e0 <operacionCambioHora+0x1e4>
 c101748:	e5c32002 	strb	r2, [r3, #2]
				if(rtc_time_aux.hour > 24){
 c10174c:	e59f318c 	ldr	r3, [pc, #396]	; c1018e0 <operacionCambioHora+0x1e4>
 c101750:	e5d33002 	ldrb	r3, [r3, #2]
 c101754:	e3530018 	cmp	r3, #24
 c101758:	9a00005d 	bls	c1018d4 <operacionCambioHora+0x1d8>
					rtc_time_aux.hour = 0;
 c10175c:	e59f317c 	ldr	r3, [pc, #380]	; c1018e0 <operacionCambioHora+0x1e4>
 c101760:	e3a02000 	mov	r2, #0
 c101764:	e5c32002 	strb	r2, [r3, #2]
 c101768:	ea000059 	b	c1018d4 <operacionCambioHora+0x1d8>
				}
			}else{
				modo=2; //Por si acaso entra sin pillar bien el valor de modo asi por defecto resta
 c10176c:	e3a03002 	mov	r3, #2
 c101770:	e54b300d 	strb	r3, [fp, #-13]
				if(rtc_time_aux.hour !=0){
 c101774:	e59f3164 	ldr	r3, [pc, #356]	; c1018e0 <operacionCambioHora+0x1e4>
 c101778:	e5d33002 	ldrb	r3, [r3, #2]
 c10177c:	e3530000 	cmp	r3, #0
 c101780:	0a000006 	beq	c1017a0 <operacionCambioHora+0xa4>
					rtc_time_aux.hour--;
 c101784:	e59f3154 	ldr	r3, [pc, #340]	; c1018e0 <operacionCambioHora+0x1e4>
 c101788:	e5d33002 	ldrb	r3, [r3, #2]
 c10178c:	e2433001 	sub	r3, r3, #1
 c101790:	e20320ff 	and	r2, r3, #255	; 0xff
 c101794:	e59f3144 	ldr	r3, [pc, #324]	; c1018e0 <operacionCambioHora+0x1e4>
 c101798:	e5c32002 	strb	r2, [r3, #2]
 c10179c:	ea00004c 	b	c1018d4 <operacionCambioHora+0x1d8>
				}else{
					rtc_time_aux.hour =24;
 c1017a0:	e59f3138 	ldr	r3, [pc, #312]	; c1018e0 <operacionCambioHora+0x1e4>
 c1017a4:	e3a02018 	mov	r2, #24
 c1017a8:	e5c32002 	strb	r2, [r3, #2]
 c1017ac:	ea000048 	b	c1018d4 <operacionCambioHora+0x1d8>
				}
			}
	}else if(seleccionado == 2){
 c1017b0:	e55b300e 	ldrb	r3, [fp, #-14]
 c1017b4:	e3530002 	cmp	r3, #2
 c1017b8:	1a000021 	bne	c101844 <operacionCambioHora+0x148>
		if(modo ==1){
 c1017bc:	e55b300d 	ldrb	r3, [fp, #-13]
 c1017c0:	e3530001 	cmp	r3, #1
 c1017c4:	1a00000d 	bne	c101800 <operacionCambioHora+0x104>
			rtc_time_aux.min++;
 c1017c8:	e59f3110 	ldr	r3, [pc, #272]	; c1018e0 <operacionCambioHora+0x1e4>
 c1017cc:	e5d33001 	ldrb	r3, [r3, #1]
 c1017d0:	e2833001 	add	r3, r3, #1
 c1017d4:	e20320ff 	and	r2, r3, #255	; 0xff
 c1017d8:	e59f3100 	ldr	r3, [pc, #256]	; c1018e0 <operacionCambioHora+0x1e4>
 c1017dc:	e5c32001 	strb	r2, [r3, #1]
			if(rtc_time_aux.min > 59){
 c1017e0:	e59f30f8 	ldr	r3, [pc, #248]	; c1018e0 <operacionCambioHora+0x1e4>
 c1017e4:	e5d33001 	ldrb	r3, [r3, #1]
 c1017e8:	e353003b 	cmp	r3, #59	; 0x3b
 c1017ec:	9a000038 	bls	c1018d4 <operacionCambioHora+0x1d8>
				rtc_time_aux.min=0;
 c1017f0:	e59f30e8 	ldr	r3, [pc, #232]	; c1018e0 <operacionCambioHora+0x1e4>
 c1017f4:	e3a02000 	mov	r2, #0
 c1017f8:	e5c32001 	strb	r2, [r3, #1]
 c1017fc:	ea000034 	b	c1018d4 <operacionCambioHora+0x1d8>
			}
		}else{
			modo=2; //Por si acaso entra sin pillar bien el valor de modo asi por defecto resta
 c101800:	e3a03002 	mov	r3, #2
 c101804:	e54b300d 	strb	r3, [fp, #-13]
			if(rtc_time_aux.min !=0){
 c101808:	e59f30d0 	ldr	r3, [pc, #208]	; c1018e0 <operacionCambioHora+0x1e4>
 c10180c:	e5d33001 	ldrb	r3, [r3, #1]
 c101810:	e3530000 	cmp	r3, #0
 c101814:	0a000006 	beq	c101834 <operacionCambioHora+0x138>
				rtc_time_aux.min--;
 c101818:	e59f30c0 	ldr	r3, [pc, #192]	; c1018e0 <operacionCambioHora+0x1e4>
 c10181c:	e5d33001 	ldrb	r3, [r3, #1]
 c101820:	e2433001 	sub	r3, r3, #1
 c101824:	e20320ff 	and	r2, r3, #255	; 0xff
 c101828:	e59f30b0 	ldr	r3, [pc, #176]	; c1018e0 <operacionCambioHora+0x1e4>
 c10182c:	e5c32001 	strb	r2, [r3, #1]
 c101830:	ea000027 	b	c1018d4 <operacionCambioHora+0x1d8>
			}else{
				rtc_time_aux.min =59;
 c101834:	e59f30a4 	ldr	r3, [pc, #164]	; c1018e0 <operacionCambioHora+0x1e4>
 c101838:	e3a0203b 	mov	r2, #59	; 0x3b
 c10183c:	e5c32001 	strb	r2, [r3, #1]
 c101840:	ea000023 	b	c1018d4 <operacionCambioHora+0x1d8>
			}
		}
	}
	else if(seleccionado == 3){
 c101844:	e55b300e 	ldrb	r3, [fp, #-14]
 c101848:	e3530003 	cmp	r3, #3
 c10184c:	1a000020 	bne	c1018d4 <operacionCambioHora+0x1d8>
		if(modo ==1){
 c101850:	e55b300d 	ldrb	r3, [fp, #-13]
 c101854:	e3530001 	cmp	r3, #1
 c101858:	1a00000d 	bne	c101894 <operacionCambioHora+0x198>
			rtc_time_aux.sec++;
 c10185c:	e59f307c 	ldr	r3, [pc, #124]	; c1018e0 <operacionCambioHora+0x1e4>
 c101860:	e5d33000 	ldrb	r3, [r3]
 c101864:	e2833001 	add	r3, r3, #1
 c101868:	e20320ff 	and	r2, r3, #255	; 0xff
 c10186c:	e59f306c 	ldr	r3, [pc, #108]	; c1018e0 <operacionCambioHora+0x1e4>
 c101870:	e5c32000 	strb	r2, [r3]
			if(rtc_time_aux.sec > 59){
 c101874:	e59f3064 	ldr	r3, [pc, #100]	; c1018e0 <operacionCambioHora+0x1e4>
 c101878:	e5d33000 	ldrb	r3, [r3]
 c10187c:	e353003b 	cmp	r3, #59	; 0x3b
 c101880:	9a000013 	bls	c1018d4 <operacionCambioHora+0x1d8>
				rtc_time_aux.sec = 0;
 c101884:	e59f3054 	ldr	r3, [pc, #84]	; c1018e0 <operacionCambioHora+0x1e4>
 c101888:	e3a02000 	mov	r2, #0
 c10188c:	e5c32000 	strb	r2, [r3]
 c101890:	ea00000f 	b	c1018d4 <operacionCambioHora+0x1d8>
			}
		}else{
			modo=2; //Por si acaso entra sin pillar bien el valor de modo asi por defecto resta
 c101894:	e3a03002 	mov	r3, #2
 c101898:	e54b300d 	strb	r3, [fp, #-13]
			if(rtc_time_aux.sec !=0){
 c10189c:	e59f303c 	ldr	r3, [pc, #60]	; c1018e0 <operacionCambioHora+0x1e4>
 c1018a0:	e5d33000 	ldrb	r3, [r3]
 c1018a4:	e3530000 	cmp	r3, #0
 c1018a8:	0a000006 	beq	c1018c8 <operacionCambioHora+0x1cc>
				rtc_time_aux.sec--;
 c1018ac:	e59f302c 	ldr	r3, [pc, #44]	; c1018e0 <operacionCambioHora+0x1e4>
 c1018b0:	e5d33000 	ldrb	r3, [r3]
 c1018b4:	e2433001 	sub	r3, r3, #1
 c1018b8:	e20320ff 	and	r2, r3, #255	; 0xff
 c1018bc:	e59f301c 	ldr	r3, [pc, #28]	; c1018e0 <operacionCambioHora+0x1e4>
 c1018c0:	e5c32000 	strb	r2, [r3]
 c1018c4:	ea000002 	b	c1018d4 <operacionCambioHora+0x1d8>
			}else{
				rtc_time_aux.sec =59;
 c1018c8:	e59f3010 	ldr	r3, [pc, #16]	; c1018e0 <operacionCambioHora+0x1e4>
 c1018cc:	e3a0203b 	mov	r2, #59	; 0x3b
 c1018d0:	e5c32000 	strb	r2, [r3]
			}

		}
	}

}
 c1018d4:	e24bd00c 	sub	sp, fp, #12
 c1018d8:	e89d6800 	ldm	sp, {fp, sp, lr}
 c1018dc:	e12fff1e 	bx	lr
 c1018e0:	0c10bda4 	.word	0x0c10bda4

0c1018e4 <cambioMesComp>:
void cambioMesComp(){
 c1018e4:	e1a0c00d 	mov	ip, sp
 c1018e8:	e92dd800 	push	{fp, ip, lr, pc}
 c1018ec:	e24cb004 	sub	fp, ip, #4
	//Comprobamos aqui tambien el dia para que el usuario no pueda poner 30 de febrero 31 de noviembre etc modificando el mes
	if (rtc_time_aux.mon == 2) { // Febrero
 c1018f0:	e59f3150 	ldr	r3, [pc, #336]	; c101a48 <cambioMesComp+0x164>
 c1018f4:	e5d33005 	ldrb	r3, [r3, #5]
 c1018f8:	e3530002 	cmp	r3, #2
 c1018fc:	1a000035 	bne	c1019d8 <cambioMesComp+0xf4>
		if ((rtc_time_aux.year % 4 == 0 && rtc_time_aux.year % 100 != 0) || rtc_time_aux.year % 400 == 0) {
 c101900:	e59f3140 	ldr	r3, [pc, #320]	; c101a48 <cambioMesComp+0x164>
 c101904:	e5d33006 	ldrb	r3, [r3, #6]
 c101908:	e2033003 	and	r3, r3, #3
 c10190c:	e20330ff 	and	r3, r3, #255	; 0xff
 c101910:	e3530000 	cmp	r3, #0
 c101914:	1a00000e 	bne	c101954 <cambioMesComp+0x70>
 c101918:	e59f3128 	ldr	r3, [pc, #296]	; c101a48 <cambioMesComp+0x164>
 c10191c:	e5d32006 	ldrb	r2, [r3, #6]
 c101920:	e59f3124 	ldr	r3, [pc, #292]	; c101a4c <cambioMesComp+0x168>
 c101924:	e0831392 	umull	r1, r3, r2, r3
 c101928:	e1a012a3 	lsr	r1, r3, #5
 c10192c:	e1a03001 	mov	r3, r1
 c101930:	e1a03103 	lsl	r3, r3, #2
 c101934:	e0833001 	add	r3, r3, r1
 c101938:	e1a01103 	lsl	r1, r3, #2
 c10193c:	e0833001 	add	r3, r3, r1
 c101940:	e1a03103 	lsl	r3, r3, #2
 c101944:	e0633002 	rsb	r3, r3, r2
 c101948:	e20330ff 	and	r3, r3, #255	; 0xff
 c10194c:	e3530000 	cmp	r3, #0
 c101950:	1a000010 	bne	c101998 <cambioMesComp+0xb4>
 c101954:	e59f30ec 	ldr	r3, [pc, #236]	; c101a48 <cambioMesComp+0x164>
 c101958:	e5d33006 	ldrb	r3, [r3, #6]
 c10195c:	e1a01003 	mov	r1, r3
 c101960:	e59f30e4 	ldr	r3, [pc, #228]	; c101a4c <cambioMesComp+0x168>
 c101964:	e0c32391 	smull	r2, r3, r1, r3
 c101968:	e1a023c3 	asr	r2, r3, #7
 c10196c:	e1a03fc1 	asr	r3, r1, #31
 c101970:	e0632002 	rsb	r2, r3, r2
 c101974:	e1a03002 	mov	r3, r2
 c101978:	e1a03103 	lsl	r3, r3, #2
 c10197c:	e0833002 	add	r3, r3, r2
 c101980:	e1a02103 	lsl	r2, r3, #2
 c101984:	e0833002 	add	r3, r3, r2
 c101988:	e1a03203 	lsl	r3, r3, #4
 c10198c:	e0632001 	rsb	r2, r3, r1
 c101990:	e3520000 	cmp	r2, #0
 c101994:	1a000007 	bne	c1019b8 <cambioMesComp+0xd4>
			// Año bisiesto
			if(rtc_time_aux.mday >29){
 c101998:	e59f30a8 	ldr	r3, [pc, #168]	; c101a48 <cambioMesComp+0x164>
 c10199c:	e5d33003 	ldrb	r3, [r3, #3]
 c1019a0:	e353001d 	cmp	r3, #29
 c1019a4:	9a000024 	bls	c101a3c <cambioMesComp+0x158>
				rtc_time_aux.mday =29;
 c1019a8:	e59f3098 	ldr	r3, [pc, #152]	; c101a48 <cambioMesComp+0x164>
 c1019ac:	e3a0201d 	mov	r2, #29
 c1019b0:	e5c32003 	strb	r2, [r3, #3]
void cambioMesComp(){
	//Comprobamos aqui tambien el dia para que el usuario no pueda poner 30 de febrero 31 de noviembre etc modificando el mes
	if (rtc_time_aux.mon == 2) { // Febrero
		if ((rtc_time_aux.year % 4 == 0 && rtc_time_aux.year % 100 != 0) || rtc_time_aux.year % 400 == 0) {
			// Año bisiesto
			if(rtc_time_aux.mday >29){
 c1019b4:	ea000020 	b	c101a3c <cambioMesComp+0x158>
				rtc_time_aux.mday =29;
			}
		} else {
			// Año no bisiesto
			if(rtc_time_aux.mday >28){
 c1019b8:	e59f3088 	ldr	r3, [pc, #136]	; c101a48 <cambioMesComp+0x164>
 c1019bc:	e5d33003 	ldrb	r3, [r3, #3]
 c1019c0:	e353001c 	cmp	r3, #28
 c1019c4:	9a00001b 	bls	c101a38 <cambioMesComp+0x154>
				rtc_time_aux.mday =28;
 c1019c8:	e59f3078 	ldr	r3, [pc, #120]	; c101a48 <cambioMesComp+0x164>
 c1019cc:	e3a0201c 	mov	r2, #28
 c1019d0:	e5c32003 	strb	r2, [r3, #3]
 c1019d4:	ea000018 	b	c101a3c <cambioMesComp+0x158>
			}
		}
	} else if (rtc_time_aux.mon == 4 || rtc_time_aux.mon == 6 || rtc_time_aux.mon == 9 || rtc_time_aux.mon == 11) {
 c1019d8:	e59f3068 	ldr	r3, [pc, #104]	; c101a48 <cambioMesComp+0x164>
 c1019dc:	e5d33005 	ldrb	r3, [r3, #5]
 c1019e0:	e3530004 	cmp	r3, #4
 c1019e4:	0a00000b 	beq	c101a18 <cambioMesComp+0x134>
 c1019e8:	e59f3058 	ldr	r3, [pc, #88]	; c101a48 <cambioMesComp+0x164>
 c1019ec:	e5d33005 	ldrb	r3, [r3, #5]
 c1019f0:	e3530006 	cmp	r3, #6
 c1019f4:	0a000007 	beq	c101a18 <cambioMesComp+0x134>
 c1019f8:	e59f3048 	ldr	r3, [pc, #72]	; c101a48 <cambioMesComp+0x164>
 c1019fc:	e5d33005 	ldrb	r3, [r3, #5]
 c101a00:	e3530009 	cmp	r3, #9
 c101a04:	0a000003 	beq	c101a18 <cambioMesComp+0x134>
 c101a08:	e59f3038 	ldr	r3, [pc, #56]	; c101a48 <cambioMesComp+0x164>
 c101a0c:	e5d33005 	ldrb	r3, [r3, #5]
 c101a10:	e353000b 	cmp	r3, #11
 c101a14:	1a000008 	bne	c101a3c <cambioMesComp+0x158>
		// Meses con 30 días
		if(rtc_time_aux.mday >30){
 c101a18:	e59f3028 	ldr	r3, [pc, #40]	; c101a48 <cambioMesComp+0x164>
 c101a1c:	e5d33003 	ldrb	r3, [r3, #3]
 c101a20:	e353001e 	cmp	r3, #30
 c101a24:	9a000004 	bls	c101a3c <cambioMesComp+0x158>
			rtc_time_aux.mday =30;
 c101a28:	e59f3018 	ldr	r3, [pc, #24]	; c101a48 <cambioMesComp+0x164>
 c101a2c:	e3a0201e 	mov	r2, #30
 c101a30:	e5c32003 	strb	r2, [r3, #3]
 c101a34:	ea000000 	b	c101a3c <cambioMesComp+0x158>
				rtc_time_aux.mday =29;
			}
		} else {
			// Año no bisiesto
			if(rtc_time_aux.mday >28){
				rtc_time_aux.mday =28;
 c101a38:	e1a00000 	nop			; (mov r0, r0)
		// Meses con 30 días
		if(rtc_time_aux.mday >30){
			rtc_time_aux.mday =30;
		}
	}
}
 c101a3c:	e24bd00c 	sub	sp, fp, #12
 c101a40:	e89d6800 	ldm	sp, {fp, sp, lr}
 c101a44:	e12fff1e 	bx	lr
 c101a48:	0c10bda4 	.word	0x0c10bda4
 c101a4c:	51eb851f 	.word	0x51eb851f

0c101a50 <operacionCambioFecha>:

void operacionCambioFecha(uint8 modo, uint8 seleccionado){
 c101a50:	e1a0c00d 	mov	ip, sp
 c101a54:	e92dd800 	push	{fp, ip, lr, pc}
 c101a58:	e24cb004 	sub	fp, ip, #4
 c101a5c:	e24dd008 	sub	sp, sp, #8
 c101a60:	e1a02000 	mov	r2, r0
 c101a64:	e1a03001 	mov	r3, r1
 c101a68:	e54b200d 	strb	r2, [fp, #-13]
 c101a6c:	e54b300e 	strb	r3, [fp, #-14]
	//seleccionado valores (1-3) siendo 1 dia, 2 mes, 3 año
	//modo (1-2) siendo 1 la suma y 2 la resta

	if(seleccionado ==1){//dia
 c101a70:	e55b300e 	ldrb	r3, [fp, #-14]
 c101a74:	e3530001 	cmp	r3, #1
 c101a78:	1a000109 	bne	c101ea4 <operacionCambioFecha+0x454>
			if(modo ==1){
 c101a7c:	e55b300d 	ldrb	r3, [fp, #-13]
 c101a80:	e3530001 	cmp	r3, #1
 c101a84:	1a000080 	bne	c101c8c <operacionCambioFecha+0x23c>
				rtc_time_aux.wday++;
 c101a88:	e59f3634 	ldr	r3, [pc, #1588]	; c1020c4 <operacionCambioFecha+0x674>
 c101a8c:	e5d33004 	ldrb	r3, [r3, #4]
 c101a90:	e2833001 	add	r3, r3, #1
 c101a94:	e20320ff 	and	r2, r3, #255	; 0xff
 c101a98:	e59f3624 	ldr	r3, [pc, #1572]	; c1020c4 <operacionCambioFecha+0x674>
 c101a9c:	e5c32004 	strb	r2, [r3, #4]
				if(rtc_time_aux.wday >7){
 c101aa0:	e59f361c 	ldr	r3, [pc, #1564]	; c1020c4 <operacionCambioFecha+0x674>
 c101aa4:	e5d33004 	ldrb	r3, [r3, #4]
 c101aa8:	e3530007 	cmp	r3, #7
 c101aac:	9a000002 	bls	c101abc <operacionCambioFecha+0x6c>
					rtc_time_aux.wday = 1;
 c101ab0:	e59f360c 	ldr	r3, [pc, #1548]	; c1020c4 <operacionCambioFecha+0x674>
 c101ab4:	e3a02001 	mov	r2, #1
 c101ab8:	e5c32004 	strb	r2, [r3, #4]
				}

				if (rtc_time_aux.mon == 2) { // Febrero
 c101abc:	e59f3600 	ldr	r3, [pc, #1536]	; c1020c4 <operacionCambioFecha+0x674>
 c101ac0:	e5d33005 	ldrb	r3, [r3, #5]
 c101ac4:	e3530002 	cmp	r3, #2
 c101ac8:	1a000042 	bne	c101bd8 <operacionCambioFecha+0x188>
					if ((rtc_time_aux.year % 4 == 0 && rtc_time_aux.year % 100 != 0) || rtc_time_aux.year % 400 == 0) {
 c101acc:	e59f35f0 	ldr	r3, [pc, #1520]	; c1020c4 <operacionCambioFecha+0x674>
 c101ad0:	e5d33006 	ldrb	r3, [r3, #6]
 c101ad4:	e2033003 	and	r3, r3, #3
 c101ad8:	e20330ff 	and	r3, r3, #255	; 0xff
 c101adc:	e3530000 	cmp	r3, #0
 c101ae0:	1a00000e 	bne	c101b20 <operacionCambioFecha+0xd0>
 c101ae4:	e59f35d8 	ldr	r3, [pc, #1496]	; c1020c4 <operacionCambioFecha+0x674>
 c101ae8:	e5d32006 	ldrb	r2, [r3, #6]
 c101aec:	e59f35d4 	ldr	r3, [pc, #1492]	; c1020c8 <operacionCambioFecha+0x678>
 c101af0:	e0831392 	umull	r1, r3, r2, r3
 c101af4:	e1a012a3 	lsr	r1, r3, #5
 c101af8:	e1a03001 	mov	r3, r1
 c101afc:	e1a03103 	lsl	r3, r3, #2
 c101b00:	e0833001 	add	r3, r3, r1
 c101b04:	e1a01103 	lsl	r1, r3, #2
 c101b08:	e0833001 	add	r3, r3, r1
 c101b0c:	e1a03103 	lsl	r3, r3, #2
 c101b10:	e0633002 	rsb	r3, r3, r2
 c101b14:	e20330ff 	and	r3, r3, #255	; 0xff
 c101b18:	e3530000 	cmp	r3, #0
 c101b1c:	1a000010 	bne	c101b64 <operacionCambioFecha+0x114>
 c101b20:	e59f359c 	ldr	r3, [pc, #1436]	; c1020c4 <operacionCambioFecha+0x674>
 c101b24:	e5d33006 	ldrb	r3, [r3, #6]
 c101b28:	e1a01003 	mov	r1, r3
 c101b2c:	e59f3594 	ldr	r3, [pc, #1428]	; c1020c8 <operacionCambioFecha+0x678>
 c101b30:	e0c32391 	smull	r2, r3, r1, r3
 c101b34:	e1a023c3 	asr	r2, r3, #7
 c101b38:	e1a03fc1 	asr	r3, r1, #31
 c101b3c:	e0632002 	rsb	r2, r3, r2
 c101b40:	e1a03002 	mov	r3, r2
 c101b44:	e1a03103 	lsl	r3, r3, #2
 c101b48:	e0833002 	add	r3, r3, r2
 c101b4c:	e1a02103 	lsl	r2, r3, #2
 c101b50:	e0833002 	add	r3, r3, r2
 c101b54:	e1a03203 	lsl	r3, r3, #4
 c101b58:	e0632001 	rsb	r2, r3, r1
 c101b5c:	e3520000 	cmp	r2, #0
 c101b60:	1a00000e 	bne	c101ba0 <operacionCambioFecha+0x150>
						// Año bisiesto
						rtc_time_aux.mday++;
 c101b64:	e59f3558 	ldr	r3, [pc, #1368]	; c1020c4 <operacionCambioFecha+0x674>
 c101b68:	e5d33003 	ldrb	r3, [r3, #3]
 c101b6c:	e2833001 	add	r3, r3, #1
 c101b70:	e20320ff 	and	r2, r3, #255	; 0xff
 c101b74:	e59f3548 	ldr	r3, [pc, #1352]	; c1020c4 <operacionCambioFecha+0x674>
 c101b78:	e5c32003 	strb	r2, [r3, #3]
						if(rtc_time_aux.mday >29){
 c101b7c:	e59f3540 	ldr	r3, [pc, #1344]	; c1020c4 <operacionCambioFecha+0x674>
 c101b80:	e5d33003 	ldrb	r3, [r3, #3]
 c101b84:	e353001d 	cmp	r3, #29
 c101b88:	9a000002 	bls	c101b98 <operacionCambioFecha+0x148>
							rtc_time_aux.mday =1;
 c101b8c:	e59f3530 	ldr	r3, [pc, #1328]	; c1020c4 <operacionCambioFecha+0x674>
 c101b90:	e3a02001 	mov	r2, #1
 c101b94:	e5c32003 	strb	r2, [r3, #3]

				if (rtc_time_aux.mon == 2) { // Febrero
					if ((rtc_time_aux.year % 4 == 0 && rtc_time_aux.year % 100 != 0) || rtc_time_aux.year % 400 == 0) {
						// Año bisiesto
						rtc_time_aux.mday++;
						if(rtc_time_aux.mday >29){
 c101b98:	e1a00000 	nop			; (mov r0, r0)

				} else {
					if(rtc_time_aux.mday !=1){
						rtc_time_aux.mday--;
					}else{
						rtc_time_aux.mday =31;
 c101b9c:	ea000145 	b	c1020b8 <operacionCambioFecha+0x668>
						if(rtc_time_aux.mday >29){
							rtc_time_aux.mday =1;
						}
					} else {
						// Año no bisiesto
						rtc_time_aux.mday++;
 c101ba0:	e59f351c 	ldr	r3, [pc, #1308]	; c1020c4 <operacionCambioFecha+0x674>
 c101ba4:	e5d33003 	ldrb	r3, [r3, #3]
 c101ba8:	e2833001 	add	r3, r3, #1
 c101bac:	e20320ff 	and	r2, r3, #255	; 0xff
 c101bb0:	e59f350c 	ldr	r3, [pc, #1292]	; c1020c4 <operacionCambioFecha+0x674>
 c101bb4:	e5c32003 	strb	r2, [r3, #3]
						if(rtc_time_aux.mday >28){
 c101bb8:	e59f3504 	ldr	r3, [pc, #1284]	; c1020c4 <operacionCambioFecha+0x674>
 c101bbc:	e5d33003 	ldrb	r3, [r3, #3]
 c101bc0:	e353001c 	cmp	r3, #28
 c101bc4:	9a000138 	bls	c1020ac <operacionCambioFecha+0x65c>
							rtc_time_aux.mday =1;
 c101bc8:	e59f34f4 	ldr	r3, [pc, #1268]	; c1020c4 <operacionCambioFecha+0x674>
 c101bcc:	e3a02001 	mov	r2, #1
 c101bd0:	e5c32003 	strb	r2, [r3, #3]

				} else {
					if(rtc_time_aux.mday !=1){
						rtc_time_aux.mday--;
					}else{
						rtc_time_aux.mday =31;
 c101bd4:	ea000137 	b	c1020b8 <operacionCambioFecha+0x668>
						rtc_time_aux.mday++;
						if(rtc_time_aux.mday >28){
							rtc_time_aux.mday =1;
						}
					}
				} else if (rtc_time_aux.mon == 4 || rtc_time_aux.mon == 6 || rtc_time_aux.mon == 9 || rtc_time_aux.mon == 11) {
 c101bd8:	e59f34e4 	ldr	r3, [pc, #1252]	; c1020c4 <operacionCambioFecha+0x674>
 c101bdc:	e5d33005 	ldrb	r3, [r3, #5]
 c101be0:	e3530004 	cmp	r3, #4
 c101be4:	0a00000b 	beq	c101c18 <operacionCambioFecha+0x1c8>
 c101be8:	e59f34d4 	ldr	r3, [pc, #1236]	; c1020c4 <operacionCambioFecha+0x674>
 c101bec:	e5d33005 	ldrb	r3, [r3, #5]
 c101bf0:	e3530006 	cmp	r3, #6
 c101bf4:	0a000007 	beq	c101c18 <operacionCambioFecha+0x1c8>
 c101bf8:	e59f34c4 	ldr	r3, [pc, #1220]	; c1020c4 <operacionCambioFecha+0x674>
 c101bfc:	e5d33005 	ldrb	r3, [r3, #5]
 c101c00:	e3530009 	cmp	r3, #9
 c101c04:	0a000003 	beq	c101c18 <operacionCambioFecha+0x1c8>
 c101c08:	e59f34b4 	ldr	r3, [pc, #1204]	; c1020c4 <operacionCambioFecha+0x674>
 c101c0c:	e5d33005 	ldrb	r3, [r3, #5]
 c101c10:	e353000b 	cmp	r3, #11
 c101c14:	1a00000e 	bne	c101c54 <operacionCambioFecha+0x204>
					// Meses con 30 días
					rtc_time_aux.mday++;
 c101c18:	e59f34a4 	ldr	r3, [pc, #1188]	; c1020c4 <operacionCambioFecha+0x674>
 c101c1c:	e5d33003 	ldrb	r3, [r3, #3]
 c101c20:	e2833001 	add	r3, r3, #1
 c101c24:	e20320ff 	and	r2, r3, #255	; 0xff
 c101c28:	e59f3494 	ldr	r3, [pc, #1172]	; c1020c4 <operacionCambioFecha+0x674>
 c101c2c:	e5c32003 	strb	r2, [r3, #3]
					if(rtc_time_aux.mday >30){
 c101c30:	e59f348c 	ldr	r3, [pc, #1164]	; c1020c4 <operacionCambioFecha+0x674>
 c101c34:	e5d33003 	ldrb	r3, [r3, #3]
 c101c38:	e353001e 	cmp	r3, #30
 c101c3c:	9a000002 	bls	c101c4c <operacionCambioFecha+0x1fc>
						rtc_time_aux.mday =1;
 c101c40:	e59f347c 	ldr	r3, [pc, #1148]	; c1020c4 <operacionCambioFecha+0x674>
 c101c44:	e3a02001 	mov	r2, #1
 c101c48:	e5c32003 	strb	r2, [r3, #3]
						}
					}
				} else if (rtc_time_aux.mon == 4 || rtc_time_aux.mon == 6 || rtc_time_aux.mon == 9 || rtc_time_aux.mon == 11) {
					// Meses con 30 días
					rtc_time_aux.mday++;
					if(rtc_time_aux.mday >30){
 c101c4c:	e1a00000 	nop			; (mov r0, r0)

				} else {
					if(rtc_time_aux.mday !=1){
						rtc_time_aux.mday--;
					}else{
						rtc_time_aux.mday =31;
 c101c50:	ea000118 	b	c1020b8 <operacionCambioFecha+0x668>
						rtc_time_aux.mday =1;
					}

				} else {
					// Meses con 31 días
					rtc_time_aux.mday++;
 c101c54:	e59f3468 	ldr	r3, [pc, #1128]	; c1020c4 <operacionCambioFecha+0x674>
 c101c58:	e5d33003 	ldrb	r3, [r3, #3]
 c101c5c:	e2833001 	add	r3, r3, #1
 c101c60:	e20320ff 	and	r2, r3, #255	; 0xff
 c101c64:	e59f3458 	ldr	r3, [pc, #1112]	; c1020c4 <operacionCambioFecha+0x674>
 c101c68:	e5c32003 	strb	r2, [r3, #3]
					if(rtc_time_aux.mday >31){
 c101c6c:	e59f3450 	ldr	r3, [pc, #1104]	; c1020c4 <operacionCambioFecha+0x674>
 c101c70:	e5d33003 	ldrb	r3, [r3, #3]
 c101c74:	e353001f 	cmp	r3, #31
 c101c78:	9a00010d 	bls	c1020b4 <operacionCambioFecha+0x664>
						rtc_time_aux.mday =1;
 c101c7c:	e59f3440 	ldr	r3, [pc, #1088]	; c1020c4 <operacionCambioFecha+0x674>
 c101c80:	e3a02001 	mov	r2, #1
 c101c84:	e5c32003 	strb	r2, [r3, #3]

				} else {
					if(rtc_time_aux.mday !=1){
						rtc_time_aux.mday--;
					}else{
						rtc_time_aux.mday =31;
 c101c88:	ea00010a 	b	c1020b8 <operacionCambioFecha+0x668>
					if(rtc_time_aux.mday >31){
						rtc_time_aux.mday =1;
					}
				}
			}else{
				modo=2;
 c101c8c:	e3a03002 	mov	r3, #2
 c101c90:	e54b300d 	strb	r3, [fp, #-13]
				rtc_time_aux.wday--;
 c101c94:	e59f3428 	ldr	r3, [pc, #1064]	; c1020c4 <operacionCambioFecha+0x674>
 c101c98:	e5d33004 	ldrb	r3, [r3, #4]
 c101c9c:	e2433001 	sub	r3, r3, #1
 c101ca0:	e20320ff 	and	r2, r3, #255	; 0xff
 c101ca4:	e59f3418 	ldr	r3, [pc, #1048]	; c1020c4 <operacionCambioFecha+0x674>
 c101ca8:	e5c32004 	strb	r2, [r3, #4]
				if(rtc_time_aux.wday <1){
 c101cac:	e59f3410 	ldr	r3, [pc, #1040]	; c1020c4 <operacionCambioFecha+0x674>
 c101cb0:	e5d33004 	ldrb	r3, [r3, #4]
 c101cb4:	e3530000 	cmp	r3, #0
 c101cb8:	1a000002 	bne	c101cc8 <operacionCambioFecha+0x278>
					rtc_time_aux.wday = 7;
 c101cbc:	e59f3400 	ldr	r3, [pc, #1024]	; c1020c4 <operacionCambioFecha+0x674>
 c101cc0:	e3a02007 	mov	r2, #7
 c101cc4:	e5c32004 	strb	r2, [r3, #4]
				}

				if (rtc_time_aux.mon == 2) { // Febrero
 c101cc8:	e59f33f4 	ldr	r3, [pc, #1012]	; c1020c4 <operacionCambioFecha+0x674>
 c101ccc:	e5d33005 	ldrb	r3, [r3, #5]
 c101cd0:	e3530002 	cmp	r3, #2
 c101cd4:	1a000044 	bne	c101dec <operacionCambioFecha+0x39c>
					if ((rtc_time_aux.year % 4 == 0 && rtc_time_aux.year % 100 != 0) || rtc_time_aux.year % 400 == 0) {
 c101cd8:	e59f33e4 	ldr	r3, [pc, #996]	; c1020c4 <operacionCambioFecha+0x674>
 c101cdc:	e5d33006 	ldrb	r3, [r3, #6]
 c101ce0:	e2033003 	and	r3, r3, #3
 c101ce4:	e20330ff 	and	r3, r3, #255	; 0xff
 c101ce8:	e3530000 	cmp	r3, #0
 c101cec:	1a00000e 	bne	c101d2c <operacionCambioFecha+0x2dc>
 c101cf0:	e59f33cc 	ldr	r3, [pc, #972]	; c1020c4 <operacionCambioFecha+0x674>
 c101cf4:	e5d32006 	ldrb	r2, [r3, #6]
 c101cf8:	e59f33c8 	ldr	r3, [pc, #968]	; c1020c8 <operacionCambioFecha+0x678>
 c101cfc:	e0831392 	umull	r1, r3, r2, r3
 c101d00:	e1a012a3 	lsr	r1, r3, #5
 c101d04:	e1a03001 	mov	r3, r1
 c101d08:	e1a03103 	lsl	r3, r3, #2
 c101d0c:	e0833001 	add	r3, r3, r1
 c101d10:	e1a01103 	lsl	r1, r3, #2
 c101d14:	e0833001 	add	r3, r3, r1
 c101d18:	e1a03103 	lsl	r3, r3, #2
 c101d1c:	e0633002 	rsb	r3, r3, r2
 c101d20:	e20330ff 	and	r3, r3, #255	; 0xff
 c101d24:	e3530000 	cmp	r3, #0
 c101d28:	1a000010 	bne	c101d70 <operacionCambioFecha+0x320>
 c101d2c:	e59f3390 	ldr	r3, [pc, #912]	; c1020c4 <operacionCambioFecha+0x674>
 c101d30:	e5d33006 	ldrb	r3, [r3, #6]
 c101d34:	e1a01003 	mov	r1, r3
 c101d38:	e59f3388 	ldr	r3, [pc, #904]	; c1020c8 <operacionCambioFecha+0x678>
 c101d3c:	e0c32391 	smull	r2, r3, r1, r3
 c101d40:	e1a023c3 	asr	r2, r3, #7
 c101d44:	e1a03fc1 	asr	r3, r1, #31
 c101d48:	e0632002 	rsb	r2, r3, r2
 c101d4c:	e1a03002 	mov	r3, r2
 c101d50:	e1a03103 	lsl	r3, r3, #2
 c101d54:	e0833002 	add	r3, r3, r2
 c101d58:	e1a02103 	lsl	r2, r3, #2
 c101d5c:	e0833002 	add	r3, r3, r2
 c101d60:	e1a03203 	lsl	r3, r3, #4
 c101d64:	e0632001 	rsb	r2, r3, r1
 c101d68:	e3520000 	cmp	r2, #0
 c101d6c:	1a00000f 	bne	c101db0 <operacionCambioFecha+0x360>
						// Año bisiesto
						if(rtc_time_aux.mday !=1){
 c101d70:	e59f334c 	ldr	r3, [pc, #844]	; c1020c4 <operacionCambioFecha+0x674>
 c101d74:	e5d33003 	ldrb	r3, [r3, #3]
 c101d78:	e3530001 	cmp	r3, #1
 c101d7c:	0a000006 	beq	c101d9c <operacionCambioFecha+0x34c>
							rtc_time_aux.mday--;
 c101d80:	e59f333c 	ldr	r3, [pc, #828]	; c1020c4 <operacionCambioFecha+0x674>
 c101d84:	e5d33003 	ldrb	r3, [r3, #3]
 c101d88:	e2433001 	sub	r3, r3, #1
 c101d8c:	e20320ff 	and	r2, r3, #255	; 0xff
 c101d90:	e59f332c 	ldr	r3, [pc, #812]	; c1020c4 <operacionCambioFecha+0x674>
 c101d94:	e5c32003 	strb	r2, [r3, #3]
 c101d98:	ea000002 	b	c101da8 <operacionCambioFecha+0x358>
						}else{
							rtc_time_aux.mday =29;
 c101d9c:	e59f3320 	ldr	r3, [pc, #800]	; c1020c4 <operacionCambioFecha+0x674>
 c101da0:	e3a0201d 	mov	r2, #29
 c101da4:	e5c32003 	strb	r2, [r3, #3]
				}

				if (rtc_time_aux.mon == 2) { // Febrero
					if ((rtc_time_aux.year % 4 == 0 && rtc_time_aux.year % 100 != 0) || rtc_time_aux.year % 400 == 0) {
						// Año bisiesto
						if(rtc_time_aux.mday !=1){
 c101da8:	e1a00000 	nop			; (mov r0, r0)

				} else {
					if(rtc_time_aux.mday !=1){
						rtc_time_aux.mday--;
					}else{
						rtc_time_aux.mday =31;
 c101dac:	ea0000c1 	b	c1020b8 <operacionCambioFecha+0x668>
						}else{
							rtc_time_aux.mday =29;
						}
					} else {
						// Año no bisiesto
						if(rtc_time_aux.mday !=1){
 c101db0:	e59f330c 	ldr	r3, [pc, #780]	; c1020c4 <operacionCambioFecha+0x674>
 c101db4:	e5d33003 	ldrb	r3, [r3, #3]
 c101db8:	e3530001 	cmp	r3, #1
 c101dbc:	0a000006 	beq	c101ddc <operacionCambioFecha+0x38c>
							rtc_time_aux.mday--;
 c101dc0:	e59f32fc 	ldr	r3, [pc, #764]	; c1020c4 <operacionCambioFecha+0x674>
 c101dc4:	e5d33003 	ldrb	r3, [r3, #3]
 c101dc8:	e2433001 	sub	r3, r3, #1
 c101dcc:	e20320ff 	and	r2, r3, #255	; 0xff
 c101dd0:	e59f32ec 	ldr	r3, [pc, #748]	; c1020c4 <operacionCambioFecha+0x674>
 c101dd4:	e5c32003 	strb	r2, [r3, #3]

				} else {
					if(rtc_time_aux.mday !=1){
						rtc_time_aux.mday--;
					}else{
						rtc_time_aux.mday =31;
 c101dd8:	ea0000b6 	b	c1020b8 <operacionCambioFecha+0x668>
					} else {
						// Año no bisiesto
						if(rtc_time_aux.mday !=1){
							rtc_time_aux.mday--;
						}else{
							rtc_time_aux.mday =28;
 c101ddc:	e59f32e0 	ldr	r3, [pc, #736]	; c1020c4 <operacionCambioFecha+0x674>
 c101de0:	e3a0201c 	mov	r2, #28
 c101de4:	e5c32003 	strb	r2, [r3, #3]

				} else {
					if(rtc_time_aux.mday !=1){
						rtc_time_aux.mday--;
					}else{
						rtc_time_aux.mday =31;
 c101de8:	ea0000b2 	b	c1020b8 <operacionCambioFecha+0x668>
							rtc_time_aux.mday--;
						}else{
							rtc_time_aux.mday =28;
						}
					}
				} else if (rtc_time_aux.mon == 4 || rtc_time_aux.mon == 6 || rtc_time_aux.mon == 9 || rtc_time_aux.mon == 11) {
 c101dec:	e59f32d0 	ldr	r3, [pc, #720]	; c1020c4 <operacionCambioFecha+0x674>
 c101df0:	e5d33005 	ldrb	r3, [r3, #5]
 c101df4:	e3530004 	cmp	r3, #4
 c101df8:	0a00000b 	beq	c101e2c <operacionCambioFecha+0x3dc>
 c101dfc:	e59f32c0 	ldr	r3, [pc, #704]	; c1020c4 <operacionCambioFecha+0x674>
 c101e00:	e5d33005 	ldrb	r3, [r3, #5]
 c101e04:	e3530006 	cmp	r3, #6
 c101e08:	0a000007 	beq	c101e2c <operacionCambioFecha+0x3dc>
 c101e0c:	e59f32b0 	ldr	r3, [pc, #688]	; c1020c4 <operacionCambioFecha+0x674>
 c101e10:	e5d33005 	ldrb	r3, [r3, #5]
 c101e14:	e3530009 	cmp	r3, #9
 c101e18:	0a000003 	beq	c101e2c <operacionCambioFecha+0x3dc>
 c101e1c:	e59f32a0 	ldr	r3, [pc, #672]	; c1020c4 <operacionCambioFecha+0x674>
 c101e20:	e5d33005 	ldrb	r3, [r3, #5]
 c101e24:	e353000b 	cmp	r3, #11
 c101e28:	1a00000e 	bne	c101e68 <operacionCambioFecha+0x418>
					// Meses con 30 días
					if(rtc_time_aux.mday !=1){
 c101e2c:	e59f3290 	ldr	r3, [pc, #656]	; c1020c4 <operacionCambioFecha+0x674>
 c101e30:	e5d33003 	ldrb	r3, [r3, #3]
 c101e34:	e3530001 	cmp	r3, #1
 c101e38:	0a000006 	beq	c101e58 <operacionCambioFecha+0x408>
						rtc_time_aux.mday--;
 c101e3c:	e59f3280 	ldr	r3, [pc, #640]	; c1020c4 <operacionCambioFecha+0x674>
 c101e40:	e5d33003 	ldrb	r3, [r3, #3]
 c101e44:	e2433001 	sub	r3, r3, #1
 c101e48:	e20320ff 	and	r2, r3, #255	; 0xff
 c101e4c:	e59f3270 	ldr	r3, [pc, #624]	; c1020c4 <operacionCambioFecha+0x674>
 c101e50:	e5c32003 	strb	r2, [r3, #3]
							rtc_time_aux.mday =28;
						}
					}
				} else if (rtc_time_aux.mon == 4 || rtc_time_aux.mon == 6 || rtc_time_aux.mon == 9 || rtc_time_aux.mon == 11) {
					// Meses con 30 días
					if(rtc_time_aux.mday !=1){
 c101e54:	ea000097 	b	c1020b8 <operacionCambioFecha+0x668>
						rtc_time_aux.mday--;
					}else{
						rtc_time_aux.mday =30;
 c101e58:	e59f3264 	ldr	r3, [pc, #612]	; c1020c4 <operacionCambioFecha+0x674>
 c101e5c:	e3a0201e 	mov	r2, #30
 c101e60:	e5c32003 	strb	r2, [r3, #3]
							rtc_time_aux.mday =28;
						}
					}
				} else if (rtc_time_aux.mon == 4 || rtc_time_aux.mon == 6 || rtc_time_aux.mon == 9 || rtc_time_aux.mon == 11) {
					// Meses con 30 días
					if(rtc_time_aux.mday !=1){
 c101e64:	ea000093 	b	c1020b8 <operacionCambioFecha+0x668>
					}else{
						rtc_time_aux.mday =30;
					}

				} else {
					if(rtc_time_aux.mday !=1){
 c101e68:	e59f3254 	ldr	r3, [pc, #596]	; c1020c4 <operacionCambioFecha+0x674>
 c101e6c:	e5d33003 	ldrb	r3, [r3, #3]
 c101e70:	e3530001 	cmp	r3, #1
 c101e74:	0a000006 	beq	c101e94 <operacionCambioFecha+0x444>
						rtc_time_aux.mday--;
 c101e78:	e59f3244 	ldr	r3, [pc, #580]	; c1020c4 <operacionCambioFecha+0x674>
 c101e7c:	e5d33003 	ldrb	r3, [r3, #3]
 c101e80:	e2433001 	sub	r3, r3, #1
 c101e84:	e20320ff 	and	r2, r3, #255	; 0xff
 c101e88:	e59f3234 	ldr	r3, [pc, #564]	; c1020c4 <operacionCambioFecha+0x674>
 c101e8c:	e5c32003 	strb	r2, [r3, #3]
					}else{
						rtc_time_aux.mday =31;
 c101e90:	ea000088 	b	c1020b8 <operacionCambioFecha+0x668>
 c101e94:	e59f3228 	ldr	r3, [pc, #552]	; c1020c4 <operacionCambioFecha+0x674>
 c101e98:	e3a0201f 	mov	r2, #31
 c101e9c:	e5c32003 	strb	r2, [r3, #3]
 c101ea0:	ea000084 	b	c1020b8 <operacionCambioFecha+0x668>
					}
				}
			}
	}else if(seleccionado == 2){//mes
 c101ea4:	e55b300e 	ldrb	r3, [fp, #-14]
 c101ea8:	e3530002 	cmp	r3, #2
 c101eac:	1a00003f 	bne	c101fb0 <operacionCambioFecha+0x560>
		if(modo ==1){
 c101eb0:	e55b300d 	ldrb	r3, [fp, #-13]
 c101eb4:	e3530001 	cmp	r3, #1
 c101eb8:	1a00001c 	bne	c101f30 <operacionCambioFecha+0x4e0>
			rtc_time_aux.mon++;
 c101ebc:	e59f3200 	ldr	r3, [pc, #512]	; c1020c4 <operacionCambioFecha+0x674>
 c101ec0:	e5d33005 	ldrb	r3, [r3, #5]
 c101ec4:	e2833001 	add	r3, r3, #1
 c101ec8:	e20320ff 	and	r2, r3, #255	; 0xff
 c101ecc:	e59f31f0 	ldr	r3, [pc, #496]	; c1020c4 <operacionCambioFecha+0x674>
 c101ed0:	e5c32005 	strb	r2, [r3, #5]
			if(rtc_time_aux.mon > 12){
 c101ed4:	e59f31e8 	ldr	r3, [pc, #488]	; c1020c4 <operacionCambioFecha+0x674>
 c101ed8:	e5d33005 	ldrb	r3, [r3, #5]
 c101edc:	e353000c 	cmp	r3, #12
 c101ee0:	9a000002 	bls	c101ef0 <operacionCambioFecha+0x4a0>
				rtc_time_aux.mon = 1;
 c101ee4:	e59f31d8 	ldr	r3, [pc, #472]	; c1020c4 <operacionCambioFecha+0x674>
 c101ee8:	e3a02001 	mov	r2, #1
 c101eec:	e5c32005 	strb	r2, [r3, #5]
			}
			cambioMesComp();
 c101ef0:	ebfffe7b 	bl	c1018e4 <cambioMesComp>
			rtc_time_aux.wday = calcularDiaSemana(rtc_time_aux.year,rtc_time_aux.mon,rtc_time_aux.mday);
 c101ef4:	e59f31c8 	ldr	r3, [pc, #456]	; c1020c4 <operacionCambioFecha+0x674>
 c101ef8:	e5d31006 	ldrb	r1, [r3, #6]
 c101efc:	e59f31c0 	ldr	r3, [pc, #448]	; c1020c4 <operacionCambioFecha+0x674>
 c101f00:	e5d32005 	ldrb	r2, [r3, #5]
 c101f04:	e59f31b8 	ldr	r3, [pc, #440]	; c1020c4 <operacionCambioFecha+0x674>
 c101f08:	e5d33003 	ldrb	r3, [r3, #3]
 c101f0c:	e1a00001 	mov	r0, r1
 c101f10:	e1a01002 	mov	r1, r2
 c101f14:	e1a02003 	mov	r2, r3
 c101f18:	ebfff8ec 	bl	c1002d0 <calcularDiaSemana>
 c101f1c:	e1a03000 	mov	r3, r0
 c101f20:	e1a02003 	mov	r2, r3
 c101f24:	e59f3198 	ldr	r3, [pc, #408]	; c1020c4 <operacionCambioFecha+0x674>
 c101f28:	e5c32004 	strb	r2, [r3, #4]
 c101f2c:	ea000061 	b	c1020b8 <operacionCambioFecha+0x668>
		}else{
			modo=2; //Por si acaso entra sin pillar bien el valor de modo asi por defecto resta
 c101f30:	e3a03002 	mov	r3, #2
 c101f34:	e54b300d 	strb	r3, [fp, #-13]
			if(rtc_time_aux.mon !=1){
 c101f38:	e59f3184 	ldr	r3, [pc, #388]	; c1020c4 <operacionCambioFecha+0x674>
 c101f3c:	e5d33005 	ldrb	r3, [r3, #5]
 c101f40:	e3530001 	cmp	r3, #1
 c101f44:	0a000006 	beq	c101f64 <operacionCambioFecha+0x514>
				rtc_time_aux.mon--;
 c101f48:	e59f3174 	ldr	r3, [pc, #372]	; c1020c4 <operacionCambioFecha+0x674>
 c101f4c:	e5d33005 	ldrb	r3, [r3, #5]
 c101f50:	e2433001 	sub	r3, r3, #1
 c101f54:	e20320ff 	and	r2, r3, #255	; 0xff
 c101f58:	e59f3164 	ldr	r3, [pc, #356]	; c1020c4 <operacionCambioFecha+0x674>
 c101f5c:	e5c32005 	strb	r2, [r3, #5]
 c101f60:	ea000002 	b	c101f70 <operacionCambioFecha+0x520>
			}else{
				rtc_time_aux.mon =12;
 c101f64:	e59f3158 	ldr	r3, [pc, #344]	; c1020c4 <operacionCambioFecha+0x674>
 c101f68:	e3a0200c 	mov	r2, #12
 c101f6c:	e5c32005 	strb	r2, [r3, #5]
			}
			cambioMesComp();
 c101f70:	ebfffe5b 	bl	c1018e4 <cambioMesComp>
			rtc_time_aux.wday = calcularDiaSemana(rtc_time_aux.year,rtc_time_aux.mon,rtc_time_aux.mday);
 c101f74:	e59f3148 	ldr	r3, [pc, #328]	; c1020c4 <operacionCambioFecha+0x674>
 c101f78:	e5d31006 	ldrb	r1, [r3, #6]
 c101f7c:	e59f3140 	ldr	r3, [pc, #320]	; c1020c4 <operacionCambioFecha+0x674>
 c101f80:	e5d32005 	ldrb	r2, [r3, #5]
 c101f84:	e59f3138 	ldr	r3, [pc, #312]	; c1020c4 <operacionCambioFecha+0x674>
 c101f88:	e5d33003 	ldrb	r3, [r3, #3]
 c101f8c:	e1a00001 	mov	r0, r1
 c101f90:	e1a01002 	mov	r1, r2
 c101f94:	e1a02003 	mov	r2, r3
 c101f98:	ebfff8cc 	bl	c1002d0 <calcularDiaSemana>
 c101f9c:	e1a03000 	mov	r3, r0
 c101fa0:	e1a02003 	mov	r2, r3
 c101fa4:	e59f3118 	ldr	r3, [pc, #280]	; c1020c4 <operacionCambioFecha+0x674>
 c101fa8:	e5c32004 	strb	r2, [r3, #4]
 c101fac:	ea000041 	b	c1020b8 <operacionCambioFecha+0x668>
		}
	}
	else if(seleccionado == 3){//año
 c101fb0:	e55b300e 	ldrb	r3, [fp, #-14]
 c101fb4:	e3530003 	cmp	r3, #3
 c101fb8:	1a00003e 	bne	c1020b8 <operacionCambioFecha+0x668>
		if(modo ==1){
 c101fbc:	e55b300d 	ldrb	r3, [fp, #-13]
 c101fc0:	e3530001 	cmp	r3, #1
 c101fc4:	1a00001a 	bne	c102034 <operacionCambioFecha+0x5e4>
			rtc_time_aux.year++;
 c101fc8:	e59f30f4 	ldr	r3, [pc, #244]	; c1020c4 <operacionCambioFecha+0x674>
 c101fcc:	e5d33006 	ldrb	r3, [r3, #6]
 c101fd0:	e2833001 	add	r3, r3, #1
 c101fd4:	e20320ff 	and	r2, r3, #255	; 0xff
 c101fd8:	e59f30e4 	ldr	r3, [pc, #228]	; c1020c4 <operacionCambioFecha+0x674>
 c101fdc:	e5c32006 	strb	r2, [r3, #6]
			if(rtc_time_aux.year > 99){
 c101fe0:	e59f30dc 	ldr	r3, [pc, #220]	; c1020c4 <operacionCambioFecha+0x674>
 c101fe4:	e5d33006 	ldrb	r3, [r3, #6]
 c101fe8:	e3530063 	cmp	r3, #99	; 0x63
 c101fec:	9a000002 	bls	c101ffc <operacionCambioFecha+0x5ac>
				rtc_time_aux.year = 0;
 c101ff0:	e59f30cc 	ldr	r3, [pc, #204]	; c1020c4 <operacionCambioFecha+0x674>
 c101ff4:	e3a02000 	mov	r2, #0
 c101ff8:	e5c32006 	strb	r2, [r3, #6]
			}
			//Cada año que pasa cambia el dia de la semana, por ejemplo el 3/1/24 es miercoles pero el 3/1/23 es jueves
			rtc_time_aux.wday++;
 c101ffc:	e59f30c0 	ldr	r3, [pc, #192]	; c1020c4 <operacionCambioFecha+0x674>
 c102000:	e5d33004 	ldrb	r3, [r3, #4]
 c102004:	e2833001 	add	r3, r3, #1
 c102008:	e20320ff 	and	r2, r3, #255	; 0xff
 c10200c:	e59f30b0 	ldr	r3, [pc, #176]	; c1020c4 <operacionCambioFecha+0x674>
 c102010:	e5c32004 	strb	r2, [r3, #4]
			if(rtc_time_aux.wday >7){
 c102014:	e59f30a8 	ldr	r3, [pc, #168]	; c1020c4 <operacionCambioFecha+0x674>
 c102018:	e5d33004 	ldrb	r3, [r3, #4]
 c10201c:	e3530007 	cmp	r3, #7
 c102020:	9a000024 	bls	c1020b8 <operacionCambioFecha+0x668>
				rtc_time_aux.wday = 1;
 c102024:	e59f3098 	ldr	r3, [pc, #152]	; c1020c4 <operacionCambioFecha+0x674>
 c102028:	e3a02001 	mov	r2, #1
 c10202c:	e5c32004 	strb	r2, [r3, #4]
 c102030:	ea000020 	b	c1020b8 <operacionCambioFecha+0x668>
			}
		}else{
			modo=2; //Por si acaso entra sin pillar bien el valor de modo asi por defecto resta
 c102034:	e3a03002 	mov	r3, #2
 c102038:	e54b300d 	strb	r3, [fp, #-13]
			if(rtc_time_aux.year !=0){
 c10203c:	e59f3080 	ldr	r3, [pc, #128]	; c1020c4 <operacionCambioFecha+0x674>
 c102040:	e5d33006 	ldrb	r3, [r3, #6]
 c102044:	e3530000 	cmp	r3, #0
 c102048:	0a000006 	beq	c102068 <operacionCambioFecha+0x618>
				rtc_time_aux.year--;
 c10204c:	e59f3070 	ldr	r3, [pc, #112]	; c1020c4 <operacionCambioFecha+0x674>
 c102050:	e5d33006 	ldrb	r3, [r3, #6]
 c102054:	e2433001 	sub	r3, r3, #1
 c102058:	e20320ff 	and	r2, r3, #255	; 0xff
 c10205c:	e59f3060 	ldr	r3, [pc, #96]	; c1020c4 <operacionCambioFecha+0x674>
 c102060:	e5c32006 	strb	r2, [r3, #6]
 c102064:	ea000002 	b	c102074 <operacionCambioFecha+0x624>
			}else{
				rtc_time_aux.year =99;
 c102068:	e59f3054 	ldr	r3, [pc, #84]	; c1020c4 <operacionCambioFecha+0x674>
 c10206c:	e3a02063 	mov	r2, #99	; 0x63
 c102070:	e5c32006 	strb	r2, [r3, #6]
			}
			//Cada año que se retrocede cambia el dia de la semana, por ejemplo el 3/1/23 es martes pero el 3/1/24 es miercoles
			rtc_time_aux.wday--;
 c102074:	e59f3048 	ldr	r3, [pc, #72]	; c1020c4 <operacionCambioFecha+0x674>
 c102078:	e5d33004 	ldrb	r3, [r3, #4]
 c10207c:	e2433001 	sub	r3, r3, #1
 c102080:	e20320ff 	and	r2, r3, #255	; 0xff
 c102084:	e59f3038 	ldr	r3, [pc, #56]	; c1020c4 <operacionCambioFecha+0x674>
 c102088:	e5c32004 	strb	r2, [r3, #4]
			if(rtc_time_aux.wday <1){
 c10208c:	e59f3030 	ldr	r3, [pc, #48]	; c1020c4 <operacionCambioFecha+0x674>
 c102090:	e5d33004 	ldrb	r3, [r3, #4]
 c102094:	e3530000 	cmp	r3, #0
 c102098:	1a000006 	bne	c1020b8 <operacionCambioFecha+0x668>
				rtc_time_aux.wday = 7;
 c10209c:	e59f3020 	ldr	r3, [pc, #32]	; c1020c4 <operacionCambioFecha+0x674>
 c1020a0:	e3a02007 	mov	r2, #7
 c1020a4:	e5c32004 	strb	r2, [r3, #4]
 c1020a8:	ea000002 	b	c1020b8 <operacionCambioFecha+0x668>

				} else {
					if(rtc_time_aux.mday !=1){
						rtc_time_aux.mday--;
					}else{
						rtc_time_aux.mday =31;
 c1020ac:	e1a00000 	nop			; (mov r0, r0)
 c1020b0:	ea000000 	b	c1020b8 <operacionCambioFecha+0x668>
 c1020b4:	e1a00000 	nop			; (mov r0, r0)
			}

		}
	}

}
 c1020b8:	e24bd00c 	sub	sp, fp, #12
 c1020bc:	e89d6800 	ldm	sp, {fp, sp, lr}
 c1020c0:	e12fff1e 	bx	lr
 c1020c4:	0c10bda4 	.word	0x0c10bda4
 c1020c8:	51eb851f 	.word	0x51eb851f

0c1020cc <cambiarDatosReloj>:
void cambiarDatosReloj(uint8 seleccionado, boolean fecha){
 c1020cc:	e1a0c00d 	mov	ip, sp
 c1020d0:	e92dd800 	push	{fp, ip, lr, pc}
 c1020d4:	e24cb004 	sub	fp, ip, #4
 c1020d8:	e24dd010 	sub	sp, sp, #16
 c1020dc:	e1a02000 	mov	r2, r0
 c1020e0:	e1a03001 	mov	r3, r1
 c1020e4:	e54b2015 	strb	r2, [fp, #-21]	; 0xffffffeb
 c1020e8:	e54b3016 	strb	r3, [fp, #-22]	; 0xffffffea
	//seleccionado valores (1-3) siendo 1 hora, 2 minutos, 3 segundos
	//El metodo que voy a usar es que mientras el usuario pulse los cuadrados de + y - no salga de esta funcion, si pulsa en otro lado se sale de la funcion
	boolean salir = FALSE;
 c1020ec:	e3a03000 	mov	r3, #0
 c1020f0:	e54b300d 	strb	r3, [fp, #-13]
	boolean pulsado = FALSE;
 c1020f4:	e3a03000 	mov	r3, #0
 c1020f8:	e54b300e 	strb	r3, [fp, #-14]

	uint8 modo=1; //modo (1-2) siendo 1 la suma y 2 la resta
 c1020fc:	e3a03001 	mov	r3, #1
 c102100:	e54b300f 	strb	r3, [fp, #-15]
	uint16 x, y;

	while(!salir){
 c102104:	ea000069 	b	c1022b0 <cambiarDatosReloj+0x1e4>
		if(ts_pressed()){
 c102108:	eb0017e6 	bl	c1080a8 <ts_pressed>
 c10210c:	e1a03000 	mov	r3, r0
 c102110:	e3530000 	cmp	r3, #0
 c102114:	0a000006 	beq	c102134 <cambiarDatosReloj+0x68>
			ts_getpos(&x,&y);
 c102118:	e24b2012 	sub	r2, fp, #18
 c10211c:	e24b3014 	sub	r3, fp, #20
 c102120:	e1a00002 	mov	r0, r2
 c102124:	e1a01003 	mov	r1, r3
 c102128:	eb001865 	bl	c1082c4 <ts_getpos>
			pulsado = TRUE; //Uso la variable pulsado porque no quiero parar la ejecucion del sistema para que no se pare el reloj principal asi solo se sale cuando se pulsa fuera de + o -
 c10212c:	e3a03001 	mov	r3, #1
 c102130:	e54b300e 	strb	r3, [fp, #-14]
		}

		if( x>210 && y>109 && x<246 && y<150 )
 c102134:	e15b31b2 	ldrh	r3, [fp, #-18]	; 0xffffffee
 c102138:	e35300d2 	cmp	r3, #210	; 0xd2
 c10213c:	9a000029 	bls	c1021e8 <cambiarDatosReloj+0x11c>
 c102140:	e15b31b4 	ldrh	r3, [fp, #-20]	; 0xffffffec
 c102144:	e353006d 	cmp	r3, #109	; 0x6d
 c102148:	9a000026 	bls	c1021e8 <cambiarDatosReloj+0x11c>
 c10214c:	e15b31b2 	ldrh	r3, [fp, #-18]	; 0xffffffee
 c102150:	e35300f5 	cmp	r3, #245	; 0xf5
 c102154:	8a000023 	bhi	c1021e8 <cambiarDatosReloj+0x11c>
 c102158:	e15b31b4 	ldrh	r3, [fp, #-20]	; 0xffffffec
 c10215c:	e3530095 	cmp	r3, #149	; 0x95
 c102160:	8a000020 	bhi	c1021e8 <cambiarDatosReloj+0x11c>
			{
			//Boton mas
			x=0;
 c102164:	e3a03000 	mov	r3, #0
 c102168:	e14b31b2 	strh	r3, [fp, #-18]	; 0xffffffee
			y = 0;
 c10216c:	e3a03000 	mov	r3, #0
 c102170:	e14b31b4 	strh	r3, [fp, #-20]	; 0xffffffec
			modo =1;
 c102174:	e3a03001 	mov	r3, #1
 c102178:	e54b300f 	strb	r3, [fp, #-15]
			if(!fecha){
 c10217c:	e55b3016 	ldrb	r3, [fp, #-22]	; 0xffffffea
 c102180:	e3530000 	cmp	r3, #0
 c102184:	1a000005 	bne	c1021a0 <cambiarDatosReloj+0xd4>
				operacionCambioHora(modo,seleccionado);
 c102188:	e55b200f 	ldrb	r2, [fp, #-15]
 c10218c:	e55b3015 	ldrb	r3, [fp, #-21]	; 0xffffffeb
 c102190:	e1a00002 	mov	r0, r2
 c102194:	e1a01003 	mov	r1, r3
 c102198:	ebfffd57 	bl	c1016fc <operacionCambioHora>
 c10219c:	ea000004 	b	c1021b4 <cambiarDatosReloj+0xe8>
			}else{
				operacionCambioFecha(modo,seleccionado);
 c1021a0:	e55b200f 	ldrb	r2, [fp, #-15]
 c1021a4:	e55b3015 	ldrb	r3, [fp, #-21]	; 0xffffffeb
 c1021a8:	e1a00002 	mov	r0, r2
 c1021ac:	e1a01003 	mov	r1, r3
 c1021b0:	ebfffe26 	bl	c101a50 <operacionCambioFecha>
			}


			//Actualizamos y mostramos la nueva hora
			rtc_puttime(&rtc_time_aux);
 c1021b4:	e59f010c 	ldr	r0, [pc, #268]	; c1022c8 <cambiarDatosReloj+0x1fc>
 c1021b8:	eb000fad 	bl	c106074 <rtc_puttime>
			if(!fecha){
 c1021bc:	e55b3016 	ldrb	r3, [fp, #-22]	; 0xffffffea
 c1021c0:	e3530000 	cmp	r3, #0
 c1021c4:	1a000002 	bne	c1021d4 <cambiarDatosReloj+0x108>
				mostrarRelojAux(&rtc_time_aux);
 c1021c8:	e59f00f8 	ldr	r0, [pc, #248]	; c1022c8 <cambiarDatosReloj+0x1fc>
 c1021cc:	ebfffb9f 	bl	c101050 <mostrarRelojAux>
 c1021d0:	ea000001 	b	c1021dc <cambiarDatosReloj+0x110>
			}else{
				mostrarFecha(&rtc_time_aux);
 c1021d4:	e59f00ec 	ldr	r0, [pc, #236]	; c1022c8 <cambiarDatosReloj+0x1fc>
 c1021d8:	ebfffbed 	bl	c101194 <mostrarFecha>
			}

			pulsado = FALSE;
 c1021dc:	e3a03000 	mov	r3, #0
 c1021e0:	e54b300e 	strb	r3, [fp, #-14]
 c1021e4:	ea000031 	b	c1022b0 <cambiarDatosReloj+0x1e4>

			}else if( x>210 && y>165 && x<246 && y<204)
 c1021e8:	e15b31b2 	ldrh	r3, [fp, #-18]	; 0xffffffee
 c1021ec:	e35300d2 	cmp	r3, #210	; 0xd2
 c1021f0:	9a000029 	bls	c10229c <cambiarDatosReloj+0x1d0>
 c1021f4:	e15b31b4 	ldrh	r3, [fp, #-20]	; 0xffffffec
 c1021f8:	e35300a5 	cmp	r3, #165	; 0xa5
 c1021fc:	9a000026 	bls	c10229c <cambiarDatosReloj+0x1d0>
 c102200:	e15b31b2 	ldrh	r3, [fp, #-18]	; 0xffffffee
 c102204:	e35300f5 	cmp	r3, #245	; 0xf5
 c102208:	8a000023 	bhi	c10229c <cambiarDatosReloj+0x1d0>
 c10220c:	e15b31b4 	ldrh	r3, [fp, #-20]	; 0xffffffec
 c102210:	e35300cb 	cmp	r3, #203	; 0xcb
 c102214:	8a000020 	bhi	c10229c <cambiarDatosReloj+0x1d0>
			{
			//Boton menos
			x=0;
 c102218:	e3a03000 	mov	r3, #0
 c10221c:	e14b31b2 	strh	r3, [fp, #-18]	; 0xffffffee
			y = 0;
 c102220:	e3a03000 	mov	r3, #0
 c102224:	e14b31b4 	strh	r3, [fp, #-20]	; 0xffffffec
			modo =2;
 c102228:	e3a03002 	mov	r3, #2
 c10222c:	e54b300f 	strb	r3, [fp, #-15]
			if(!fecha){
 c102230:	e55b3016 	ldrb	r3, [fp, #-22]	; 0xffffffea
 c102234:	e3530000 	cmp	r3, #0
 c102238:	1a000005 	bne	c102254 <cambiarDatosReloj+0x188>
				operacionCambioHora(modo,seleccionado);
 c10223c:	e55b200f 	ldrb	r2, [fp, #-15]
 c102240:	e55b3015 	ldrb	r3, [fp, #-21]	; 0xffffffeb
 c102244:	e1a00002 	mov	r0, r2
 c102248:	e1a01003 	mov	r1, r3
 c10224c:	ebfffd2a 	bl	c1016fc <operacionCambioHora>
 c102250:	ea000004 	b	c102268 <cambiarDatosReloj+0x19c>
			}else{
				operacionCambioFecha(modo,seleccionado);
 c102254:	e55b200f 	ldrb	r2, [fp, #-15]
 c102258:	e55b3015 	ldrb	r3, [fp, #-21]	; 0xffffffeb
 c10225c:	e1a00002 	mov	r0, r2
 c102260:	e1a01003 	mov	r1, r3
 c102264:	ebfffdf9 	bl	c101a50 <operacionCambioFecha>
			}

			//Actualizamos el reloj del sistema y mostramos la nueva hora
			rtc_puttime(&rtc_time_aux);
 c102268:	e59f0058 	ldr	r0, [pc, #88]	; c1022c8 <cambiarDatosReloj+0x1fc>
 c10226c:	eb000f80 	bl	c106074 <rtc_puttime>
			if(!fecha){
 c102270:	e55b3016 	ldrb	r3, [fp, #-22]	; 0xffffffea
 c102274:	e3530000 	cmp	r3, #0
 c102278:	1a000002 	bne	c102288 <cambiarDatosReloj+0x1bc>
				mostrarRelojAux(&rtc_time_aux);
 c10227c:	e59f0044 	ldr	r0, [pc, #68]	; c1022c8 <cambiarDatosReloj+0x1fc>
 c102280:	ebfffb72 	bl	c101050 <mostrarRelojAux>
 c102284:	ea000001 	b	c102290 <cambiarDatosReloj+0x1c4>
			}else{
				mostrarFecha(&rtc_time_aux);
 c102288:	e59f0038 	ldr	r0, [pc, #56]	; c1022c8 <cambiarDatosReloj+0x1fc>
 c10228c:	ebfffbc0 	bl	c101194 <mostrarFecha>
			}

			pulsado = FALSE;
 c102290:	e3a03000 	mov	r3, #0
 c102294:	e54b300e 	strb	r3, [fp, #-14]
 c102298:	ea000004 	b	c1022b0 <cambiarDatosReloj+0x1e4>

			}
		else{
			if(pulsado){ //Si ha pulsado fuera de los botones + y - se sale y vuelve a modoCambiarHora()
 c10229c:	e55b300e 	ldrb	r3, [fp, #-14]
 c1022a0:	e3530000 	cmp	r3, #0
 c1022a4:	0a000001 	beq	c1022b0 <cambiarDatosReloj+0x1e4>
				salir = TRUE;
 c1022a8:	e3a03001 	mov	r3, #1
 c1022ac:	e54b300d 	strb	r3, [fp, #-13]
	boolean pulsado = FALSE;

	uint8 modo=1; //modo (1-2) siendo 1 la suma y 2 la resta
	uint16 x, y;

	while(!salir){
 c1022b0:	e55b300d 	ldrb	r3, [fp, #-13]
 c1022b4:	e3530000 	cmp	r3, #0
 c1022b8:	0affff92 	beq	c102108 <cambiarDatosReloj+0x3c>
		}
	}

	//Actualizamos el tiempo del sistema

}
 c1022bc:	e24bd00c 	sub	sp, fp, #12
 c1022c0:	e89d6800 	ldm	sp, {fp, sp, lr}
 c1022c4:	e12fff1e 	bx	lr
 c1022c8:	0c10bda4 	.word	0x0c10bda4

0c1022cc <modoCambiarHora>:

//----Funciones principales de los modos cambio fecha y hora----//
void modoCambiarHora( void ){
 c1022cc:	e1a0c00d 	mov	ip, sp
 c1022d0:	e92dd800 	push	{fp, ip, lr, pc}
 c1022d4:	e24cb004 	sub	fp, ip, #4
 c1022d8:	e24dd010 	sub	sp, sp, #16
	boolean volverMenuPrincipal = FALSE;
 c1022dc:	e3a03000 	mov	r3, #0
 c1022e0:	e54b300d 	strb	r3, [fp, #-13]
	boolean pintadoInicial = TRUE;
 c1022e4:	e3a03001 	mov	r3, #1
 c1022e8:	e54b300e 	strb	r3, [fp, #-14]

	rtc_gettime( &rtc_time_aux ); //Guardamos el tiempo con la que hemos entrado a la opcion
 c1022ec:	e59f0398 	ldr	r0, [pc, #920]	; c10268c <modoCambiarHora+0x3c0>
 c1022f0:	eb00100d 	bl	c10632c <rtc_gettime>

	uint16 x, y;

	//Limpiamos el menu principal
	lcd_clear();
 c1022f4:	eb000a81 	bl	c104d00 <lcd_clear>
	lcd_draw_box( 10, 10, 310, 230, BLACK, 5 );
 c1022f8:	e3a0300f 	mov	r3, #15
 c1022fc:	e58d3000 	str	r3, [sp]
 c102300:	e3a03005 	mov	r3, #5
 c102304:	e58d3004 	str	r3, [sp, #4]
 c102308:	e3a0000a 	mov	r0, #10
 c10230c:	e3a0100a 	mov	r1, #10
 c102310:	e59f2378 	ldr	r2, [pc, #888]	; c102690 <modoCambiarHora+0x3c4>
 c102314:	e3a030e6 	mov	r3, #230	; 0xe6
 c102318:	eb000b45 	bl	c105034 <lcd_draw_box>

	while(!volverMenuPrincipal){
 c10231c:	ea0000d0 	b	c102664 <modoCambiarHora+0x398>

		//Aqui pintamos las cosas que no se actualizan
		if(pintadoInicial){
 c102320:	e55b300e 	ldrb	r3, [fp, #-14]
 c102324:	e3530000 	cmp	r3, #0
 c102328:	0a000057 	beq	c10248c <modoCambiarHora+0x1c0>

			//Mostrar opcion cambiar fecha
			lcd_draw_box(170, 12, 310, 40, BLACK, 3);
 c10232c:	e3a0300f 	mov	r3, #15
 c102330:	e58d3000 	str	r3, [sp]
 c102334:	e3a03003 	mov	r3, #3
 c102338:	e58d3004 	str	r3, [sp, #4]
 c10233c:	e3a000aa 	mov	r0, #170	; 0xaa
 c102340:	e3a0100c 	mov	r1, #12
 c102344:	e59f2344 	ldr	r2, [pc, #836]	; c102690 <modoCambiarHora+0x3c4>
 c102348:	e3a03028 	mov	r3, #40	; 0x28
 c10234c:	eb000b38 	bl	c105034 <lcd_draw_box>
			lcd_puts(180, 20, BLACK, "Menu principal");
 c102350:	e3a000b4 	mov	r0, #180	; 0xb4
 c102354:	e3a01014 	mov	r1, #20
 c102358:	e3a0200f 	mov	r2, #15
 c10235c:	e59f3330 	ldr	r3, [pc, #816]	; c102694 <modoCambiarHora+0x3c8>
 c102360:	eb000bb7 	bl	c105244 <lcd_puts>

			//Mostrar opcion cambiar hora
			lcd_draw_box(30, 115, 170, 140, BLACK, 3);
 c102364:	e3a0300f 	mov	r3, #15
 c102368:	e58d3000 	str	r3, [sp]
 c10236c:	e3a03003 	mov	r3, #3
 c102370:	e58d3004 	str	r3, [sp, #4]
 c102374:	e3a0001e 	mov	r0, #30
 c102378:	e3a01073 	mov	r1, #115	; 0x73
 c10237c:	e3a020aa 	mov	r2, #170	; 0xaa
 c102380:	e3a0308c 	mov	r3, #140	; 0x8c
 c102384:	eb000b2a 	bl	c105034 <lcd_draw_box>
			lcd_puts(40, 120, BLACK, "Cambiar hora");
 c102388:	e3a00028 	mov	r0, #40	; 0x28
 c10238c:	e3a01078 	mov	r1, #120	; 0x78
 c102390:	e3a0200f 	mov	r2, #15
 c102394:	e59f32fc 	ldr	r3, [pc, #764]	; c102698 <modoCambiarHora+0x3cc>
 c102398:	eb000ba9 	bl	c105244 <lcd_puts>

			//Mostrar opcion cambiar minutos
			lcd_draw_box(30, 145, 170, 170, BLACK, 3);
 c10239c:	e3a0300f 	mov	r3, #15
 c1023a0:	e58d3000 	str	r3, [sp]
 c1023a4:	e3a03003 	mov	r3, #3
 c1023a8:	e58d3004 	str	r3, [sp, #4]
 c1023ac:	e3a0001e 	mov	r0, #30
 c1023b0:	e3a01091 	mov	r1, #145	; 0x91
 c1023b4:	e3a020aa 	mov	r2, #170	; 0xaa
 c1023b8:	e3a030aa 	mov	r3, #170	; 0xaa
 c1023bc:	eb000b1c 	bl	c105034 <lcd_draw_box>
			lcd_puts(40, 150, BLACK, "Cambiar minutos");
 c1023c0:	e3a00028 	mov	r0, #40	; 0x28
 c1023c4:	e3a01096 	mov	r1, #150	; 0x96
 c1023c8:	e3a0200f 	mov	r2, #15
 c1023cc:	e59f32c8 	ldr	r3, [pc, #712]	; c10269c <modoCambiarHora+0x3d0>
 c1023d0:	eb000b9b 	bl	c105244 <lcd_puts>

			//Mostrar opcion contador segundos
			lcd_draw_box(30, 175, 170, 200, BLACK, 3);
 c1023d4:	e3a0300f 	mov	r3, #15
 c1023d8:	e58d3000 	str	r3, [sp]
 c1023dc:	e3a03003 	mov	r3, #3
 c1023e0:	e58d3004 	str	r3, [sp, #4]
 c1023e4:	e3a0001e 	mov	r0, #30
 c1023e8:	e3a010af 	mov	r1, #175	; 0xaf
 c1023ec:	e3a020aa 	mov	r2, #170	; 0xaa
 c1023f0:	e3a030c8 	mov	r3, #200	; 0xc8
 c1023f4:	eb000b0e 	bl	c105034 <lcd_draw_box>
			lcd_puts(40, 180, BLACK, "Cambiar segundos");
 c1023f8:	e3a00028 	mov	r0, #40	; 0x28
 c1023fc:	e3a010b4 	mov	r1, #180	; 0xb4
 c102400:	e3a0200f 	mov	r2, #15
 c102404:	e59f3294 	ldr	r3, [pc, #660]	; c1026a0 <modoCambiarHora+0x3d4>
 c102408:	eb000b8d 	bl	c105244 <lcd_puts>

			// Boton +
			lcd_draw_box(210, 109, 246, 150, BLACK, 3);
 c10240c:	e3a0300f 	mov	r3, #15
 c102410:	e58d3000 	str	r3, [sp]
 c102414:	e3a03003 	mov	r3, #3
 c102418:	e58d3004 	str	r3, [sp, #4]
 c10241c:	e3a000d2 	mov	r0, #210	; 0xd2
 c102420:	e3a0106d 	mov	r1, #109	; 0x6d
 c102424:	e3a020f6 	mov	r2, #246	; 0xf6
 c102428:	e3a03096 	mov	r3, #150	; 0x96
 c10242c:	eb000b00 	bl	c105034 <lcd_draw_box>
			lcd_puts_x2(220, 115, BLACK, "+");
 c102430:	e3a000dc 	mov	r0, #220	; 0xdc
 c102434:	e3a01073 	mov	r1, #115	; 0x73
 c102438:	e3a0200f 	mov	r2, #15
 c10243c:	e59f3260 	ldr	r3, [pc, #608]	; c1026a4 <modoCambiarHora+0x3d8>
 c102440:	eb000c7a 	bl	c105630 <lcd_puts_x2>

			// Boton -
			lcd_draw_box(210, 165, 246, 204, BLACK, 3);
 c102444:	e3a0300f 	mov	r3, #15
 c102448:	e58d3000 	str	r3, [sp]
 c10244c:	e3a03003 	mov	r3, #3
 c102450:	e58d3004 	str	r3, [sp, #4]
 c102454:	e3a000d2 	mov	r0, #210	; 0xd2
 c102458:	e3a010a5 	mov	r1, #165	; 0xa5
 c10245c:	e3a020f6 	mov	r2, #246	; 0xf6
 c102460:	e3a030cc 	mov	r3, #204	; 0xcc
 c102464:	eb000af2 	bl	c105034 <lcd_draw_box>
			lcd_puts_x2(221, 169, BLACK, "-");
 c102468:	e3a000dd 	mov	r0, #221	; 0xdd
 c10246c:	e3a010a9 	mov	r1, #169	; 0xa9
 c102470:	e3a0200f 	mov	r2, #15
 c102474:	e59f322c 	ldr	r3, [pc, #556]	; c1026a8 <modoCambiarHora+0x3dc>
 c102478:	eb000c6c 	bl	c105630 <lcd_puts_x2>

			//Pintamos el reloj inicial
			mostrarRelojAux(&rtc_time_aux);
 c10247c:	e59f0208 	ldr	r0, [pc, #520]	; c10268c <modoCambiarHora+0x3c0>
 c102480:	ebfffaf2 	bl	c101050 <mostrarRelojAux>

			pintadoInicial = FALSE;
 c102484:	e3a03000 	mov	r3, #0
 c102488:	e54b300e 	strb	r3, [fp, #-14]
		}


		//Para que no se quede el programa congelado esperando que el usuario presione la pantalla
		if(ts_pressed()){
 c10248c:	eb001705 	bl	c1080a8 <ts_pressed>
 c102490:	e1a03000 	mov	r3, r0
 c102494:	e3530000 	cmp	r3, #0
 c102498:	0a000004 	beq	c1024b0 <modoCambiarHora+0x1e4>
			ts_getpos(&x,&y);
 c10249c:	e24b2010 	sub	r2, fp, #16
 c1024a0:	e24b3012 	sub	r3, fp, #18
 c1024a4:	e1a00002 	mov	r0, r2
 c1024a8:	e1a01003 	mov	r1, r3
 c1024ac:	eb001784 	bl	c1082c4 <ts_getpos>
		}

		if( x>30 && y>115 && x<170 && y<140 )
 c1024b0:	e15b31b0 	ldrh	r3, [fp, #-16]
 c1024b4:	e353001e 	cmp	r3, #30
 c1024b8:	9a00001a 	bls	c102528 <modoCambiarHora+0x25c>
 c1024bc:	e15b31b2 	ldrh	r3, [fp, #-18]	; 0xffffffee
 c1024c0:	e3530073 	cmp	r3, #115	; 0x73
 c1024c4:	9a000017 	bls	c102528 <modoCambiarHora+0x25c>
 c1024c8:	e15b31b0 	ldrh	r3, [fp, #-16]
 c1024cc:	e35300a9 	cmp	r3, #169	; 0xa9
 c1024d0:	8a000014 	bhi	c102528 <modoCambiarHora+0x25c>
 c1024d4:	e15b31b2 	ldrh	r3, [fp, #-18]	; 0xffffffee
 c1024d8:	e353008b 	cmp	r3, #139	; 0x8b
 c1024dc:	8a000011 	bhi	c102528 <modoCambiarHora+0x25c>
			{
			//CambiarHora
				x=0;
 c1024e0:	e3a03000 	mov	r3, #0
 c1024e4:	e14b31b0 	strh	r3, [fp, #-16]
				y = 0;
 c1024e8:	e3a03000 	mov	r3, #0
 c1024ec:	e14b31b2 	strh	r3, [fp, #-18]	; 0xffffffee
				lcd_puts( 30, 30, BLACK,"Cambiando hora" );
 c1024f0:	e3a0001e 	mov	r0, #30
 c1024f4:	e3a0101e 	mov	r1, #30
 c1024f8:	e3a0200f 	mov	r2, #15
 c1024fc:	e59f31a8 	ldr	r3, [pc, #424]	; c1026ac <modoCambiarHora+0x3e0>
 c102500:	eb000b4f 	bl	c105244 <lcd_puts>
				cambiarDatosReloj(1,FALSE);
 c102504:	e3a00001 	mov	r0, #1
 c102508:	e3a01000 	mov	r1, #0
 c10250c:	ebfffeee 	bl	c1020cc <cambiarDatosReloj>
				lcd_puts( 30, 30, BLACK,"              " );
 c102510:	e3a0001e 	mov	r0, #30
 c102514:	e3a0101e 	mov	r1, #30
 c102518:	e3a0200f 	mov	r2, #15
 c10251c:	e59f318c 	ldr	r3, [pc, #396]	; c1026b0 <modoCambiarHora+0x3e4>
 c102520:	eb000b47 	bl	c105244 <lcd_puts>
 c102524:	ea00004e 	b	c102664 <modoCambiarHora+0x398>
			}
		else if( x>30 && y>145 && x<170 && y<170 )
 c102528:	e15b31b0 	ldrh	r3, [fp, #-16]
 c10252c:	e353001e 	cmp	r3, #30
 c102530:	9a00001a 	bls	c1025a0 <modoCambiarHora+0x2d4>
 c102534:	e15b31b2 	ldrh	r3, [fp, #-18]	; 0xffffffee
 c102538:	e3530091 	cmp	r3, #145	; 0x91
 c10253c:	9a000017 	bls	c1025a0 <modoCambiarHora+0x2d4>
 c102540:	e15b31b0 	ldrh	r3, [fp, #-16]
 c102544:	e35300a9 	cmp	r3, #169	; 0xa9
 c102548:	8a000014 	bhi	c1025a0 <modoCambiarHora+0x2d4>
 c10254c:	e15b31b2 	ldrh	r3, [fp, #-18]	; 0xffffffee
 c102550:	e35300a9 	cmp	r3, #169	; 0xa9
 c102554:	8a000011 	bhi	c1025a0 <modoCambiarHora+0x2d4>
			{
			//CambiarMinutos
				x=0;
 c102558:	e3a03000 	mov	r3, #0
 c10255c:	e14b31b0 	strh	r3, [fp, #-16]
				y = 0;
 c102560:	e3a03000 	mov	r3, #0
 c102564:	e14b31b2 	strh	r3, [fp, #-18]	; 0xffffffee
				lcd_puts( 30, 30, BLACK,"Cambiando minutos" );
 c102568:	e3a0001e 	mov	r0, #30
 c10256c:	e3a0101e 	mov	r1, #30
 c102570:	e3a0200f 	mov	r2, #15
 c102574:	e59f3138 	ldr	r3, [pc, #312]	; c1026b4 <modoCambiarHora+0x3e8>
 c102578:	eb000b31 	bl	c105244 <lcd_puts>
				cambiarDatosReloj(2,FALSE);
 c10257c:	e3a00002 	mov	r0, #2
 c102580:	e3a01000 	mov	r1, #0
 c102584:	ebfffed0 	bl	c1020cc <cambiarDatosReloj>
				lcd_puts( 30, 30, BLACK,"                 " );
 c102588:	e3a0001e 	mov	r0, #30
 c10258c:	e3a0101e 	mov	r1, #30
 c102590:	e3a0200f 	mov	r2, #15
 c102594:	e59f311c 	ldr	r3, [pc, #284]	; c1026b8 <modoCambiarHora+0x3ec>
 c102598:	eb000b29 	bl	c105244 <lcd_puts>
 c10259c:	ea000030 	b	c102664 <modoCambiarHora+0x398>

			}
		else if( x>30 && y>175 && x<170 && y<200 )
 c1025a0:	e15b31b0 	ldrh	r3, [fp, #-16]
 c1025a4:	e353001e 	cmp	r3, #30
 c1025a8:	9a00001a 	bls	c102618 <modoCambiarHora+0x34c>
 c1025ac:	e15b31b2 	ldrh	r3, [fp, #-18]	; 0xffffffee
 c1025b0:	e35300af 	cmp	r3, #175	; 0xaf
 c1025b4:	9a000017 	bls	c102618 <modoCambiarHora+0x34c>
 c1025b8:	e15b31b0 	ldrh	r3, [fp, #-16]
 c1025bc:	e35300a9 	cmp	r3, #169	; 0xa9
 c1025c0:	8a000014 	bhi	c102618 <modoCambiarHora+0x34c>
 c1025c4:	e15b31b2 	ldrh	r3, [fp, #-18]	; 0xffffffee
 c1025c8:	e35300c7 	cmp	r3, #199	; 0xc7
 c1025cc:	8a000011 	bhi	c102618 <modoCambiarHora+0x34c>
			{
			//CambiarSegundos
				x=0;
 c1025d0:	e3a03000 	mov	r3, #0
 c1025d4:	e14b31b0 	strh	r3, [fp, #-16]
				y = 0;
 c1025d8:	e3a03000 	mov	r3, #0
 c1025dc:	e14b31b2 	strh	r3, [fp, #-18]	; 0xffffffee
				lcd_puts( 30, 30, BLACK,"Cambiando segs" );
 c1025e0:	e3a0001e 	mov	r0, #30
 c1025e4:	e3a0101e 	mov	r1, #30
 c1025e8:	e3a0200f 	mov	r2, #15
 c1025ec:	e59f30c8 	ldr	r3, [pc, #200]	; c1026bc <modoCambiarHora+0x3f0>
 c1025f0:	eb000b13 	bl	c105244 <lcd_puts>
				cambiarDatosReloj(3,FALSE);
 c1025f4:	e3a00003 	mov	r0, #3
 c1025f8:	e3a01000 	mov	r1, #0
 c1025fc:	ebfffeb2 	bl	c1020cc <cambiarDatosReloj>
				lcd_puts( 30, 30, BLACK,"              " );
 c102600:	e3a0001e 	mov	r0, #30
 c102604:	e3a0101e 	mov	r1, #30
 c102608:	e3a0200f 	mov	r2, #15
 c10260c:	e59f309c 	ldr	r3, [pc, #156]	; c1026b0 <modoCambiarHora+0x3e4>
 c102610:	eb000b0b 	bl	c105244 <lcd_puts>
 c102614:	ea000012 	b	c102664 <modoCambiarHora+0x398>
			}
		else if( x>170 && y>12 && x<310 && y<40 )
 c102618:	e15b31b0 	ldrh	r3, [fp, #-16]
 c10261c:	e35300aa 	cmp	r3, #170	; 0xaa
 c102620:	9a00000f 	bls	c102664 <modoCambiarHora+0x398>
 c102624:	e15b31b2 	ldrh	r3, [fp, #-18]	; 0xffffffee
 c102628:	e353000c 	cmp	r3, #12
 c10262c:	9a00000c 	bls	c102664 <modoCambiarHora+0x398>
 c102630:	e15b21b0 	ldrh	r2, [fp, #-16]
 c102634:	e59f3084 	ldr	r3, [pc, #132]	; c1026c0 <modoCambiarHora+0x3f4>
 c102638:	e1520003 	cmp	r2, r3
 c10263c:	8a000008 	bhi	c102664 <modoCambiarHora+0x398>
 c102640:	e15b31b2 	ldrh	r3, [fp, #-18]	; 0xffffffee
 c102644:	e3530027 	cmp	r3, #39	; 0x27
 c102648:	8a000005 	bhi	c102664 <modoCambiarHora+0x398>
			{
			//Volver menu principal
				x=0;
 c10264c:	e3a03000 	mov	r3, #0
 c102650:	e14b31b0 	strh	r3, [fp, #-16]
				y = 0;
 c102654:	e3a03000 	mov	r3, #0
 c102658:	e14b31b2 	strh	r3, [fp, #-18]	; 0xffffffee
				volverMenuPrincipal = TRUE;
 c10265c:	e3a03001 	mov	r3, #1
 c102660:	e54b300d 	strb	r3, [fp, #-13]

	//Limpiamos el menu principal
	lcd_clear();
	lcd_draw_box( 10, 10, 310, 230, BLACK, 5 );

	while(!volverMenuPrincipal){
 c102664:	e55b300d 	ldrb	r3, [fp, #-13]
 c102668:	e3530000 	cmp	r3, #0
 c10266c:	0affff2b 	beq	c102320 <modoCambiarHora+0x54>
				x=0;
				y = 0;
				volverMenuPrincipal = TRUE;
			}
		}
		pintarMenuPrincipal = TRUE;
 c102670:	e59f304c 	ldr	r3, [pc, #76]	; c1026c4 <modoCambiarHora+0x3f8>
 c102674:	e3a02001 	mov	r2, #1
 c102678:	e5c32000 	strb	r2, [r3]
		lcd_clear();
 c10267c:	eb00099f 	bl	c104d00 <lcd_clear>
}
 c102680:	e24bd00c 	sub	sp, fp, #12
 c102684:	e89d6800 	ldm	sp, {fp, sp, lr}
 c102688:	e12fff1e 	bx	lr
 c10268c:	0c10bda4 	.word	0x0c10bda4
 c102690:	00000136 	.word	0x00000136
 c102694:	0c109dbc 	.word	0x0c109dbc
 c102698:	0c109d80 	.word	0x0c109d80
 c10269c:	0c109dfc 	.word	0x0c109dfc
 c1026a0:	0c109e0c 	.word	0x0c109e0c
 c1026a4:	0c109e20 	.word	0x0c109e20
 c1026a8:	0c109e24 	.word	0x0c109e24
 c1026ac:	0c109e28 	.word	0x0c109e28
 c1026b0:	0c109e38 	.word	0x0c109e38
 c1026b4:	0c109e48 	.word	0x0c109e48
 c1026b8:	0c109e5c 	.word	0x0c109e5c
 c1026bc:	0c109e70 	.word	0x0c109e70
 c1026c0:	00000135 	.word	0x00000135
 c1026c4:	0c10b970 	.word	0x0c10b970

0c1026c8 <modoFecha>:
void modoFecha( void ){
 c1026c8:	e1a0c00d 	mov	ip, sp
 c1026cc:	e92dd800 	push	{fp, ip, lr, pc}
 c1026d0:	e24cb004 	sub	fp, ip, #4
 c1026d4:	e24dd010 	sub	sp, sp, #16
	boolean volverMenuPrincipal = FALSE;
 c1026d8:	e3a03000 	mov	r3, #0
 c1026dc:	e54b300d 	strb	r3, [fp, #-13]
	boolean pintadoInicial = TRUE;
 c1026e0:	e3a03001 	mov	r3, #1
 c1026e4:	e54b300e 	strb	r3, [fp, #-14]

	rtc_gettime( &rtc_time_aux ); //Guardamos el tiempo con la que hemos entrado a la opcion
 c1026e8:	e59f0398 	ldr	r0, [pc, #920]	; c102a88 <modoFecha+0x3c0>
 c1026ec:	eb000f0e 	bl	c10632c <rtc_gettime>

	uint16 x, y;

	//Limpiamos el menu principal
	lcd_clear();
 c1026f0:	eb000982 	bl	c104d00 <lcd_clear>
	lcd_draw_box( 10, 10, 310, 230, BLACK, 5 );
 c1026f4:	e3a0300f 	mov	r3, #15
 c1026f8:	e58d3000 	str	r3, [sp]
 c1026fc:	e3a03005 	mov	r3, #5
 c102700:	e58d3004 	str	r3, [sp, #4]
 c102704:	e3a0000a 	mov	r0, #10
 c102708:	e3a0100a 	mov	r1, #10
 c10270c:	e59f2378 	ldr	r2, [pc, #888]	; c102a8c <modoFecha+0x3c4>
 c102710:	e3a030e6 	mov	r3, #230	; 0xe6
 c102714:	eb000a46 	bl	c105034 <lcd_draw_box>

	while(!volverMenuPrincipal){
 c102718:	ea0000d0 	b	c102a60 <modoFecha+0x398>

		//Aqui pintamos las cosas que no se actualizan
		if(pintadoInicial){
 c10271c:	e55b300e 	ldrb	r3, [fp, #-14]
 c102720:	e3530000 	cmp	r3, #0
 c102724:	0a000057 	beq	c102888 <modoFecha+0x1c0>

			//Mostrar opcion cambiar fecha
			lcd_draw_box(170, 12, 310, 40, BLACK, 3);
 c102728:	e3a0300f 	mov	r3, #15
 c10272c:	e58d3000 	str	r3, [sp]
 c102730:	e3a03003 	mov	r3, #3
 c102734:	e58d3004 	str	r3, [sp, #4]
 c102738:	e3a000aa 	mov	r0, #170	; 0xaa
 c10273c:	e3a0100c 	mov	r1, #12
 c102740:	e59f2344 	ldr	r2, [pc, #836]	; c102a8c <modoFecha+0x3c4>
 c102744:	e3a03028 	mov	r3, #40	; 0x28
 c102748:	eb000a39 	bl	c105034 <lcd_draw_box>
			lcd_puts(180, 20, BLACK, "Menu principal");
 c10274c:	e3a000b4 	mov	r0, #180	; 0xb4
 c102750:	e3a01014 	mov	r1, #20
 c102754:	e3a0200f 	mov	r2, #15
 c102758:	e59f3330 	ldr	r3, [pc, #816]	; c102a90 <modoFecha+0x3c8>
 c10275c:	eb000ab8 	bl	c105244 <lcd_puts>

			//Mostrar opcion cambiar hora
			lcd_draw_box(30, 115, 170, 140, BLACK, 3);
 c102760:	e3a0300f 	mov	r3, #15
 c102764:	e58d3000 	str	r3, [sp]
 c102768:	e3a03003 	mov	r3, #3
 c10276c:	e58d3004 	str	r3, [sp, #4]
 c102770:	e3a0001e 	mov	r0, #30
 c102774:	e3a01073 	mov	r1, #115	; 0x73
 c102778:	e3a020aa 	mov	r2, #170	; 0xaa
 c10277c:	e3a0308c 	mov	r3, #140	; 0x8c
 c102780:	eb000a2b 	bl	c105034 <lcd_draw_box>
			lcd_puts(40, 120, BLACK, "Cambiar dia");
 c102784:	e3a00028 	mov	r0, #40	; 0x28
 c102788:	e3a01078 	mov	r1, #120	; 0x78
 c10278c:	e3a0200f 	mov	r2, #15
 c102790:	e59f32fc 	ldr	r3, [pc, #764]	; c102a94 <modoFecha+0x3cc>
 c102794:	eb000aaa 	bl	c105244 <lcd_puts>

			//Mostrar opcion cambiar minutos
			lcd_draw_box(30, 145, 170, 170, BLACK, 3);
 c102798:	e3a0300f 	mov	r3, #15
 c10279c:	e58d3000 	str	r3, [sp]
 c1027a0:	e3a03003 	mov	r3, #3
 c1027a4:	e58d3004 	str	r3, [sp, #4]
 c1027a8:	e3a0001e 	mov	r0, #30
 c1027ac:	e3a01091 	mov	r1, #145	; 0x91
 c1027b0:	e3a020aa 	mov	r2, #170	; 0xaa
 c1027b4:	e3a030aa 	mov	r3, #170	; 0xaa
 c1027b8:	eb000a1d 	bl	c105034 <lcd_draw_box>
			lcd_puts(40, 150, BLACK, "Cambiar mes");
 c1027bc:	e3a00028 	mov	r0, #40	; 0x28
 c1027c0:	e3a01096 	mov	r1, #150	; 0x96
 c1027c4:	e3a0200f 	mov	r2, #15
 c1027c8:	e59f32c8 	ldr	r3, [pc, #712]	; c102a98 <modoFecha+0x3d0>
 c1027cc:	eb000a9c 	bl	c105244 <lcd_puts>

			//Mostrar opcion contador segundos
			lcd_draw_box(30, 175, 170, 200, BLACK, 3);
 c1027d0:	e3a0300f 	mov	r3, #15
 c1027d4:	e58d3000 	str	r3, [sp]
 c1027d8:	e3a03003 	mov	r3, #3
 c1027dc:	e58d3004 	str	r3, [sp, #4]
 c1027e0:	e3a0001e 	mov	r0, #30
 c1027e4:	e3a010af 	mov	r1, #175	; 0xaf
 c1027e8:	e3a020aa 	mov	r2, #170	; 0xaa
 c1027ec:	e3a030c8 	mov	r3, #200	; 0xc8
 c1027f0:	eb000a0f 	bl	c105034 <lcd_draw_box>
			lcd_puts(40, 180, BLACK, "Cambiar año");
 c1027f4:	e3a00028 	mov	r0, #40	; 0x28
 c1027f8:	e3a010b4 	mov	r1, #180	; 0xb4
 c1027fc:	e3a0200f 	mov	r2, #15
 c102800:	e59f3294 	ldr	r3, [pc, #660]	; c102a9c <modoFecha+0x3d4>
 c102804:	eb000a8e 	bl	c105244 <lcd_puts>

			// Boton +
			lcd_draw_box(210, 109, 246, 150, BLACK, 3);
 c102808:	e3a0300f 	mov	r3, #15
 c10280c:	e58d3000 	str	r3, [sp]
 c102810:	e3a03003 	mov	r3, #3
 c102814:	e58d3004 	str	r3, [sp, #4]
 c102818:	e3a000d2 	mov	r0, #210	; 0xd2
 c10281c:	e3a0106d 	mov	r1, #109	; 0x6d
 c102820:	e3a020f6 	mov	r2, #246	; 0xf6
 c102824:	e3a03096 	mov	r3, #150	; 0x96
 c102828:	eb000a01 	bl	c105034 <lcd_draw_box>
			lcd_puts_x2(220, 115, BLACK, "+");
 c10282c:	e3a000dc 	mov	r0, #220	; 0xdc
 c102830:	e3a01073 	mov	r1, #115	; 0x73
 c102834:	e3a0200f 	mov	r2, #15
 c102838:	e59f3260 	ldr	r3, [pc, #608]	; c102aa0 <modoFecha+0x3d8>
 c10283c:	eb000b7b 	bl	c105630 <lcd_puts_x2>

			// Boton -
			lcd_draw_box(210, 165, 246, 204, BLACK, 3);
 c102840:	e3a0300f 	mov	r3, #15
 c102844:	e58d3000 	str	r3, [sp]
 c102848:	e3a03003 	mov	r3, #3
 c10284c:	e58d3004 	str	r3, [sp, #4]
 c102850:	e3a000d2 	mov	r0, #210	; 0xd2
 c102854:	e3a010a5 	mov	r1, #165	; 0xa5
 c102858:	e3a020f6 	mov	r2, #246	; 0xf6
 c10285c:	e3a030cc 	mov	r3, #204	; 0xcc
 c102860:	eb0009f3 	bl	c105034 <lcd_draw_box>
			lcd_puts_x2(221, 169, BLACK, "-");
 c102864:	e3a000dd 	mov	r0, #221	; 0xdd
 c102868:	e3a010a9 	mov	r1, #169	; 0xa9
 c10286c:	e3a0200f 	mov	r2, #15
 c102870:	e59f322c 	ldr	r3, [pc, #556]	; c102aa4 <modoFecha+0x3dc>
 c102874:	eb000b6d 	bl	c105630 <lcd_puts_x2>

			//Pintamos el reloj inicial
			mostrarFecha(&rtc_time_aux);
 c102878:	e59f0208 	ldr	r0, [pc, #520]	; c102a88 <modoFecha+0x3c0>
 c10287c:	ebfffa44 	bl	c101194 <mostrarFecha>

			pintadoInicial = FALSE;
 c102880:	e3a03000 	mov	r3, #0
 c102884:	e54b300e 	strb	r3, [fp, #-14]
		}


		//Para que no se quede el programa congelado esperando que el usuario presione la pantalla
		if(ts_pressed()){
 c102888:	eb001606 	bl	c1080a8 <ts_pressed>
 c10288c:	e1a03000 	mov	r3, r0
 c102890:	e3530000 	cmp	r3, #0
 c102894:	0a000004 	beq	c1028ac <modoFecha+0x1e4>
			ts_getpos(&x,&y);
 c102898:	e24b2010 	sub	r2, fp, #16
 c10289c:	e24b3012 	sub	r3, fp, #18
 c1028a0:	e1a00002 	mov	r0, r2
 c1028a4:	e1a01003 	mov	r1, r3
 c1028a8:	eb001685 	bl	c1082c4 <ts_getpos>
		}

		if( x>30 && y>115 && x<170 && y<140 )
 c1028ac:	e15b31b0 	ldrh	r3, [fp, #-16]
 c1028b0:	e353001e 	cmp	r3, #30
 c1028b4:	9a00001a 	bls	c102924 <modoFecha+0x25c>
 c1028b8:	e15b31b2 	ldrh	r3, [fp, #-18]	; 0xffffffee
 c1028bc:	e3530073 	cmp	r3, #115	; 0x73
 c1028c0:	9a000017 	bls	c102924 <modoFecha+0x25c>
 c1028c4:	e15b31b0 	ldrh	r3, [fp, #-16]
 c1028c8:	e35300a9 	cmp	r3, #169	; 0xa9
 c1028cc:	8a000014 	bhi	c102924 <modoFecha+0x25c>
 c1028d0:	e15b31b2 	ldrh	r3, [fp, #-18]	; 0xffffffee
 c1028d4:	e353008b 	cmp	r3, #139	; 0x8b
 c1028d8:	8a000011 	bhi	c102924 <modoFecha+0x25c>
			{
			//CambiarHora
				x=0;
 c1028dc:	e3a03000 	mov	r3, #0
 c1028e0:	e14b31b0 	strh	r3, [fp, #-16]
				y = 0;
 c1028e4:	e3a03000 	mov	r3, #0
 c1028e8:	e14b31b2 	strh	r3, [fp, #-18]	; 0xffffffee
				lcd_puts( 30, 30, BLACK,"Cambiando dia" );
 c1028ec:	e3a0001e 	mov	r0, #30
 c1028f0:	e3a0101e 	mov	r1, #30
 c1028f4:	e3a0200f 	mov	r2, #15
 c1028f8:	e59f31a8 	ldr	r3, [pc, #424]	; c102aa8 <modoFecha+0x3e0>
 c1028fc:	eb000a50 	bl	c105244 <lcd_puts>
				cambiarDatosReloj(1,TRUE);
 c102900:	e3a00001 	mov	r0, #1
 c102904:	e3a01001 	mov	r1, #1
 c102908:	ebfffdef 	bl	c1020cc <cambiarDatosReloj>
				lcd_puts( 30, 30, BLACK,"              " );
 c10290c:	e3a0001e 	mov	r0, #30
 c102910:	e3a0101e 	mov	r1, #30
 c102914:	e3a0200f 	mov	r2, #15
 c102918:	e59f318c 	ldr	r3, [pc, #396]	; c102aac <modoFecha+0x3e4>
 c10291c:	eb000a48 	bl	c105244 <lcd_puts>
 c102920:	ea00004e 	b	c102a60 <modoFecha+0x398>
			}
		else if( x>30 && y>145 && x<170 && y<170 )
 c102924:	e15b31b0 	ldrh	r3, [fp, #-16]
 c102928:	e353001e 	cmp	r3, #30
 c10292c:	9a00001a 	bls	c10299c <modoFecha+0x2d4>
 c102930:	e15b31b2 	ldrh	r3, [fp, #-18]	; 0xffffffee
 c102934:	e3530091 	cmp	r3, #145	; 0x91
 c102938:	9a000017 	bls	c10299c <modoFecha+0x2d4>
 c10293c:	e15b31b0 	ldrh	r3, [fp, #-16]
 c102940:	e35300a9 	cmp	r3, #169	; 0xa9
 c102944:	8a000014 	bhi	c10299c <modoFecha+0x2d4>
 c102948:	e15b31b2 	ldrh	r3, [fp, #-18]	; 0xffffffee
 c10294c:	e35300a9 	cmp	r3, #169	; 0xa9
 c102950:	8a000011 	bhi	c10299c <modoFecha+0x2d4>
			{
			//CambiarMinutos
				x=0;
 c102954:	e3a03000 	mov	r3, #0
 c102958:	e14b31b0 	strh	r3, [fp, #-16]
				y = 0;
 c10295c:	e3a03000 	mov	r3, #0
 c102960:	e14b31b2 	strh	r3, [fp, #-18]	; 0xffffffee
				lcd_puts( 30, 30, BLACK,"Cambiando mes" );
 c102964:	e3a0001e 	mov	r0, #30
 c102968:	e3a0101e 	mov	r1, #30
 c10296c:	e3a0200f 	mov	r2, #15
 c102970:	e59f3138 	ldr	r3, [pc, #312]	; c102ab0 <modoFecha+0x3e8>
 c102974:	eb000a32 	bl	c105244 <lcd_puts>
				cambiarDatosReloj(2,TRUE);
 c102978:	e3a00002 	mov	r0, #2
 c10297c:	e3a01001 	mov	r1, #1
 c102980:	ebfffdd1 	bl	c1020cc <cambiarDatosReloj>
				lcd_puts( 30, 30, BLACK,"                 " );
 c102984:	e3a0001e 	mov	r0, #30
 c102988:	e3a0101e 	mov	r1, #30
 c10298c:	e3a0200f 	mov	r2, #15
 c102990:	e59f311c 	ldr	r3, [pc, #284]	; c102ab4 <modoFecha+0x3ec>
 c102994:	eb000a2a 	bl	c105244 <lcd_puts>
 c102998:	ea000030 	b	c102a60 <modoFecha+0x398>

			}
		else if( x>30 && y>175 && x<170 && y<200 )
 c10299c:	e15b31b0 	ldrh	r3, [fp, #-16]
 c1029a0:	e353001e 	cmp	r3, #30
 c1029a4:	9a00001a 	bls	c102a14 <modoFecha+0x34c>
 c1029a8:	e15b31b2 	ldrh	r3, [fp, #-18]	; 0xffffffee
 c1029ac:	e35300af 	cmp	r3, #175	; 0xaf
 c1029b0:	9a000017 	bls	c102a14 <modoFecha+0x34c>
 c1029b4:	e15b31b0 	ldrh	r3, [fp, #-16]
 c1029b8:	e35300a9 	cmp	r3, #169	; 0xa9
 c1029bc:	8a000014 	bhi	c102a14 <modoFecha+0x34c>
 c1029c0:	e15b31b2 	ldrh	r3, [fp, #-18]	; 0xffffffee
 c1029c4:	e35300c7 	cmp	r3, #199	; 0xc7
 c1029c8:	8a000011 	bhi	c102a14 <modoFecha+0x34c>
			{
			//CambiarSegundos
				x=0;
 c1029cc:	e3a03000 	mov	r3, #0
 c1029d0:	e14b31b0 	strh	r3, [fp, #-16]
				y = 0;
 c1029d4:	e3a03000 	mov	r3, #0
 c1029d8:	e14b31b2 	strh	r3, [fp, #-18]	; 0xffffffee
				lcd_puts( 30, 30, BLACK,"Cambiando año" );
 c1029dc:	e3a0001e 	mov	r0, #30
 c1029e0:	e3a0101e 	mov	r1, #30
 c1029e4:	e3a0200f 	mov	r2, #15
 c1029e8:	e59f30c8 	ldr	r3, [pc, #200]	; c102ab8 <modoFecha+0x3f0>
 c1029ec:	eb000a14 	bl	c105244 <lcd_puts>
				cambiarDatosReloj(3,TRUE);
 c1029f0:	e3a00003 	mov	r0, #3
 c1029f4:	e3a01001 	mov	r1, #1
 c1029f8:	ebfffdb3 	bl	c1020cc <cambiarDatosReloj>
				lcd_puts( 30, 30, BLACK,"              " );
 c1029fc:	e3a0001e 	mov	r0, #30
 c102a00:	e3a0101e 	mov	r1, #30
 c102a04:	e3a0200f 	mov	r2, #15
 c102a08:	e59f309c 	ldr	r3, [pc, #156]	; c102aac <modoFecha+0x3e4>
 c102a0c:	eb000a0c 	bl	c105244 <lcd_puts>
 c102a10:	ea000012 	b	c102a60 <modoFecha+0x398>
			}
		else if( x>170 && y>12 && x<310 && y<40 )
 c102a14:	e15b31b0 	ldrh	r3, [fp, #-16]
 c102a18:	e35300aa 	cmp	r3, #170	; 0xaa
 c102a1c:	9a00000f 	bls	c102a60 <modoFecha+0x398>
 c102a20:	e15b31b2 	ldrh	r3, [fp, #-18]	; 0xffffffee
 c102a24:	e353000c 	cmp	r3, #12
 c102a28:	9a00000c 	bls	c102a60 <modoFecha+0x398>
 c102a2c:	e15b21b0 	ldrh	r2, [fp, #-16]
 c102a30:	e59f3084 	ldr	r3, [pc, #132]	; c102abc <modoFecha+0x3f4>
 c102a34:	e1520003 	cmp	r2, r3
 c102a38:	8a000008 	bhi	c102a60 <modoFecha+0x398>
 c102a3c:	e15b31b2 	ldrh	r3, [fp, #-18]	; 0xffffffee
 c102a40:	e3530027 	cmp	r3, #39	; 0x27
 c102a44:	8a000005 	bhi	c102a60 <modoFecha+0x398>
			{
			//Volver menu principal
				x=0;
 c102a48:	e3a03000 	mov	r3, #0
 c102a4c:	e14b31b0 	strh	r3, [fp, #-16]
				y = 0;
 c102a50:	e3a03000 	mov	r3, #0
 c102a54:	e14b31b2 	strh	r3, [fp, #-18]	; 0xffffffee
				volverMenuPrincipal = TRUE;
 c102a58:	e3a03001 	mov	r3, #1
 c102a5c:	e54b300d 	strb	r3, [fp, #-13]

	//Limpiamos el menu principal
	lcd_clear();
	lcd_draw_box( 10, 10, 310, 230, BLACK, 5 );

	while(!volverMenuPrincipal){
 c102a60:	e55b300d 	ldrb	r3, [fp, #-13]
 c102a64:	e3530000 	cmp	r3, #0
 c102a68:	0affff2b 	beq	c10271c <modoFecha+0x54>
				x=0;
				y = 0;
				volverMenuPrincipal = TRUE;
			}
		}
	pintarMenuPrincipal = TRUE;
 c102a6c:	e59f304c 	ldr	r3, [pc, #76]	; c102ac0 <modoFecha+0x3f8>
 c102a70:	e3a02001 	mov	r2, #1
 c102a74:	e5c32000 	strb	r2, [r3]
	lcd_clear();
 c102a78:	eb0008a0 	bl	c104d00 <lcd_clear>
}
 c102a7c:	e24bd00c 	sub	sp, fp, #12
 c102a80:	e89d6800 	ldm	sp, {fp, sp, lr}
 c102a84:	e12fff1e 	bx	lr
 c102a88:	0c10bda4 	.word	0x0c10bda4
 c102a8c:	00000136 	.word	0x00000136
 c102a90:	0c109dbc 	.word	0x0c109dbc
 c102a94:	0c109e80 	.word	0x0c109e80
 c102a98:	0c109e8c 	.word	0x0c109e8c
 c102a9c:	0c109e98 	.word	0x0c109e98
 c102aa0:	0c109e20 	.word	0x0c109e20
 c102aa4:	0c109e24 	.word	0x0c109e24
 c102aa8:	0c109ea4 	.word	0x0c109ea4
 c102aac:	0c109e38 	.word	0x0c109e38
 c102ab0:	0c109eb4 	.word	0x0c109eb4
 c102ab4:	0c109e5c 	.word	0x0c109e5c
 c102ab8:	0c109ec4 	.word	0x0c109ec4
 c102abc:	00000135 	.word	0x00000135
 c102ac0:	0c10b970 	.word	0x0c10b970

0c102ac4 <invertirCadena>:
/*--------------------Funciones para el modo Deporte--------------------*/
char* invertirCadena(char* str) {
 c102ac4:	e1a0c00d 	mov	ip, sp
 c102ac8:	e92dd800 	push	{fp, ip, lr, pc}
 c102acc:	e24cb004 	sub	fp, ip, #4
 c102ad0:	e24dd018 	sub	sp, sp, #24
 c102ad4:	e50b0020 	str	r0, [fp, #-32]	; 0xffffffe0
    // Calcular la longitud de la cadena manualmente
    int longitud = 0;
 c102ad8:	e3a03000 	mov	r3, #0
 c102adc:	e50b3010 	str	r3, [fp, #-16]
    while (str[longitud] != '\0') {
 c102ae0:	ea000002 	b	c102af0 <invertirCadena+0x2c>
        longitud++;
 c102ae4:	e51b3010 	ldr	r3, [fp, #-16]
 c102ae8:	e2833001 	add	r3, r3, #1
 c102aec:	e50b3010 	str	r3, [fp, #-16]
}
/*--------------------Funciones para el modo Deporte--------------------*/
char* invertirCadena(char* str) {
    // Calcular la longitud de la cadena manualmente
    int longitud = 0;
    while (str[longitud] != '\0') {
 c102af0:	e51b3010 	ldr	r3, [fp, #-16]
 c102af4:	e51b2020 	ldr	r2, [fp, #-32]	; 0xffffffe0
 c102af8:	e0823003 	add	r3, r2, r3
 c102afc:	e5d33000 	ldrb	r3, [r3]
 c102b00:	e3530000 	cmp	r3, #0
 c102b04:	1afffff6 	bne	c102ae4 <invertirCadena+0x20>
        longitud++;
    }

    int i, j;

    for (i = 0, j = longitud - 1; i < j; i++, j--) {
 c102b08:	e3a03000 	mov	r3, #0
 c102b0c:	e50b3014 	str	r3, [fp, #-20]	; 0xffffffec
 c102b10:	e51b3010 	ldr	r3, [fp, #-16]
 c102b14:	e2433001 	sub	r3, r3, #1
 c102b18:	e50b3018 	str	r3, [fp, #-24]	; 0xffffffe8
 c102b1c:	ea000017 	b	c102b80 <invertirCadena+0xbc>
        // Intercambiar caracteres de extremo opuesto
        char temp = str[i];
 c102b20:	e51b3014 	ldr	r3, [fp, #-20]	; 0xffffffec
 c102b24:	e51b2020 	ldr	r2, [fp, #-32]	; 0xffffffe0
 c102b28:	e0823003 	add	r3, r2, r3
 c102b2c:	e5d33000 	ldrb	r3, [r3]
 c102b30:	e54b3019 	strb	r3, [fp, #-25]	; 0xffffffe7
        str[i] = str[j];
 c102b34:	e51b3014 	ldr	r3, [fp, #-20]	; 0xffffffec
 c102b38:	e51b2020 	ldr	r2, [fp, #-32]	; 0xffffffe0
 c102b3c:	e0823003 	add	r3, r2, r3
 c102b40:	e51b2018 	ldr	r2, [fp, #-24]	; 0xffffffe8
 c102b44:	e51b1020 	ldr	r1, [fp, #-32]	; 0xffffffe0
 c102b48:	e0812002 	add	r2, r1, r2
 c102b4c:	e5d22000 	ldrb	r2, [r2]
 c102b50:	e5c32000 	strb	r2, [r3]
        str[j] = temp;
 c102b54:	e51b3018 	ldr	r3, [fp, #-24]	; 0xffffffe8
 c102b58:	e51b2020 	ldr	r2, [fp, #-32]	; 0xffffffe0
 c102b5c:	e0823003 	add	r3, r2, r3
 c102b60:	e55b2019 	ldrb	r2, [fp, #-25]	; 0xffffffe7
 c102b64:	e5c32000 	strb	r2, [r3]
        longitud++;
    }

    int i, j;

    for (i = 0, j = longitud - 1; i < j; i++, j--) {
 c102b68:	e51b3014 	ldr	r3, [fp, #-20]	; 0xffffffec
 c102b6c:	e2833001 	add	r3, r3, #1
 c102b70:	e50b3014 	str	r3, [fp, #-20]	; 0xffffffec
 c102b74:	e51b3018 	ldr	r3, [fp, #-24]	; 0xffffffe8
 c102b78:	e2433001 	sub	r3, r3, #1
 c102b7c:	e50b3018 	str	r3, [fp, #-24]	; 0xffffffe8
 c102b80:	e51b2014 	ldr	r2, [fp, #-20]	; 0xffffffec
 c102b84:	e51b3018 	ldr	r3, [fp, #-24]	; 0xffffffe8
 c102b88:	e1520003 	cmp	r2, r3
 c102b8c:	baffffe3 	blt	c102b20 <invertirCadena+0x5c>
        char temp = str[i];
        str[i] = str[j];
        str[j] = temp;
    }

    return str;
 c102b90:	e51b3020 	ldr	r3, [fp, #-32]	; 0xffffffe0

}
 c102b94:	e1a00003 	mov	r0, r3
 c102b98:	e24bd00c 	sub	sp, fp, #12
 c102b9c:	e89d6800 	ldm	sp, {fp, sp, lr}
 c102ba0:	e12fff1e 	bx	lr

0c102ba4 <lcd_putKm_x2>:
void lcd_putKm_x2(uint16 x, uint16 y, uint8 color, fix32 f) {
 c102ba4:	e1a0c00d 	mov	ip, sp
 c102ba8:	e92dd800 	push	{fp, ip, lr, pc}
 c102bac:	e24cb004 	sub	fp, ip, #4
 c102bb0:	e24dd038 	sub	sp, sp, #56	; 0x38
 c102bb4:	e50b3040 	str	r3, [fp, #-64]	; 0xffffffc0
 c102bb8:	e14b03b6 	strh	r0, [fp, #-54]	; 0xffffffca
 c102bbc:	e14b13b8 	strh	r1, [fp, #-56]	; 0xffffffc8
 c102bc0:	e1a03002 	mov	r3, r2
 c102bc4:	e54b3039 	strb	r3, [fp, #-57]	; 0xffffffc7
    char buf[16];
    char *p = buf;
 c102bc8:	e24b3034 	sub	r3, fp, #52	; 0x34
 c102bcc:	e50b3010 	str	r3, [fp, #-16]
    boolean negativo = FALSE;
 c102bd0:	e3a03000 	mov	r3, #0
 c102bd4:	e54b3011 	strb	r3, [fp, #-17]	; 0xffffffef

    // Manejar el caso de números negativos
    if (f < 0) {
 c102bd8:	e51b3040 	ldr	r3, [fp, #-64]	; 0xffffffc0
 c102bdc:	e3530000 	cmp	r3, #0
 c102be0:	aa000004 	bge	c102bf8 <lcd_putKm_x2+0x54>
        f *= -1;
 c102be4:	e51b3040 	ldr	r3, [fp, #-64]	; 0xffffffc0
 c102be8:	e2633000 	rsb	r3, r3, #0
 c102bec:	e50b3040 	str	r3, [fp, #-64]	; 0xffffffc0
        negativo = TRUE;
 c102bf0:	e3a03001 	mov	r3, #1
 c102bf4:	e54b3011 	strb	r3, [fp, #-17]	; 0xffffffef
    }

    // Convertir parte entera a cadena con al menos dos dígitos inicializados a 0
    int32 i = f >> QM;
 c102bf8:	e51b3040 	ldr	r3, [fp, #-64]	; 0xffffffc0
 c102bfc:	e1a03643 	asr	r3, r3, #12
 c102c00:	e50b3020 	str	r3, [fp, #-32]	; 0xffffffe0

    // Añadir los dígitos de la parte entera al buffer
    if (i == 0) {
 c102c04:	e51b3020 	ldr	r3, [fp, #-32]	; 0xffffffe0
 c102c08:	e3530000 	cmp	r3, #0
 c102c0c:	1a00000c 	bne	c102c44 <lcd_putKm_x2+0xa0>
        *p++ = '0';
 c102c10:	e51b3010 	ldr	r3, [fp, #-16]
 c102c14:	e3a02030 	mov	r2, #48	; 0x30
 c102c18:	e5c32000 	strb	r2, [r3]
 c102c1c:	e51b3010 	ldr	r3, [fp, #-16]
 c102c20:	e2833001 	add	r3, r3, #1
 c102c24:	e50b3010 	str	r3, [fp, #-16]
        *p++ = '0';
 c102c28:	e51b3010 	ldr	r3, [fp, #-16]
 c102c2c:	e3a02030 	mov	r2, #48	; 0x30
 c102c30:	e5c32000 	strb	r2, [r3]
 c102c34:	e51b3010 	ldr	r3, [fp, #-16]
 c102c38:	e2833001 	add	r3, r3, #1
 c102c3c:	e50b3010 	str	r3, [fp, #-16]
 c102c40:	ea000020 	b	c102cc8 <lcd_putKm_x2+0x124>
    } else {
        *p++ = '0' + (i / 10);
 c102c44:	e51b3020 	ldr	r3, [fp, #-32]	; 0xffffffe0
 c102c48:	e59f216c 	ldr	r2, [pc, #364]	; c102dbc <lcd_putKm_x2+0x218>
 c102c4c:	e0c21293 	smull	r1, r2, r3, r2
 c102c50:	e1a02142 	asr	r2, r2, #2
 c102c54:	e1a03fc3 	asr	r3, r3, #31
 c102c58:	e0633002 	rsb	r3, r3, r2
 c102c5c:	e20330ff 	and	r3, r3, #255	; 0xff
 c102c60:	e2833030 	add	r3, r3, #48	; 0x30
 c102c64:	e20320ff 	and	r2, r3, #255	; 0xff
 c102c68:	e51b3010 	ldr	r3, [fp, #-16]
 c102c6c:	e5c32000 	strb	r2, [r3]
 c102c70:	e51b3010 	ldr	r3, [fp, #-16]
 c102c74:	e2833001 	add	r3, r3, #1
 c102c78:	e50b3010 	str	r3, [fp, #-16]
        *p++ = '0' + (i % 10);
 c102c7c:	e51b1020 	ldr	r1, [fp, #-32]	; 0xffffffe0
 c102c80:	e59f3134 	ldr	r3, [pc, #308]	; c102dbc <lcd_putKm_x2+0x218>
 c102c84:	e0c32391 	smull	r2, r3, r1, r3
 c102c88:	e1a02143 	asr	r2, r3, #2
 c102c8c:	e1a03fc1 	asr	r3, r1, #31
 c102c90:	e0632002 	rsb	r2, r3, r2
 c102c94:	e1a03002 	mov	r3, r2
 c102c98:	e1a03103 	lsl	r3, r3, #2
 c102c9c:	e0833002 	add	r3, r3, r2
 c102ca0:	e1a03083 	lsl	r3, r3, #1
 c102ca4:	e0632001 	rsb	r2, r3, r1
 c102ca8:	e20230ff 	and	r3, r2, #255	; 0xff
 c102cac:	e2833030 	add	r3, r3, #48	; 0x30
 c102cb0:	e20320ff 	and	r2, r3, #255	; 0xff
 c102cb4:	e51b3010 	ldr	r3, [fp, #-16]
 c102cb8:	e5c32000 	strb	r2, [r3]
 c102cbc:	e51b3010 	ldr	r3, [fp, #-16]
 c102cc0:	e2833001 	add	r3, r3, #1
 c102cc4:	e50b3010 	str	r3, [fp, #-16]
    }

    // Añadir punto decimal
    *p++ = '.';
 c102cc8:	e51b3010 	ldr	r3, [fp, #-16]
 c102ccc:	e3a0202e 	mov	r2, #46	; 0x2e
 c102cd0:	e5c32000 	strb	r2, [r3]
 c102cd4:	e51b3010 	ldr	r3, [fp, #-16]
 c102cd8:	e2833001 	add	r3, r3, #1
 c102cdc:	e50b3010 	str	r3, [fp, #-16]

    // Convertir parte decimal a cadena con tres dígitos
    fix32 parte_decimal = f & ((1 << QM) - 1);
 c102ce0:	e51b3040 	ldr	r3, [fp, #-64]	; 0xffffffc0
 c102ce4:	e1a03a03 	lsl	r3, r3, #20
 c102ce8:	e1a03a23 	lsr	r3, r3, #20
 c102cec:	e50b3018 	str	r3, [fp, #-24]	; 0xffffffe8
    int j;
    for (j = 0; j < 3; ++j) {
 c102cf0:	e3a03000 	mov	r3, #0
 c102cf4:	e50b301c 	str	r3, [fp, #-28]	; 0xffffffe4
 c102cf8:	ea000018 	b	c102d60 <lcd_putKm_x2+0x1bc>
        parte_decimal *= 10;
 c102cfc:	e51b2018 	ldr	r2, [fp, #-24]	; 0xffffffe8
 c102d00:	e1a03002 	mov	r3, r2
 c102d04:	e1a03103 	lsl	r3, r3, #2
 c102d08:	e0833002 	add	r3, r3, r2
 c102d0c:	e1a03083 	lsl	r3, r3, #1
 c102d10:	e50b3018 	str	r3, [fp, #-24]	; 0xffffffe8
        int digit = parte_decimal >> QM;  // Ajuste aquí al cambiar la definición de TOFIX
 c102d14:	e51b3018 	ldr	r3, [fp, #-24]	; 0xffffffe8
 c102d18:	e1a03643 	asr	r3, r3, #12
 c102d1c:	e50b3024 	str	r3, [fp, #-36]	; 0xffffffdc
        *p++ = '0' + digit;
 c102d20:	e51b3024 	ldr	r3, [fp, #-36]	; 0xffffffdc
 c102d24:	e20330ff 	and	r3, r3, #255	; 0xff
 c102d28:	e2833030 	add	r3, r3, #48	; 0x30
 c102d2c:	e20320ff 	and	r2, r3, #255	; 0xff
 c102d30:	e51b3010 	ldr	r3, [fp, #-16]
 c102d34:	e5c32000 	strb	r2, [r3]
 c102d38:	e51b3010 	ldr	r3, [fp, #-16]
 c102d3c:	e2833001 	add	r3, r3, #1
 c102d40:	e50b3010 	str	r3, [fp, #-16]
        parte_decimal &= ((1 << QM) - 1);
 c102d44:	e51b3018 	ldr	r3, [fp, #-24]	; 0xffffffe8
 c102d48:	e1a03a03 	lsl	r3, r3, #20
 c102d4c:	e1a03a23 	lsr	r3, r3, #20
 c102d50:	e50b3018 	str	r3, [fp, #-24]	; 0xffffffe8
    *p++ = '.';

    // Convertir parte decimal a cadena con tres dígitos
    fix32 parte_decimal = f & ((1 << QM) - 1);
    int j;
    for (j = 0; j < 3; ++j) {
 c102d54:	e51b301c 	ldr	r3, [fp, #-28]	; 0xffffffe4
 c102d58:	e2833001 	add	r3, r3, #1
 c102d5c:	e50b301c 	str	r3, [fp, #-28]	; 0xffffffe4
 c102d60:	e51b301c 	ldr	r3, [fp, #-28]	; 0xffffffe4
 c102d64:	e3530002 	cmp	r3, #2
 c102d68:	daffffe3 	ble	c102cfc <lcd_putKm_x2+0x158>
        *p++ = '0' + digit;
        parte_decimal &= ((1 << QM) - 1);
    }

    // Añadir terminador nulo
    *p = '\0';
 c102d6c:	e51b3010 	ldr	r3, [fp, #-16]
 c102d70:	e3a02000 	mov	r2, #0
 c102d74:	e5c32000 	strb	r2, [r3]

    // Manejar el caso de números negativos
    if (negativo) {
 c102d78:	e55b3011 	ldrb	r3, [fp, #-17]	; 0xffffffef
 c102d7c:	e3530000 	cmp	r3, #0
 c102d80:	0a000005 	beq	c102d9c <lcd_putKm_x2+0x1f8>
        *--p = '-';
 c102d84:	e51b3010 	ldr	r3, [fp, #-16]
 c102d88:	e2433001 	sub	r3, r3, #1
 c102d8c:	e50b3010 	str	r3, [fp, #-16]
 c102d90:	e51b3010 	ldr	r3, [fp, #-16]
 c102d94:	e3a0202d 	mov	r2, #45	; 0x2d
 c102d98:	e5c32000 	strb	r2, [r3]
    }

    lcd_puts_x2(x, y, color, buf);
 c102d9c:	e15b03b6 	ldrh	r0, [fp, #-54]	; 0xffffffca
 c102da0:	e15b13b8 	ldrh	r1, [fp, #-56]	; 0xffffffc8
 c102da4:	e55b2039 	ldrb	r2, [fp, #-57]	; 0xffffffc7
 c102da8:	e24b3034 	sub	r3, fp, #52	; 0x34
 c102dac:	eb000a1f 	bl	c105630 <lcd_puts_x2>
}
 c102db0:	e24bd00c 	sub	sp, fp, #12
 c102db4:	e89d6800 	ldm	sp, {fp, sp, lr}
 c102db8:	e12fff1e 	bx	lr
 c102dbc:	66666667 	.word	0x66666667

0c102dc0 <lcd_putCal_x2>:
void lcd_putCal_x2(uint16 x, uint16 y, uint8 color, fix32 f) {
 c102dc0:	e1a0c00d 	mov	ip, sp
 c102dc4:	e92dd800 	push	{fp, ip, lr, pc}
 c102dc8:	e24cb004 	sub	fp, ip, #4
 c102dcc:	e24dd038 	sub	sp, sp, #56	; 0x38
 c102dd0:	e50b3040 	str	r3, [fp, #-64]	; 0xffffffc0
 c102dd4:	e14b03b6 	strh	r0, [fp, #-54]	; 0xffffffca
 c102dd8:	e14b13b8 	strh	r1, [fp, #-56]	; 0xffffffc8
 c102ddc:	e1a03002 	mov	r3, r2
 c102de0:	e54b3039 	strb	r3, [fp, #-57]	; 0xffffffc7
    char buf[16];
    char *p = buf;
 c102de4:	e24b3034 	sub	r3, fp, #52	; 0x34
 c102de8:	e50b3010 	str	r3, [fp, #-16]
    boolean negativo = FALSE;
 c102dec:	e3a03000 	mov	r3, #0
 c102df0:	e54b3011 	strb	r3, [fp, #-17]	; 0xffffffef

    // Manejar el caso de números negativos
    if (f < 0) {
 c102df4:	e51b3040 	ldr	r3, [fp, #-64]	; 0xffffffc0
 c102df8:	e3530000 	cmp	r3, #0
 c102dfc:	aa000004 	bge	c102e14 <lcd_putCal_x2+0x54>
        f *= -1;
 c102e00:	e51b3040 	ldr	r3, [fp, #-64]	; 0xffffffc0
 c102e04:	e2633000 	rsb	r3, r3, #0
 c102e08:	e50b3040 	str	r3, [fp, #-64]	; 0xffffffc0
        negativo = TRUE;
 c102e0c:	e3a03001 	mov	r3, #1
 c102e10:	e54b3011 	strb	r3, [fp, #-17]	; 0xffffffef
    }

    // Convertir parte entera a cadena con al menos tres dígitos inicializados a 0
    int32 i = f >> QM;
 c102e14:	e51b3040 	ldr	r3, [fp, #-64]	; 0xffffffc0
 c102e18:	e1a03643 	asr	r3, r3, #12
 c102e1c:	e50b3020 	str	r3, [fp, #-32]	; 0xffffffe0

    // Añadir los dígitos de la parte entera al buffer
    *p++ = '0' + (i / 100);  // Asegurar que haya al menos tres dígitos
 c102e20:	e51b3020 	ldr	r3, [fp, #-32]	; 0xffffffe0
 c102e24:	e59f21cc 	ldr	r2, [pc, #460]	; c102ff8 <lcd_putCal_x2+0x238>
 c102e28:	e0c21293 	smull	r1, r2, r3, r2
 c102e2c:	e1a022c2 	asr	r2, r2, #5
 c102e30:	e1a03fc3 	asr	r3, r3, #31
 c102e34:	e0633002 	rsb	r3, r3, r2
 c102e38:	e20330ff 	and	r3, r3, #255	; 0xff
 c102e3c:	e2833030 	add	r3, r3, #48	; 0x30
 c102e40:	e20320ff 	and	r2, r3, #255	; 0xff
 c102e44:	e51b3010 	ldr	r3, [fp, #-16]
 c102e48:	e5c32000 	strb	r2, [r3]
 c102e4c:	e51b3010 	ldr	r3, [fp, #-16]
 c102e50:	e2833001 	add	r3, r3, #1
 c102e54:	e50b3010 	str	r3, [fp, #-16]
    *p++ = '0' + ((i / 10) % 10);
 c102e58:	e51b3020 	ldr	r3, [fp, #-32]	; 0xffffffe0
 c102e5c:	e59f2198 	ldr	r2, [pc, #408]	; c102ffc <lcd_putCal_x2+0x23c>
 c102e60:	e0c21293 	smull	r1, r2, r3, r2
 c102e64:	e1a02142 	asr	r2, r2, #2
 c102e68:	e1a03fc3 	asr	r3, r3, #31
 c102e6c:	e0631002 	rsb	r1, r3, r2
 c102e70:	e59f3184 	ldr	r3, [pc, #388]	; c102ffc <lcd_putCal_x2+0x23c>
 c102e74:	e0c32391 	smull	r2, r3, r1, r3
 c102e78:	e1a02143 	asr	r2, r3, #2
 c102e7c:	e1a03fc1 	asr	r3, r1, #31
 c102e80:	e0632002 	rsb	r2, r3, r2
 c102e84:	e1a03002 	mov	r3, r2
 c102e88:	e1a03103 	lsl	r3, r3, #2
 c102e8c:	e0833002 	add	r3, r3, r2
 c102e90:	e1a03083 	lsl	r3, r3, #1
 c102e94:	e0632001 	rsb	r2, r3, r1
 c102e98:	e20230ff 	and	r3, r2, #255	; 0xff
 c102e9c:	e2833030 	add	r3, r3, #48	; 0x30
 c102ea0:	e20320ff 	and	r2, r3, #255	; 0xff
 c102ea4:	e51b3010 	ldr	r3, [fp, #-16]
 c102ea8:	e5c32000 	strb	r2, [r3]
 c102eac:	e51b3010 	ldr	r3, [fp, #-16]
 c102eb0:	e2833001 	add	r3, r3, #1
 c102eb4:	e50b3010 	str	r3, [fp, #-16]
    *p++ = '0' + (i % 10);
 c102eb8:	e51b1020 	ldr	r1, [fp, #-32]	; 0xffffffe0
 c102ebc:	e59f3138 	ldr	r3, [pc, #312]	; c102ffc <lcd_putCal_x2+0x23c>
 c102ec0:	e0c32391 	smull	r2, r3, r1, r3
 c102ec4:	e1a02143 	asr	r2, r3, #2
 c102ec8:	e1a03fc1 	asr	r3, r1, #31
 c102ecc:	e0632002 	rsb	r2, r3, r2
 c102ed0:	e1a03002 	mov	r3, r2
 c102ed4:	e1a03103 	lsl	r3, r3, #2
 c102ed8:	e0833002 	add	r3, r3, r2
 c102edc:	e1a03083 	lsl	r3, r3, #1
 c102ee0:	e0632001 	rsb	r2, r3, r1
 c102ee4:	e20230ff 	and	r3, r2, #255	; 0xff
 c102ee8:	e2833030 	add	r3, r3, #48	; 0x30
 c102eec:	e20320ff 	and	r2, r3, #255	; 0xff
 c102ef0:	e51b3010 	ldr	r3, [fp, #-16]
 c102ef4:	e5c32000 	strb	r2, [r3]
 c102ef8:	e51b3010 	ldr	r3, [fp, #-16]
 c102efc:	e2833001 	add	r3, r3, #1
 c102f00:	e50b3010 	str	r3, [fp, #-16]

    // Añadir punto decimal
    *p++ = '.';
 c102f04:	e51b3010 	ldr	r3, [fp, #-16]
 c102f08:	e3a0202e 	mov	r2, #46	; 0x2e
 c102f0c:	e5c32000 	strb	r2, [r3]
 c102f10:	e51b3010 	ldr	r3, [fp, #-16]
 c102f14:	e2833001 	add	r3, r3, #1
 c102f18:	e50b3010 	str	r3, [fp, #-16]

    // Convertir parte decimal a cadena con tres dígitos
    fix32 parte_decimal = f & ((1 << QM) - 1);
 c102f1c:	e51b3040 	ldr	r3, [fp, #-64]	; 0xffffffc0
 c102f20:	e1a03a03 	lsl	r3, r3, #20
 c102f24:	e1a03a23 	lsr	r3, r3, #20
 c102f28:	e50b3018 	str	r3, [fp, #-24]	; 0xffffffe8
    int j;
    for (j = 0; j < 3; ++j) {
 c102f2c:	e3a03000 	mov	r3, #0
 c102f30:	e50b301c 	str	r3, [fp, #-28]	; 0xffffffe4
 c102f34:	ea000018 	b	c102f9c <lcd_putCal_x2+0x1dc>
        parte_decimal *= 10;
 c102f38:	e51b2018 	ldr	r2, [fp, #-24]	; 0xffffffe8
 c102f3c:	e1a03002 	mov	r3, r2
 c102f40:	e1a03103 	lsl	r3, r3, #2
 c102f44:	e0833002 	add	r3, r3, r2
 c102f48:	e1a03083 	lsl	r3, r3, #1
 c102f4c:	e50b3018 	str	r3, [fp, #-24]	; 0xffffffe8
        int digit = parte_decimal >> QM;  // Ajuste aquí al cambiar la definición de TOFIX
 c102f50:	e51b3018 	ldr	r3, [fp, #-24]	; 0xffffffe8
 c102f54:	e1a03643 	asr	r3, r3, #12
 c102f58:	e50b3024 	str	r3, [fp, #-36]	; 0xffffffdc
        *p++ = '0' + digit;
 c102f5c:	e51b3024 	ldr	r3, [fp, #-36]	; 0xffffffdc
 c102f60:	e20330ff 	and	r3, r3, #255	; 0xff
 c102f64:	e2833030 	add	r3, r3, #48	; 0x30
 c102f68:	e20320ff 	and	r2, r3, #255	; 0xff
 c102f6c:	e51b3010 	ldr	r3, [fp, #-16]
 c102f70:	e5c32000 	strb	r2, [r3]
 c102f74:	e51b3010 	ldr	r3, [fp, #-16]
 c102f78:	e2833001 	add	r3, r3, #1
 c102f7c:	e50b3010 	str	r3, [fp, #-16]
        parte_decimal &= ((1 << QM) - 1);
 c102f80:	e51b3018 	ldr	r3, [fp, #-24]	; 0xffffffe8
 c102f84:	e1a03a03 	lsl	r3, r3, #20
 c102f88:	e1a03a23 	lsr	r3, r3, #20
 c102f8c:	e50b3018 	str	r3, [fp, #-24]	; 0xffffffe8
    *p++ = '.';

    // Convertir parte decimal a cadena con tres dígitos
    fix32 parte_decimal = f & ((1 << QM) - 1);
    int j;
    for (j = 0; j < 3; ++j) {
 c102f90:	e51b301c 	ldr	r3, [fp, #-28]	; 0xffffffe4
 c102f94:	e2833001 	add	r3, r3, #1
 c102f98:	e50b301c 	str	r3, [fp, #-28]	; 0xffffffe4
 c102f9c:	e51b301c 	ldr	r3, [fp, #-28]	; 0xffffffe4
 c102fa0:	e3530002 	cmp	r3, #2
 c102fa4:	daffffe3 	ble	c102f38 <lcd_putCal_x2+0x178>
        *p++ = '0' + digit;
        parte_decimal &= ((1 << QM) - 1);
    }

    // Añadir terminador nulo
    *p = '\0';
 c102fa8:	e51b3010 	ldr	r3, [fp, #-16]
 c102fac:	e3a02000 	mov	r2, #0
 c102fb0:	e5c32000 	strb	r2, [r3]

    // Manejar el caso de números negativos
    if (negativo) {
 c102fb4:	e55b3011 	ldrb	r3, [fp, #-17]	; 0xffffffef
 c102fb8:	e3530000 	cmp	r3, #0
 c102fbc:	0a000005 	beq	c102fd8 <lcd_putCal_x2+0x218>
        *--p = '-';
 c102fc0:	e51b3010 	ldr	r3, [fp, #-16]
 c102fc4:	e2433001 	sub	r3, r3, #1
 c102fc8:	e50b3010 	str	r3, [fp, #-16]
 c102fcc:	e51b3010 	ldr	r3, [fp, #-16]
 c102fd0:	e3a0202d 	mov	r2, #45	; 0x2d
 c102fd4:	e5c32000 	strb	r2, [r3]
    }

    lcd_puts_x2(x, y, color, buf);
 c102fd8:	e15b03b6 	ldrh	r0, [fp, #-54]	; 0xffffffca
 c102fdc:	e15b13b8 	ldrh	r1, [fp, #-56]	; 0xffffffc8
 c102fe0:	e55b2039 	ldrb	r2, [fp, #-57]	; 0xffffffc7
 c102fe4:	e24b3034 	sub	r3, fp, #52	; 0x34
 c102fe8:	eb000990 	bl	c105630 <lcd_puts_x2>
}
 c102fec:	e24bd00c 	sub	sp, fp, #12
 c102ff0:	e89d6800 	ldm	sp, {fp, sp, lr}
 c102ff4:	e12fff1e 	bx	lr
 c102ff8:	51eb851f 	.word	0x51eb851f
 c102ffc:	66666667 	.word	0x66666667

0c103000 <muestraKilometros>:


void muestraKilometros() {
 c103000:	e1a0c00d 	mov	ip, sp
 c103004:	e92dd800 	push	{fp, ip, lr, pc}
 c103008:	e24cb004 	sub	fp, ip, #4
 c10300c:	e24dd010 	sub	sp, sp, #16
    INT_DISABLE;
 c103010:	e10f0000 	mrs	r0, CPSR
 c103014:	e52d0004 	push	{r0}		; (str r0, [sp, #-4]!)
 c103018:	e38000c0 	orr	r0, r0, #192	; 0xc0
 c10301c:	e121f000 	msr	CPSR_c, r0
    uint16 pasosAux = total_pasos;
 c103020:	e59f30d8 	ldr	r3, [pc, #216]	; c103100 <muestraKilometros+0x100>
 c103024:	e1d330b0 	ldrh	r3, [r3]
 c103028:	e14b30be 	strh	r3, [fp, #-14]
    INT_ENABLE;
 c10302c:	e49d0004 	pop	{r0}		; (ldr r0, [sp], #4)
 c103030:	e121f000 	msr	CPSR_c, r0

    const fix16 metro_por_paso = TOFIX(fix16, 0.7023, QM); // Un paso son 0,7 metros
 c103034:	e59f30c8 	ldr	r3, [pc, #200]	; c103104 <muestraKilometros+0x104>
 c103038:	e14b31b0 	strh	r3, [fp, #-16]

    fix32 kilometros = FDIV(FMUL(metro_por_paso, pasosAux, QM), 1000, QM);
 c10303c:	e15b31f0 	ldrsh	r3, [fp, #-16]
 c103040:	e15b20be 	ldrh	r2, [fp, #-14]
 c103044:	e0030392 	mul	r3, r2, r3
 c103048:	e3c33eff 	bic	r3, r3, #4080	; 0xff0
 c10304c:	e3c3300f 	bic	r3, r3, #15
 c103050:	e59f20b0 	ldr	r2, [pc, #176]	; c103108 <muestraKilometros+0x108>
 c103054:	e0c21293 	smull	r1, r2, r3, r2
 c103058:	e1a02342 	asr	r2, r2, #6
 c10305c:	e1a03fc3 	asr	r3, r3, #31
 c103060:	e0633002 	rsb	r3, r3, r2
 c103064:	e50b3014 	str	r3, [fp, #-20]	; 0xffffffec

    // Convertir PESO_CORPORAL y FACTOR_CALORIAS a fix32
    const fix16 peso_corporal = TOFIX(fix16, PESO_CORPORAL, QM);
 c103068:	e3e03902 	mvn	r3, #32768	; 0x8000
 c10306c:	e14b31b6 	strh	r3, [fp, #-22]	; 0xffffffea
    const fix16 factor_calorias = TOFIX(fix16, 0.200, QM);
 c103070:	e59f3094 	ldr	r3, [pc, #148]	; c10310c <muestraKilometros+0x10c>
 c103074:	e14b31b8 	strh	r3, [fp, #-24]	; 0xffffffe8

    // Calcular las calorías quemadas
    fix32 calorias_quemadas = FDIV(FMUL(kilometros, peso_corporal, QM), factor_calorias, QM);
 c103078:	e15b31f6 	ldrsh	r3, [fp, #-22]	; 0xffffffea
 c10307c:	e51b2014 	ldr	r2, [fp, #-20]	; 0xffffffec
 c103080:	e0030392 	mul	r3, r2, r3
 c103084:	e3c33eff 	bic	r3, r3, #4080	; 0xff0
 c103088:	e3c3300f 	bic	r3, r3, #15
 c10308c:	e15b21f8 	ldrsh	r2, [fp, #-24]	; 0xffffffe8
 c103090:	e1a00003 	mov	r0, r3
 c103094:	e1a01002 	mov	r1, r2
 c103098:	eb001843 	bl	c1091ac <__aeabi_idiv>
 c10309c:	e1a03000 	mov	r3, r0
 c1030a0:	e50b301c 	str	r3, [fp, #-28]	; 0xffffffe4

    lcd_puts(38, 50, BLACK, "kilometros");
 c1030a4:	e3a00026 	mov	r0, #38	; 0x26
 c1030a8:	e3a01032 	mov	r1, #50	; 0x32
 c1030ac:	e3a0200f 	mov	r2, #15
 c1030b0:	e59f3058 	ldr	r3, [pc, #88]	; c103110 <muestraKilometros+0x110>
 c1030b4:	eb000862 	bl	c105244 <lcd_puts>
    // Mostrar el resultado en la pantalla LCD
    lcd_putKm_x2(38,65, BLACK, kilometros);
 c1030b8:	e3a00026 	mov	r0, #38	; 0x26
 c1030bc:	e3a01041 	mov	r1, #65	; 0x41
 c1030c0:	e3a0200f 	mov	r2, #15
 c1030c4:	e51b3014 	ldr	r3, [fp, #-20]	; 0xffffffec
 c1030c8:	ebfffeb5 	bl	c102ba4 <lcd_putKm_x2>

    lcd_puts(160,50, BLACK, "Calorias quemadas");
 c1030cc:	e3a000a0 	mov	r0, #160	; 0xa0
 c1030d0:	e3a01032 	mov	r1, #50	; 0x32
 c1030d4:	e3a0200f 	mov	r2, #15
 c1030d8:	e59f3034 	ldr	r3, [pc, #52]	; c103114 <muestraKilometros+0x114>
 c1030dc:	eb000858 	bl	c105244 <lcd_puts>
    lcd_putCal_x2(160, 65, BLACK, calorias_quemadas);
 c1030e0:	e3a000a0 	mov	r0, #160	; 0xa0
 c1030e4:	e3a01041 	mov	r1, #65	; 0x41
 c1030e8:	e3a0200f 	mov	r2, #15
 c1030ec:	e51b301c 	ldr	r3, [fp, #-28]	; 0xffffffe4
 c1030f0:	ebffff32 	bl	c102dc0 <lcd_putCal_x2>
}
 c1030f4:	e24bd00c 	sub	sp, fp, #12
 c1030f8:	e89d6800 	ldm	sp, {fp, sp, lr}
 c1030fc:	e12fff1e 	bx	lr
 c103100:	0c10bdb8 	.word	0x0c10bdb8
 c103104:	00000b3c 	.word	0x00000b3c
 c103108:	10624dd3 	.word	0x10624dd3
 c10310c:	00000333 	.word	0x00000333
 c103110:	0c109ed4 	.word	0x0c109ed4
 c103114:	0c109ee0 	.word	0x0c109ee0

0c103118 <modoDeporte>:


void modoDeporte( void ){
 c103118:	e1a0c00d 	mov	ip, sp
 c10311c:	e92dd800 	push	{fp, ip, lr, pc}
 c103120:	e24cb004 	sub	fp, ip, #4
 c103124:	e24dd010 	sub	sp, sp, #16
		boolean volverMenuPrincipal = FALSE;
 c103128:	e3a03000 	mov	r3, #0
 c10312c:	e54b300d 	strb	r3, [fp, #-13]
		boolean pintadoInicial = TRUE;
 c103130:	e3a03001 	mov	r3, #1
 c103134:	e54b300e 	strb	r3, [fp, #-14]
		uint16 x, y;

		//Limpiamos el menu principal
		lcd_clear();
 c103138:	eb0006f0 	bl	c104d00 <lcd_clear>
		lcd_draw_box( 10, 10, 310, 230, BLACK, 5 );
 c10313c:	e3a0300f 	mov	r3, #15
 c103140:	e58d3000 	str	r3, [sp]
 c103144:	e3a03005 	mov	r3, #5
 c103148:	e58d3004 	str	r3, [sp, #4]
 c10314c:	e3a0000a 	mov	r0, #10
 c103150:	e3a0100a 	mov	r1, #10
 c103154:	e59f219c 	ldr	r2, [pc, #412]	; c1032f8 <modoDeporte+0x1e0>
 c103158:	e3a030e6 	mov	r3, #230	; 0xe6
 c10315c:	eb0007b4 	bl	c105034 <lcd_draw_box>


		while(!volverMenuPrincipal){
 c103160:	ea00005a 	b	c1032d0 <modoDeporte+0x1b8>

			//Aqui pintamos las cosas que no se actualizan
			if(pintadoInicial){
 c103164:	e55b300e 	ldrb	r3, [fp, #-14]
 c103168:	e3530000 	cmp	r3, #0
 c10316c:	0a00000d 	beq	c1031a8 <modoDeporte+0x90>

				//Mostrar opcion cambiar fecha
				lcd_draw_box(170, 12, 310, 40, BLACK, 3);
 c103170:	e3a0300f 	mov	r3, #15
 c103174:	e58d3000 	str	r3, [sp]
 c103178:	e3a03003 	mov	r3, #3
 c10317c:	e58d3004 	str	r3, [sp, #4]
 c103180:	e3a000aa 	mov	r0, #170	; 0xaa
 c103184:	e3a0100c 	mov	r1, #12
 c103188:	e59f2168 	ldr	r2, [pc, #360]	; c1032f8 <modoDeporte+0x1e0>
 c10318c:	e3a03028 	mov	r3, #40	; 0x28
 c103190:	eb0007a7 	bl	c105034 <lcd_draw_box>
				lcd_puts(180, 20, BLACK, "Menu principal");
 c103194:	e3a000b4 	mov	r0, #180	; 0xb4
 c103198:	e3a01014 	mov	r1, #20
 c10319c:	e3a0200f 	mov	r2, #15
 c1031a0:	e59f3154 	ldr	r3, [pc, #340]	; c1032fc <modoDeporte+0x1e4>
 c1031a4:	eb000826 	bl	c105244 <lcd_puts>

			}

			INT_DISABLE;
 c1031a8:	e10f0000 	mrs	r0, CPSR
 c1031ac:	e52d0004 	push	{r0}		; (str r0, [sp, #-4]!)
 c1031b0:	e38000c0 	orr	r0, r0, #192	; 0xc0
 c1031b4:	e121f000 	msr	CPSR_c, r0
			lcd_puts(30, 115, BLACK, "Pasos totales:");
 c1031b8:	e3a0001e 	mov	r0, #30
 c1031bc:	e3a01073 	mov	r1, #115	; 0x73
 c1031c0:	e3a0200f 	mov	r2, #15
 c1031c4:	e59f3134 	ldr	r3, [pc, #308]	; c103300 <modoDeporte+0x1e8>
 c1031c8:	eb00081d 	bl	c105244 <lcd_puts>
			lcd_putint(145, 115, BLACK, (int32) total_pasos);
 c1031cc:	e59f3130 	ldr	r3, [pc, #304]	; c103304 <modoDeporte+0x1ec>
 c1031d0:	e1d330b0 	ldrh	r3, [r3]
 c1031d4:	e1a03803 	lsl	r3, r3, #16
 c1031d8:	e1a03823 	lsr	r3, r3, #16
 c1031dc:	e3a00091 	mov	r0, #145	; 0x91
 c1031e0:	e3a01073 	mov	r1, #115	; 0x73
 c1031e4:	e3a0200f 	mov	r2, #15
 c1031e8:	eb000832 	bl	c1052b8 <lcd_putint>

			lcd_puts(30, 140, BLACK, "Pasos por minuto:");
 c1031ec:	e3a0001e 	mov	r0, #30
 c1031f0:	e3a0108c 	mov	r1, #140	; 0x8c
 c1031f4:	e3a0200f 	mov	r2, #15
 c1031f8:	e59f3108 	ldr	r3, [pc, #264]	; c103308 <modoDeporte+0x1f0>
 c1031fc:	eb000810 	bl	c105244 <lcd_puts>
			lcd_putint(170, 140, BLACK, (int32) pasosPorMin);
 c103200:	e59f3104 	ldr	r3, [pc, #260]	; c10330c <modoDeporte+0x1f4>
 c103204:	e1d330b0 	ldrh	r3, [r3]
 c103208:	e1a03803 	lsl	r3, r3, #16
 c10320c:	e1a03823 	lsr	r3, r3, #16
 c103210:	e3a000aa 	mov	r0, #170	; 0xaa
 c103214:	e3a0108c 	mov	r1, #140	; 0x8c
 c103218:	e3a0200f 	mov	r2, #15
 c10321c:	eb000825 	bl	c1052b8 <lcd_putint>

			lcd_puts(30, 165, BLACK, "Latidos por minuto:");
 c103220:	e3a0001e 	mov	r0, #30
 c103224:	e3a010a5 	mov	r1, #165	; 0xa5
 c103228:	e3a0200f 	mov	r2, #15
 c10322c:	e59f30dc 	ldr	r3, [pc, #220]	; c103310 <modoDeporte+0x1f8>
 c103230:	eb000803 	bl	c105244 <lcd_puts>
			lcd_putint(190, 165, BLACK, (int32) latidosPorMin);
 c103234:	e59f30d8 	ldr	r3, [pc, #216]	; c103314 <modoDeporte+0x1fc>
 c103238:	e1d330b0 	ldrh	r3, [r3]
 c10323c:	e1a03803 	lsl	r3, r3, #16
 c103240:	e1a03823 	lsr	r3, r3, #16
 c103244:	e3a000be 	mov	r0, #190	; 0xbe
 c103248:	e3a010a5 	mov	r1, #165	; 0xa5
 c10324c:	e3a0200f 	mov	r2, #15
 c103250:	eb000818 	bl	c1052b8 <lcd_putint>
			INT_ENABLE;
 c103254:	e49d0004 	pop	{r0}		; (ldr r0, [sp], #4)
 c103258:	e121f000 	msr	CPSR_c, r0
			// Mostrar opcion contador pasos




			muestraKilometros();
 c10325c:	ebffff67 	bl	c103000 <muestraKilometros>

			//Para que no se quede el programa congelado esperando que el usuario presione la pantalla
			if(ts_pressed()){
 c103260:	eb001390 	bl	c1080a8 <ts_pressed>
 c103264:	e1a03000 	mov	r3, r0
 c103268:	e3530000 	cmp	r3, #0
 c10326c:	0a000004 	beq	c103284 <modoDeporte+0x16c>
				ts_getpos(&x,&y);
 c103270:	e24b2010 	sub	r2, fp, #16
 c103274:	e24b3012 	sub	r3, fp, #18
 c103278:	e1a00002 	mov	r0, r2
 c10327c:	e1a01003 	mov	r1, r3
 c103280:	eb00140f 	bl	c1082c4 <ts_getpos>
			}

			if( x>170 && y>12 && x<310 && y<40 )
 c103284:	e15b31b0 	ldrh	r3, [fp, #-16]
 c103288:	e35300aa 	cmp	r3, #170	; 0xaa
 c10328c:	9a00000f 	bls	c1032d0 <modoDeporte+0x1b8>
 c103290:	e15b31b2 	ldrh	r3, [fp, #-18]	; 0xffffffee
 c103294:	e353000c 	cmp	r3, #12
 c103298:	9a00000c 	bls	c1032d0 <modoDeporte+0x1b8>
 c10329c:	e15b21b0 	ldrh	r2, [fp, #-16]
 c1032a0:	e59f3070 	ldr	r3, [pc, #112]	; c103318 <modoDeporte+0x200>
 c1032a4:	e1520003 	cmp	r2, r3
 c1032a8:	8a000008 	bhi	c1032d0 <modoDeporte+0x1b8>
 c1032ac:	e15b31b2 	ldrh	r3, [fp, #-18]	; 0xffffffee
 c1032b0:	e3530027 	cmp	r3, #39	; 0x27
 c1032b4:	8a000005 	bhi	c1032d0 <modoDeporte+0x1b8>
				{
					x=0;
 c1032b8:	e3a03000 	mov	r3, #0
 c1032bc:	e14b31b0 	strh	r3, [fp, #-16]
					y = 0;
 c1032c0:	e3a03000 	mov	r3, #0
 c1032c4:	e14b31b2 	strh	r3, [fp, #-18]	; 0xffffffee
					volverMenuPrincipal = TRUE;
 c1032c8:	e3a03001 	mov	r3, #1
 c1032cc:	e54b300d 	strb	r3, [fp, #-13]
		//Limpiamos el menu principal
		lcd_clear();
		lcd_draw_box( 10, 10, 310, 230, BLACK, 5 );


		while(!volverMenuPrincipal){
 c1032d0:	e55b300d 	ldrb	r3, [fp, #-13]
 c1032d4:	e3530000 	cmp	r3, #0
 c1032d8:	0affffa1 	beq	c103164 <modoDeporte+0x4c>
				}



			}
			pintarMenuPrincipal = TRUE;
 c1032dc:	e59f3038 	ldr	r3, [pc, #56]	; c10331c <modoDeporte+0x204>
 c1032e0:	e3a02001 	mov	r2, #1
 c1032e4:	e5c32000 	strb	r2, [r3]
			lcd_clear();
 c1032e8:	eb000684 	bl	c104d00 <lcd_clear>
}
 c1032ec:	e24bd00c 	sub	sp, fp, #12
 c1032f0:	e89d6800 	ldm	sp, {fp, sp, lr}
 c1032f4:	e12fff1e 	bx	lr
 c1032f8:	00000136 	.word	0x00000136
 c1032fc:	0c109dbc 	.word	0x0c109dbc
 c103300:	0c109ef4 	.word	0x0c109ef4
 c103304:	0c10bdb8 	.word	0x0c10bdb8
 c103308:	0c109f04 	.word	0x0c109f04
 c10330c:	0c10bdc4 	.word	0x0c10bdc4
 c103310:	0c109f18 	.word	0x0c109f18
 c103314:	0c10bda0 	.word	0x0c10bda0
 c103318:	00000135 	.word	0x00000135
 c10331c:	0c10b970 	.word	0x0c10b970

0c103320 <one_second_loop>:


void one_second_loop( void )
{
 c103320:	e1a0c00d 	mov	ip, sp
 c103324:	e92dd800 	push	{fp, ip, lr, pc}
 c103328:	e24cb004 	sub	fp, ip, #4
 c10332c:	e24dd008 	sub	sp, sp, #8
    uint32 i;

    for( i=591436; i; i-- );
 c103330:	e59f3028 	ldr	r3, [pc, #40]	; c103360 <one_second_loop+0x40>
 c103334:	e50b3010 	str	r3, [fp, #-16]
 c103338:	ea000002 	b	c103348 <one_second_loop+0x28>
 c10333c:	e51b3010 	ldr	r3, [fp, #-16]
 c103340:	e2433001 	sub	r3, r3, #1
 c103344:	e50b3010 	str	r3, [fp, #-16]
 c103348:	e51b3010 	ldr	r3, [fp, #-16]
 c10334c:	e3530000 	cmp	r3, #0
 c103350:	1afffff9 	bne	c10333c <one_second_loop+0x1c>
}
 c103354:	e24bd00c 	sub	sp, fp, #12
 c103358:	e89d6800 	ldm	sp, {fp, sp, lr}
 c10335c:	e12fff1e 	bx	lr
 c103360:	0009064c 	.word	0x0009064c

0c103364 <beatHandler>:

/*--------------------Funciones para las interrupciones--------------------*/
void beatHandler( void )
{
 c103364:	e52dc004 	push	{ip}		; (str ip, [sp, #-4]!)
 c103368:	e1a0c00d 	mov	ip, sp
 c10336c:	e92dd80c 	push	{r2, r3, fp, ip, lr, pc}
 c103370:	e24cb004 	sub	fp, ip, #4
    newBeat = TRUE;
 c103374:	e59f3044 	ldr	r3, [pc, #68]	; c1033c0 <beatHandler+0x5c>
 c103378:	e3a02001 	mov	r2, #1
 c10337c:	e5c32000 	strb	r2, [r3]
    I_ISPC  = BIT_BEATEMULATOR;
 c103380:	e59f303c 	ldr	r3, [pc, #60]	; c1033c4 <beatHandler+0x60>
 c103384:	e3a02b01 	mov	r2, #1024	; 0x400
 c103388:	e5832000 	str	r2, [r3]
    contador_latidos++;
 c10338c:	e59f3034 	ldr	r3, [pc, #52]	; c1033c8 <beatHandler+0x64>
 c103390:	e1d330b0 	ldrh	r3, [r3]
 c103394:	e1a03803 	lsl	r3, r3, #16
 c103398:	e1a03823 	lsr	r3, r3, #16
 c10339c:	e2833001 	add	r3, r3, #1
 c1033a0:	e1a03803 	lsl	r3, r3, #16
 c1033a4:	e1a02823 	lsr	r2, r3, #16
 c1033a8:	e59f3018 	ldr	r3, [pc, #24]	; c1033c8 <beatHandler+0x64>
 c1033ac:	e1c320b0 	strh	r2, [r3]
}
 c1033b0:	e24bd014 	sub	sp, fp, #20
 c1033b4:	e89d680c 	ldm	sp, {r2, r3, fp, sp, lr}
 c1033b8:	e49dc004 	pop	{ip}		; (ldr ip, [sp], #4)
 c1033bc:	e25ef004 	subs	pc, lr, #4
 c1033c0:	0c10b974 	.word	0x0c10b974
 c1033c4:	01e00024 	.word	0x01e00024
 c1033c8:	0c10bd9c 	.word	0x0c10bd9c

0c1033cc <stepHandler>:

void stepHandler( void )
{
 c1033cc:	e52dc004 	push	{ip}		; (str ip, [sp, #-4]!)
 c1033d0:	e1a0c00d 	mov	ip, sp
 c1033d4:	e92dd80c 	push	{r2, r3, fp, ip, lr, pc}
 c1033d8:	e24cb004 	sub	fp, ip, #4
    newStep = TRUE;
 c1033dc:	e59f3068 	ldr	r3, [pc, #104]	; c10344c <stepHandler+0x80>
 c1033e0:	e3a02001 	mov	r2, #1
 c1033e4:	e5c32000 	strb	r2, [r3]
    I_ISPC  = BIT_STEPEMULATOR;
 c1033e8:	e59f3060 	ldr	r3, [pc, #96]	; c103450 <stepHandler+0x84>
 c1033ec:	e3a02b02 	mov	r2, #2048	; 0x800
 c1033f0:	e5832000 	str	r2, [r3]
    contador_pasos++;
 c1033f4:	e59f3058 	ldr	r3, [pc, #88]	; c103454 <stepHandler+0x88>
 c1033f8:	e1d330b0 	ldrh	r3, [r3]
 c1033fc:	e1a03803 	lsl	r3, r3, #16
 c103400:	e1a03823 	lsr	r3, r3, #16
 c103404:	e2833001 	add	r3, r3, #1
 c103408:	e1a03803 	lsl	r3, r3, #16
 c10340c:	e1a02823 	lsr	r2, r3, #16
 c103410:	e59f303c 	ldr	r3, [pc, #60]	; c103454 <stepHandler+0x88>
 c103414:	e1c320b0 	strh	r2, [r3]
    total_pasos++;
 c103418:	e59f3038 	ldr	r3, [pc, #56]	; c103458 <stepHandler+0x8c>
 c10341c:	e1d330b0 	ldrh	r3, [r3]
 c103420:	e1a03803 	lsl	r3, r3, #16
 c103424:	e1a03823 	lsr	r3, r3, #16
 c103428:	e2833001 	add	r3, r3, #1
 c10342c:	e1a03803 	lsl	r3, r3, #16
 c103430:	e1a02823 	lsr	r2, r3, #16
 c103434:	e59f301c 	ldr	r3, [pc, #28]	; c103458 <stepHandler+0x8c>
 c103438:	e1c320b0 	strh	r2, [r3]
}
 c10343c:	e24bd014 	sub	sp, fp, #20
 c103440:	e89d680c 	ldm	sp, {r2, r3, fp, sp, lr}
 c103444:	e49dc004 	pop	{ip}		; (ldr ip, [sp], #4)
 c103448:	e25ef004 	subs	pc, lr, #4
 c10344c:	0c10b975 	.word	0x0c10b975
 c103450:	01e00024 	.word	0x01e00024
 c103454:	0c10bdac 	.word	0x0c10bdac
 c103458:	0c10bdb8 	.word	0x0c10bdb8

0c10345c <isr_tick>:
void isr_tick( void )
{
 c10345c:	e52dc004 	push	{ip}		; (str ip, [sp, #-4]!)
 c103460:	e1a0c00d 	mov	ip, sp
 c103464:	e92dd80f 	push	{r0, r1, r2, r3, fp, ip, lr, pc}
 c103468:	e24cb004 	sub	fp, ip, #4
    flagRtc = TRUE;
 c10346c:	e59f3048 	ldr	r3, [pc, #72]	; c1034bc <isr_tick+0x60>
 c103470:	e3a02001 	mov	r2, #1
 c103474:	e5c32000 	strb	r2, [r3]
    I_ISPC = BIT_TICK;
 c103478:	e59f3040 	ldr	r3, [pc, #64]	; c1034c0 <isr_tick+0x64>
 c10347c:	e3a02601 	mov	r2, #1048576	; 0x100000
 c103480:	e5832000 	str	r2, [r3]
    segundos_transcurridos++;
 c103484:	e59f3038 	ldr	r3, [pc, #56]	; c1034c4 <isr_tick+0x68>
 c103488:	e1d330b0 	ldrh	r3, [r3]
 c10348c:	e1a03803 	lsl	r3, r3, #16
 c103490:	e1a03823 	lsr	r3, r3, #16
 c103494:	e2833001 	add	r3, r3, #1
 c103498:	e1a03803 	lsl	r3, r3, #16
 c10349c:	e1a02823 	lsr	r2, r3, #16
 c1034a0:	e59f301c 	ldr	r3, [pc, #28]	; c1034c4 <isr_tick+0x68>
 c1034a4:	e1c320b0 	strh	r2, [r3]
    funcionalidadComun();
 c1034a8:	ebfff320 	bl	c100130 <funcionalidadComun>
}
 c1034ac:	e24bd01c 	sub	sp, fp, #28
 c1034b0:	e89d680f 	ldm	sp, {r0, r1, r2, r3, fp, sp, lr}
 c1034b4:	e49dc004 	pop	{ip}		; (ldr ip, [sp], #4)
 c1034b8:	e25ef004 	subs	pc, lr, #4
 c1034bc:	0c10b979 	.word	0x0c10b979
 c1034c0:	01e00024 	.word	0x01e00024
 c1034c4:	0c10bd9e 	.word	0x0c10bd9e

0c1034c8 <isr_timer0>:

void isr_timer0( void )
{
 c1034c8:	e52dc004 	push	{ip}		; (str ip, [sp, #-4]!)
 c1034cc:	e1a0c00d 	mov	ip, sp
 c1034d0:	e92dd80c 	push	{r2, r3, fp, ip, lr, pc}
 c1034d4:	e24cb004 	sub	fp, ip, #4
    flagTimer0 = TRUE;
 c1034d8:	e59f3020 	ldr	r3, [pc, #32]	; c103500 <isr_timer0+0x38>
 c1034dc:	e3a02001 	mov	r2, #1
 c1034e0:	e5c32000 	strb	r2, [r3]
    I_ISPC = BIT_TIMER0;
 c1034e4:	e59f3018 	ldr	r3, [pc, #24]	; c103504 <isr_timer0+0x3c>
 c1034e8:	e3a02a02 	mov	r2, #8192	; 0x2000
 c1034ec:	e5832000 	str	r2, [r3]
}
 c1034f0:	e24bd014 	sub	sp, fp, #20
 c1034f4:	e89d680c 	ldm	sp, {r2, r3, fp, sp, lr}
 c1034f8:	e49dc004 	pop	{ip}		; (ldr ip, [sp], #4)
 c1034fc:	e25ef004 	subs	pc, lr, #4
 c103500:	0c10b976 	.word	0x0c10b976
 c103504:	01e00024 	.word	0x01e00024

0c103508 <isr_keypad>:

void isr_keypad( void )
{
 c103508:	e52dc004 	push	{ip}		; (str ip, [sp, #-4]!)
 c10350c:	e1a0c00d 	mov	ip, sp
 c103510:	e92dd80c 	push	{r2, r3, fp, ip, lr, pc}
 c103514:	e24cb004 	sub	fp, ip, #4
    flagKeypad = TRUE;
 c103518:	e59f3020 	ldr	r3, [pc, #32]	; c103540 <isr_keypad+0x38>
 c10351c:	e3a02001 	mov	r2, #1
 c103520:	e5c32000 	strb	r2, [r3]
    I_ISPC = BIT_KEYPAD;
 c103524:	e59f3018 	ldr	r3, [pc, #24]	; c103544 <isr_keypad+0x3c>
 c103528:	e3a02401 	mov	r2, #16777216	; 0x1000000
 c10352c:	e5832000 	str	r2, [r3]
}
 c103530:	e24bd014 	sub	sp, fp, #20
 c103534:	e89d680c 	ldm	sp, {r2, r3, fp, sp, lr}
 c103538:	e49dc004 	pop	{ip}		; (ldr ip, [sp], #4)
 c10353c:	e25ef004 	subs	pc, lr, #4
 c103540:	0c10b977 	.word	0x0c10b977
 c103544:	01e00024 	.word	0x01e00024

0c103548 <isr_pbs>:

void isr_pbs( void )
{
 c103548:	e52dc004 	push	{ip}		; (str ip, [sp, #-4]!)
 c10354c:	e1a0c00d 	mov	ip, sp
 c103550:	e92dd80c 	push	{r2, r3, fp, ip, lr, pc}
 c103554:	e24cb004 	sub	fp, ip, #4
	EXTINTPND = BIT_RIGHTPB | BIT_LEFTPB;
 c103558:	e59f302c 	ldr	r3, [pc, #44]	; c10358c <isr_pbs+0x44>
 c10355c:	e3a0200c 	mov	r2, #12
 c103560:	e5832000 	str	r2, [r3]
    flagPbs = TRUE;
 c103564:	e59f3024 	ldr	r3, [pc, #36]	; c103590 <isr_pbs+0x48>
 c103568:	e3a02001 	mov	r2, #1
 c10356c:	e5c32000 	strb	r2, [r3]
    I_ISPC = BIT_PB;
 c103570:	e59f301c 	ldr	r3, [pc, #28]	; c103594 <isr_pbs+0x4c>
 c103574:	e3a02602 	mov	r2, #2097152	; 0x200000
 c103578:	e5832000 	str	r2, [r3]
}
 c10357c:	e24bd014 	sub	sp, fp, #20
 c103580:	e89d680c 	ldm	sp, {r2, r3, fp, sp, lr}
 c103584:	e49dc004 	pop	{ip}		; (ldr ip, [sp], #4)
 c103588:	e25ef004 	subs	pc, lr, #4
 c10358c:	01d20054 	.word	0x01d20054
 c103590:	0c10b978 	.word	0x0c10b978
 c103594:	01e00024 	.word	0x01e00024

0c103598 <startSensorsEmulator>:

/*******************************************************************/


void startSensorsEmulator( void (*isrBeat)(void), void (*isrStep)(void), uint8 beatPerMin, uint8 stepPerMin )
{
 c103598:	e1a0c00d 	mov	ip, sp
 c10359c:	e92dd800 	push	{fp, ip, lr, pc}
 c1035a0:	e24cb004 	sub	fp, ip, #4
 c1035a4:	e24dd010 	sub	sp, sp, #16
 c1035a8:	e50b0010 	str	r0, [fp, #-16]
 c1035ac:	e50b1014 	str	r1, [fp, #-20]	; 0xffffffec
 c1035b0:	e54b2015 	strb	r2, [fp, #-21]	; 0xffffffeb
 c1035b4:	e54b3016 	strb	r3, [fp, #-22]	; 0xffffffea

	latidosPorMin = beatPerMin;
 c1035b8:	e59f3254 	ldr	r3, [pc, #596]	; c103814 <startSensorsEmulator+0x27c>
 c1035bc:	e55b2015 	ldrb	r2, [fp, #-21]	; 0xffffffeb
 c1035c0:	e5c32000 	strb	r2, [r3]
	pasosPorMin   = stepPerMin;
 c1035c4:	e59f324c 	ldr	r3, [pc, #588]	; c103818 <startSensorsEmulator+0x280>
 c1035c8:	e55b2016 	ldrb	r2, [fp, #-22]	; 0xffffffea
 c1035cc:	e5c32000 	strb	r2, [r3]

    CLKCON |= (1<<10) | (1<<8) | (1<<7) | (1 << 3);            // Activa GPIO, UART0, BDMA y TIMER
 c1035d0:	e59f2244 	ldr	r2, [pc, #580]	; c10381c <startSensorsEmulator+0x284>
 c1035d4:	e59f3240 	ldr	r3, [pc, #576]	; c10381c <startSensorsEmulator+0x284>
 c1035d8:	e5933000 	ldr	r3, [r3]
 c1035dc:	e3833d16 	orr	r3, r3, #1408	; 0x580
 c1035e0:	e3833008 	orr	r3, r3, #8
 c1035e4:	e5823000 	str	r3, [r2]

	PCONE = (PCONE & ~(0xf<<2)) | (2<<4) | (2<<2); 	           // PE[2] = RxD0, PE[1] = TxD0
 c1035e8:	e59f3230 	ldr	r3, [pc, #560]	; c103820 <startSensorsEmulator+0x288>
 c1035ec:	e59f222c 	ldr	r2, [pc, #556]	; c103820 <startSensorsEmulator+0x288>
 c1035f0:	e5922000 	ldr	r2, [r2]
 c1035f4:	e3c2203c 	bic	r2, r2, #60	; 0x3c
 c1035f8:	e3822028 	orr	r2, r2, #40	; 0x28
 c1035fc:	e5832000 	str	r2, [r3]
	PUPE  |= (1<<2) | (1<<1);						           // Pull-up disable
 c103600:	e59f321c 	ldr	r3, [pc, #540]	; c103824 <startSensorsEmulator+0x28c>
 c103604:	e59f2218 	ldr	r2, [pc, #536]	; c103824 <startSensorsEmulator+0x28c>
 c103608:	e5922000 	ldr	r2, [r2]
 c10360c:	e3822006 	orr	r2, r2, #6
 c103610:	e5832000 	str	r2, [r3]

	UFCON0 = 0;	                                               // FIFOs desactivadas, para activarlas UFCON0 = 1
 c103614:	e59f320c 	ldr	r3, [pc, #524]	; c103828 <startSensorsEmulator+0x290>
 c103618:	e3a02000 	mov	r2, #0
 c10361c:	e5832000 	str	r2, [r3]
	UMCON0 = 0;	                                               // Control de flujo manual
 c103620:	e59f3204 	ldr	r3, [pc, #516]	; c10382c <startSensorsEmulator+0x294>
 c103624:	e3a02000 	mov	r2, #0
 c103628:	e5832000 	str	r2, [r3]
	ULCON0 = (0 << 6) | (0 << 3) | (0 << 2) | (3);   		   // normal (no infrarojos), sin paridad, 1 bit de stop, 8 bits de datos
 c10362c:	e3a0361d 	mov	r3, #30408704	; 0x1d00000
 c103630:	e3a02003 	mov	r2, #3
 c103634:	e5832000 	str	r2, [r3]
	UBRDIV0 = 34;                                              // 115200 baudios asumiendo 64MHz
 c103638:	e59f31f0 	ldr	r3, [pc, #496]	; c103830 <startSensorsEmulator+0x298>
 c10363c:	e3a02022 	mov	r2, #34	; 0x22
 c103640:	e5832000 	str	r2, [r3]
	UCON0 = (0 << 9) | (0 << 8)| (1 << 2) | (1);			   // Tx pulso, Rx pulso, Tx int/polling, Rx int/polling
 c103644:	e59f31e8 	ldr	r3, [pc, #488]	; c103834 <startSensorsEmulator+0x29c>
 c103648:	e3a02005 	mov	r2, #5
 c10364c:	e5832000 	str	r2, [r3]

	fifo_init( &fifoTX );
 c103650:	e59f01e0 	ldr	r0, [pc, #480]	; c103838 <startSensorsEmulator+0x2a0>
 c103654:	eb000343 	bl	c104368 <fifo_init>

	pISR_URXD0 = (uint32) uart0int_isrRX;	 			       // Instala la rutina de tratamiento de recepción
 c103658:	e59f31dc 	ldr	r3, [pc, #476]	; c10383c <startSensorsEmulator+0x2a4>
 c10365c:	e59f21dc 	ldr	r2, [pc, #476]	; c103840 <startSensorsEmulator+0x2a8>
 c103660:	e5832000 	str	r2, [r3]
	pISR_UTXD0 = (uint32) uart0int_isrTX;	 			       // Instala la rutina de tratamiento de transmisión
 c103664:	e59f31d8 	ldr	r3, [pc, #472]	; c103844 <startSensorsEmulator+0x2ac>
 c103668:	e59f21d8 	ldr	r2, [pc, #472]	; c103848 <startSensorsEmulator+0x2b0>
 c10366c:	e5832000 	str	r2, [r3]
	I_ISPC	   = (BIT_URXD0 | BIT_UTXD0);		               // Borra los bits de interrupción pendiente
 c103670:	e59f31d4 	ldr	r3, [pc, #468]	; c10384c <startSensorsEmulator+0x2b4>
 c103674:	e3a02088 	mov	r2, #136	; 0x88
 c103678:	e5832000 	str	r2, [r3]
	INTMSK    &= ~( BIT_GLOBAL | BIT_URXD0 | BIT_UTXD0 );	   // Desenmascara globalmente las interrupciones y específicamente las interrupciones RX y Tx del UART0
 c10367c:	e59f21cc 	ldr	r2, [pc, #460]	; c103850 <startSensorsEmulator+0x2b8>
 c103680:	e59f31c8 	ldr	r3, [pc, #456]	; c103850 <startSensorsEmulator+0x2b8>
 c103684:	e5933000 	ldr	r3, [r3]
 c103688:	e3c33301 	bic	r3, r3, #67108864	; 0x4000000
 c10368c:	e3c33088 	bic	r3, r3, #136	; 0x88
 c103690:	e5823000 	str	r3, [r2]


	TCFG0 = (TCFG0 & ~(0xff << 8)) | (199 << 8);               // T3-T2 PRESCALER = 199 (1/(199+1))
 c103694:	e59f31b8 	ldr	r3, [pc, #440]	; c103854 <startSensorsEmulator+0x2bc>
 c103698:	e59f21b4 	ldr	r2, [pc, #436]	; c103854 <startSensorsEmulator+0x2bc>
 c10369c:	e5922000 	ldr	r2, [r2]
 c1036a0:	e3c22cff 	bic	r2, r2, #65280	; 0xff00
 c1036a4:	e3822cc7 	orr	r2, r2, #50944	; 0xc700
 c1036a8:	e5832000 	str	r2, [r3]
    TCFG1 = (TCFG1 & ~(0xf << 12)) | (4 << 12);                // T3 DIVISOR = 32 (1/32)
 c1036ac:	e59f31a4 	ldr	r3, [pc, #420]	; c103858 <startSensorsEmulator+0x2c0>
 c1036b0:	e59f21a0 	ldr	r2, [pc, #416]	; c103858 <startSensorsEmulator+0x2c0>
 c1036b4:	e5922000 	ldr	r2, [r2]
 c1036b8:	e3c22a0f 	bic	r2, r2, #61440	; 0xf000
 c1036bc:	e3822901 	orr	r2, r2, #16384	; 0x4000
 c1036c0:	e5832000 	str	r2, [r3]
    TCFG1 = (TCFG1 & ~(0xf << 8))  | (4 << 8);                 // T2 DIVISOR = 32 (1/32)
 c1036c4:	e59f318c 	ldr	r3, [pc, #396]	; c103858 <startSensorsEmulator+0x2c0>
 c1036c8:	e59f2188 	ldr	r2, [pc, #392]	; c103858 <startSensorsEmulator+0x2c0>
 c1036cc:	e5922000 	ldr	r2, [r2]
 c1036d0:	e3c22c0f 	bic	r2, r2, #3840	; 0xf00
 c1036d4:	e3822b01 	orr	r2, r2, #1024	; 0x400
 c1036d8:	e5832000 	str	r2, [r3]
    
    INTMSK |= ( BIT_TIMER3 | BIT_TIMER2 );                     // Enmascara la interrupcion por fin de T3 y T2
 c1036dc:	e59f316c 	ldr	r3, [pc, #364]	; c103850 <startSensorsEmulator+0x2b8>
 c1036e0:	e59f2168 	ldr	r2, [pc, #360]	; c103850 <startSensorsEmulator+0x2b8>
 c1036e4:	e5922000 	ldr	r2, [r2]
 c1036e8:	e3822b03 	orr	r2, r2, #3072	; 0xc00
 c1036ec:	e5832000 	str	r2, [r3]

    pISR_TIMER3 = (uint32) isrBeat;                            // Instala la funcion isr como RTI por fin de cuenta de T3
 c1036f0:	e59f3164 	ldr	r3, [pc, #356]	; c10385c <startSensorsEmulator+0x2c4>
 c1036f4:	e51b2010 	ldr	r2, [fp, #-16]
 c1036f8:	e5832000 	str	r2, [r3]
    pISR_TIMER2 = (uint32) isrStep;                            // Instala la funcion isr como RTI por fin de cuenta de T2
 c1036fc:	e59f315c 	ldr	r3, [pc, #348]	; c103860 <startSensorsEmulator+0x2c8>
 c103700:	e51b2014 	ldr	r2, [fp, #-20]	; 0xffffffec
 c103704:	e5832000 	str	r2, [r3]

    TCNTB3  = cntb[latidosPorMin];                             // Carga T3
 c103708:	e59f3154 	ldr	r3, [pc, #340]	; c103864 <startSensorsEmulator+0x2cc>
 c10370c:	e59f2100 	ldr	r2, [pc, #256]	; c103814 <startSensorsEmulator+0x27c>
 c103710:	e5d22000 	ldrb	r2, [r2]
 c103714:	e20220ff 	and	r2, r2, #255	; 0xff
 c103718:	e59f1148 	ldr	r1, [pc, #328]	; c103868 <startSensorsEmulator+0x2d0>
 c10371c:	e1a02082 	lsl	r2, r2, #1
 c103720:	e0812002 	add	r2, r1, r2
 c103724:	e1d220b0 	ldrh	r2, [r2]
 c103728:	e5832000 	str	r2, [r3]
    TCON    = (TCON & ~(0xf << 16)) | (1 << 19) | (1 << 17);   // Modo interval, carga TCNT3, stop T3
 c10372c:	e59f3138 	ldr	r3, [pc, #312]	; c10386c <startSensorsEmulator+0x2d4>
 c103730:	e59f2134 	ldr	r2, [pc, #308]	; c10386c <startSensorsEmulator+0x2d4>
 c103734:	e5922000 	ldr	r2, [r2]
 c103738:	e3c2280f 	bic	r2, r2, #983040	; 0xf0000
 c10373c:	e382280a 	orr	r2, r2, #655360	; 0xa0000
 c103740:	e5832000 	str	r2, [r3]
    TCON    = (TCON & ~(0xf << 16)) | (1 << 19) | (1 << 16);   // Modo interval, no carga TCNT3, start T3
 c103744:	e59f3120 	ldr	r3, [pc, #288]	; c10386c <startSensorsEmulator+0x2d4>
 c103748:	e59f211c 	ldr	r2, [pc, #284]	; c10386c <startSensorsEmulator+0x2d4>
 c10374c:	e5922000 	ldr	r2, [r2]
 c103750:	e3c2280f 	bic	r2, r2, #983040	; 0xf0000
 c103754:	e3822809 	orr	r2, r2, #589824	; 0x90000
 c103758:	e5832000 	str	r2, [r3]

    TCNTB2  = cntb[pasosPorMin];                               // Carga T2
 c10375c:	e59f310c 	ldr	r3, [pc, #268]	; c103870 <startSensorsEmulator+0x2d8>
 c103760:	e59f20b0 	ldr	r2, [pc, #176]	; c103818 <startSensorsEmulator+0x280>
 c103764:	e5d22000 	ldrb	r2, [r2]
 c103768:	e20220ff 	and	r2, r2, #255	; 0xff
 c10376c:	e59f10f4 	ldr	r1, [pc, #244]	; c103868 <startSensorsEmulator+0x2d0>
 c103770:	e1a02082 	lsl	r2, r2, #1
 c103774:	e0812002 	add	r2, r1, r2
 c103778:	e1d220b0 	ldrh	r2, [r2]
 c10377c:	e5832000 	str	r2, [r3]
    TCON    = (TCON & ~(0xf << 12)) | (1 << 15) | (1 << 13);   // Modo interval, carga TCNT2, stop T2
 c103780:	e59f30e4 	ldr	r3, [pc, #228]	; c10386c <startSensorsEmulator+0x2d4>
 c103784:	e59f20e0 	ldr	r2, [pc, #224]	; c10386c <startSensorsEmulator+0x2d4>
 c103788:	e5922000 	ldr	r2, [r2]
 c10378c:	e3c22a0f 	bic	r2, r2, #61440	; 0xf000
 c103790:	e3822a0a 	orr	r2, r2, #40960	; 0xa000
 c103794:	e5832000 	str	r2, [r3]
    TCON    = (TCON & ~(0xf << 12)) | (1 << 15) | (1 << 12);   // Modo interval, no carga TCNT2, start T2
 c103798:	e59f30cc 	ldr	r3, [pc, #204]	; c10386c <startSensorsEmulator+0x2d4>
 c10379c:	e59f20c8 	ldr	r2, [pc, #200]	; c10386c <startSensorsEmulator+0x2d4>
 c1037a0:	e5922000 	ldr	r2, [r2]
 c1037a4:	e3c22a0f 	bic	r2, r2, #61440	; 0xf000
 c1037a8:	e3822a09 	orr	r2, r2, #36864	; 0x9000
 c1037ac:	e5832000 	str	r2, [r3]

    I_ISPC  = BIT_TIMER3 | BIT_TIMER2;                         // Borra el bit de interrupción pendiente por fin de T3 y por fin de T2
 c1037b0:	e59f3094 	ldr	r3, [pc, #148]	; c10384c <startSensorsEmulator+0x2b4>
 c1037b4:	e3a02b03 	mov	r2, #3072	; 0xc00
 c1037b8:	e5832000 	str	r2, [r3]
    INTMSK &= ~( BIT_GLOBAL | BIT_TIMER3 | BIT_TIMER2 );       // Desenmascara la interrupción por fin del T4, fin T5 y las interrupciones globales
 c1037bc:	e59f208c 	ldr	r2, [pc, #140]	; c103850 <startSensorsEmulator+0x2b8>
 c1037c0:	e59f3088 	ldr	r3, [pc, #136]	; c103850 <startSensorsEmulator+0x2b8>
 c1037c4:	e5933000 	ldr	r3, [r3]
 c1037c8:	e3c33301 	bic	r3, r3, #67108864	; 0x4000000
 c1037cc:	e3c33b03 	bic	r3, r3, #3072	; 0xc00
 c1037d0:	e5823000 	str	r3, [r2]


	uart0int_puts( "\n\n" );
 c1037d4:	e59f0098 	ldr	r0, [pc, #152]	; c103874 <startSensorsEmulator+0x2dc>
 c1037d8:	eb000065 	bl	c103974 <uart0int_puts>
	uart0int_puts( "-------------------------------------\n" );
 c1037dc:	e59f0094 	ldr	r0, [pc, #148]	; c103878 <startSensorsEmulator+0x2e0>
 c1037e0:	eb000063 	bl	c103974 <uart0int_puts>
	uart0int_puts( "Emulador de latidos y pasos arrancado\n" );
 c1037e4:	e59f0090 	ldr	r0, [pc, #144]	; c10387c <startSensorsEmulator+0x2e4>
 c1037e8:	eb000061 	bl	c103974 <uart0int_puts>
	uart0int_puts( "  - Latidos por minuto: 28-255\n" );
 c1037ec:	e59f008c 	ldr	r0, [pc, #140]	; c103880 <startSensorsEmulator+0x2e8>
 c1037f0:	eb00005f 	bl	c103974 <uart0int_puts>
	uart0int_puts( "  - Pasos por minuto:   0/10-200\n" );
 c1037f4:	e59f0088 	ldr	r0, [pc, #136]	; c103884 <startSensorsEmulator+0x2ec>
 c1037f8:	eb00005d 	bl	c103974 <uart0int_puts>
	uart0int_puts( "-------------------------------------\n" );
 c1037fc:	e59f0074 	ldr	r0, [pc, #116]	; c103878 <startSensorsEmulator+0x2e0>
 c103800:	eb00005b 	bl	c103974 <uart0int_puts>
	uart0int_putMenu();
 c103804:	eb000099 	bl	c103a70 <uart0int_putMenu>
}
 c103808:	e24bd00c 	sub	sp, fp, #12
 c10380c:	e89d6800 	ldm	sp, {fp, sp, lr}
 c103810:	e12fff1e 	bx	lr
 c103814:	0c10bd82 	.word	0x0c10bd82
 c103818:	0c10bd83 	.word	0x0c10bd83
 c10381c:	01d80004 	.word	0x01d80004
 c103820:	01d20028 	.word	0x01d20028
 c103824:	01d20030 	.word	0x01d20030
 c103828:	01d00008 	.word	0x01d00008
 c10382c:	01d0000c 	.word	0x01d0000c
 c103830:	01d00028 	.word	0x01d00028
 c103834:	01d00004 	.word	0x01d00004
 c103838:	0c10b97c 	.word	0x0c10b97c
 c10383c:	0c7fff3c 	.word	0x0c7fff3c
 c103840:	0c103b5c 	.word	0x0c103b5c
 c103844:	0c7fff2c 	.word	0x0c7fff2c
 c103848:	0c10391c 	.word	0x0c10391c
 c10384c:	01e00024 	.word	0x01e00024
 c103850:	01e0000c 	.word	0x01e0000c
 c103854:	01d50000 	.word	0x01d50000
 c103858:	01d50004 	.word	0x01d50004
 c10385c:	0c7fff48 	.word	0x0c7fff48
 c103860:	0c7fff4c 	.word	0x0c7fff4c
 c103864:	01d50030 	.word	0x01d50030
 c103868:	0c109f2c 	.word	0x0c109f2c
 c10386c:	01d50008 	.word	0x01d50008
 c103870:	01d50024 	.word	0x01d50024
 c103874:	0c10a12c 	.word	0x0c10a12c
 c103878:	0c10a130 	.word	0x0c10a130
 c10387c:	0c10a158 	.word	0x0c10a158
 c103880:	0c10a180 	.word	0x0c10a180
 c103884:	0c10a1a0 	.word	0x0c10a1a0

0c103888 <uart0int_putchar>:

/*******************************************************************/

void uart0int_putchar( char ch )
{
 c103888:	e1a0c00d 	mov	ip, sp
 c10388c:	e92dd800 	push	{fp, ip, lr, pc}
 c103890:	e24cb004 	sub	fp, ip, #4
 c103894:	e24dd008 	sub	sp, sp, #8
 c103898:	e1a03000 	mov	r3, r0
 c10389c:	e54b300d 	strb	r3, [fp, #-13]
	if( fifo_is_empty( &fifoTX ) )
 c1038a0:	e59f0068 	ldr	r0, [pc, #104]	; c103910 <uart0int_putchar+0x88>
 c1038a4:	eb000324 	bl	c10453c <fifo_is_empty>
 c1038a8:	e1a03000 	mov	r3, r0
 c1038ac:	e3530000 	cmp	r3, #0
 c1038b0:	0a000009 	beq	c1038dc <uart0int_putchar+0x54>
	{
		while( !(UTRSTAT0 & (1 << 1)) );	// Espera por si todavía está transmitiendo el último byte enviado
 c1038b4:	e1a00000 	nop			; (mov r0, r0)
 c1038b8:	e59f3054 	ldr	r3, [pc, #84]	; c103914 <uart0int_putchar+0x8c>
 c1038bc:	e5933000 	ldr	r3, [r3]
 c1038c0:	e2033002 	and	r3, r3, #2
 c1038c4:	e3530000 	cmp	r3, #0
 c1038c8:	0afffffa 	beq	c1038b8 <uart0int_putchar+0x30>
		UTXH0 = ch;							// Envía el byte, cuando termine la transmisión se genera la primera interrupción
 c1038cc:	e59f3044 	ldr	r3, [pc, #68]	; c103918 <uart0int_putchar+0x90>
 c1038d0:	e55b200d 	ldrb	r2, [fp, #-13]
 c1038d4:	e5832000 	str	r2, [r3]
 c1038d8:	ea000009 	b	c103904 <uart0int_putchar+0x7c>
	}
	else
	{
		while( fifo_is_full( &fifoTX ) );
 c1038dc:	e1a00000 	nop			; (mov r0, r0)
 c1038e0:	e59f0028 	ldr	r0, [pc, #40]	; c103910 <uart0int_putchar+0x88>
 c1038e4:	eb000325 	bl	c104580 <fifo_is_full>
 c1038e8:	e1a03000 	mov	r3, r0
 c1038ec:	e3530000 	cmp	r3, #0
 c1038f0:	1afffffa 	bne	c1038e0 <uart0int_putchar+0x58>
		fifo_enqueue( &fifoTX, (uint8) ch );
 c1038f4:	e55b300d 	ldrb	r3, [fp, #-13]
 c1038f8:	e59f0010 	ldr	r0, [pc, #16]	; c103910 <uart0int_putchar+0x88>
 c1038fc:	e1a01003 	mov	r1, r3
 c103900:	eb0002a9 	bl	c1043ac <fifo_enqueue>
	}
}
 c103904:	e24bd00c 	sub	sp, fp, #12
 c103908:	e89d6800 	ldm	sp, {fp, sp, lr}
 c10390c:	e12fff1e 	bx	lr
 c103910:	0c10b97c 	.word	0x0c10b97c
 c103914:	01d00010 	.word	0x01d00010
 c103918:	01d00020 	.word	0x01d00020

0c10391c <uart0int_isrTX>:

void uart0int_isrTX( void )
{
 c10391c:	e52dc004 	push	{ip}		; (str ip, [sp, #-4]!)
 c103920:	e1a0c00d 	mov	ip, sp
 c103924:	e92dd80f 	push	{r0, r1, r2, r3, fp, ip, lr, pc}
 c103928:	e24cb004 	sub	fp, ip, #4
    I_ISPC = BIT_UTXD0;
 c10392c:	e59f3034 	ldr	r3, [pc, #52]	; c103968 <uart0int_isrTX+0x4c>
 c103930:	e3a02008 	mov	r2, #8
 c103934:	e5832000 	str	r2, [r3]
	if( !fifo_is_empty( &fifoTX ) )
 c103938:	e59f002c 	ldr	r0, [pc, #44]	; c10396c <uart0int_isrTX+0x50>
 c10393c:	eb0002fe 	bl	c10453c <fifo_is_empty>
 c103940:	e1a03000 	mov	r3, r0
 c103944:	e3530000 	cmp	r3, #0
 c103948:	1a000002 	bne	c103958 <uart0int_isrTX+0x3c>
		fifo_dequeue( &fifoTX, (uint8 *) &UTXH0 );
 c10394c:	e59f0018 	ldr	r0, [pc, #24]	; c10396c <uart0int_isrTX+0x50>
 c103950:	e59f1018 	ldr	r1, [pc, #24]	; c103970 <uart0int_isrTX+0x54>
 c103954:	eb0002c6 	bl	c104474 <fifo_dequeue>
}
 c103958:	e24bd01c 	sub	sp, fp, #28
 c10395c:	e89d680f 	ldm	sp, {r0, r1, r2, r3, fp, sp, lr}
 c103960:	e49dc004 	pop	{ip}		; (ldr ip, [sp], #4)
 c103964:	e25ef004 	subs	pc, lr, #4
 c103968:	01e00024 	.word	0x01e00024
 c10396c:	0c10b97c 	.word	0x0c10b97c
 c103970:	01d00020 	.word	0x01d00020

0c103974 <uart0int_puts>:

void uart0int_puts( char *s )
{
 c103974:	e1a0c00d 	mov	ip, sp
 c103978:	e92dd800 	push	{fp, ip, lr, pc}
 c10397c:	e24cb004 	sub	fp, ip, #4
 c103980:	e24dd008 	sub	sp, sp, #8
 c103984:	e50b0010 	str	r0, [fp, #-16]
    while( *s )
 c103988:	ea000006 	b	c1039a8 <uart0int_puts+0x34>
		uart0int_putchar( *s++ );
 c10398c:	e51b3010 	ldr	r3, [fp, #-16]
 c103990:	e5d33000 	ldrb	r3, [r3]
 c103994:	e51b2010 	ldr	r2, [fp, #-16]
 c103998:	e2822001 	add	r2, r2, #1
 c10399c:	e50b2010 	str	r2, [fp, #-16]
 c1039a0:	e1a00003 	mov	r0, r3
 c1039a4:	ebffffb7 	bl	c103888 <uart0int_putchar>
		fifo_dequeue( &fifoTX, (uint8 *) &UTXH0 );
}

void uart0int_puts( char *s )
{
    while( *s )
 c1039a8:	e51b3010 	ldr	r3, [fp, #-16]
 c1039ac:	e5d33000 	ldrb	r3, [r3]
 c1039b0:	e3530000 	cmp	r3, #0
 c1039b4:	1afffff4 	bne	c10398c <uart0int_puts+0x18>
		uart0int_putchar( *s++ );
}
 c1039b8:	e24bd00c 	sub	sp, fp, #12
 c1039bc:	e89d6800 	ldm	sp, {fp, sp, lr}
 c1039c0:	e12fff1e 	bx	lr

0c1039c4 <uart0int_putnum>:

void uart0int_putnum( uint8 i )
{
 c1039c4:	e1a0c00d 	mov	ip, sp
 c1039c8:	e92dd800 	push	{fp, ip, lr, pc}
 c1039cc:	e24cb004 	sub	fp, ip, #4
 c1039d0:	e24dd010 	sub	sp, sp, #16
 c1039d4:	e1a03000 	mov	r3, r0
 c1039d8:	e54b3015 	strb	r3, [fp, #-21]	; 0xffffffeb
	char buf[3 + 1];
	char *p = buf + 3;
 c1039dc:	e24b3014 	sub	r3, fp, #20
 c1039e0:	e2833003 	add	r3, r3, #3
 c1039e4:	e50b3010 	str	r3, [fp, #-16]

	*p = '\0';
 c1039e8:	e51b3010 	ldr	r3, [fp, #-16]
 c1039ec:	e3a02000 	mov	r2, #0
 c1039f0:	e5c32000 	strb	r2, [r3]

    do {
        *--p = '0' + (i % 10);
 c1039f4:	e51b3010 	ldr	r3, [fp, #-16]
 c1039f8:	e2433001 	sub	r3, r3, #1
 c1039fc:	e50b3010 	str	r3, [fp, #-16]
 c103a00:	e55b2015 	ldrb	r2, [fp, #-21]	; 0xffffffeb
 c103a04:	e59f3060 	ldr	r3, [pc, #96]	; c103a6c <uart0int_putnum+0xa8>
 c103a08:	e0831392 	umull	r1, r3, r2, r3
 c103a0c:	e1a011a3 	lsr	r1, r3, #3
 c103a10:	e1a03001 	mov	r3, r1
 c103a14:	e1a03103 	lsl	r3, r3, #2
 c103a18:	e0833001 	add	r3, r3, r1
 c103a1c:	e1a03083 	lsl	r3, r3, #1
 c103a20:	e0633002 	rsb	r3, r3, r2
 c103a24:	e20330ff 	and	r3, r3, #255	; 0xff
 c103a28:	e2833030 	add	r3, r3, #48	; 0x30
 c103a2c:	e20320ff 	and	r2, r3, #255	; 0xff
 c103a30:	e51b3010 	ldr	r3, [fp, #-16]
 c103a34:	e5c32000 	strb	r2, [r3]
		i /= 10;
 c103a38:	e55b2015 	ldrb	r2, [fp, #-21]	; 0xffffffeb
 c103a3c:	e59f3028 	ldr	r3, [pc, #40]	; c103a6c <uart0int_putnum+0xa8>
 c103a40:	e0831392 	umull	r1, r3, r2, r3
 c103a44:	e1a031a3 	lsr	r3, r3, #3
 c103a48:	e54b3015 	strb	r3, [fp, #-21]	; 0xffffffeb
	} while( i );
 c103a4c:	e55b3015 	ldrb	r3, [fp, #-21]	; 0xffffffeb
 c103a50:	e3530000 	cmp	r3, #0
 c103a54:	1affffe6 	bne	c1039f4 <uart0int_putnum+0x30>

    uart0int_puts( p );
 c103a58:	e51b0010 	ldr	r0, [fp, #-16]
 c103a5c:	ebffffc4 	bl	c103974 <uart0int_puts>
}
 c103a60:	e24bd00c 	sub	sp, fp, #12
 c103a64:	e89d6800 	ldm	sp, {fp, sp, lr}
 c103a68:	e12fff1e 	bx	lr
 c103a6c:	cccccccd 	.word	0xcccccccd

0c103a70 <uart0int_putMenu>:

void uart0int_putMenu( void )
{
 c103a70:	e1a0c00d 	mov	ip, sp
 c103a74:	e92dd800 	push	{fp, ip, lr, pc}
 c103a78:	e24cb004 	sub	fp, ip, #4
	uart0int_puts( "\n" );
 c103a7c:	e59f009c 	ldr	r0, [pc, #156]	; c103b20 <uart0int_putMenu+0xb0>
 c103a80:	ebffffbb 	bl	c103974 <uart0int_puts>
	uart0int_puts( "Latidos por minuto: " );
 c103a84:	e59f0098 	ldr	r0, [pc, #152]	; c103b24 <uart0int_putMenu+0xb4>
 c103a88:	ebffffb9 	bl	c103974 <uart0int_puts>
	uart0int_putnum( latidosPorMin );
 c103a8c:	e59f3094 	ldr	r3, [pc, #148]	; c103b28 <uart0int_putMenu+0xb8>
 c103a90:	e5d33000 	ldrb	r3, [r3]
 c103a94:	e20330ff 	and	r3, r3, #255	; 0xff
 c103a98:	e1a00003 	mov	r0, r3
 c103a9c:	ebffffc8 	bl	c1039c4 <uart0int_putnum>
	uart0int_puts( " / Pasos por minuto: " );
 c103aa0:	e59f0084 	ldr	r0, [pc, #132]	; c103b2c <uart0int_putMenu+0xbc>
 c103aa4:	ebffffb2 	bl	c103974 <uart0int_puts>
	uart0int_putnum( pasosPorMin );
 c103aa8:	e59f3080 	ldr	r3, [pc, #128]	; c103b30 <uart0int_putMenu+0xc0>
 c103aac:	e5d33000 	ldrb	r3, [r3]
 c103ab0:	e20330ff 	and	r3, r3, #255	; 0xff
 c103ab4:	e1a00003 	mov	r0, r3
 c103ab8:	ebffffc1 	bl	c1039c4 <uart0int_putnum>
	uart0int_putchar( '\n' );
 c103abc:	e3a0000a 	mov	r0, #10
 c103ac0:	ebffff70 	bl	c103888 <uart0int_putchar>
	uart0int_puts( "  1 - Incrementar latidos  (+1) \n" );
 c103ac4:	e59f0068 	ldr	r0, [pc, #104]	; c103b34 <uart0int_putMenu+0xc4>
 c103ac8:	ebffffa9 	bl	c103974 <uart0int_puts>
	uart0int_puts( "  2 - Incrementar latidos (+10) \n" );
 c103acc:	e59f0064 	ldr	r0, [pc, #100]	; c103b38 <uart0int_putMenu+0xc8>
 c103ad0:	ebffffa7 	bl	c103974 <uart0int_puts>
	uart0int_puts( "  3 - Decrementar latidos  (-1) \n" );
 c103ad4:	e59f0060 	ldr	r0, [pc, #96]	; c103b3c <uart0int_putMenu+0xcc>
 c103ad8:	ebffffa5 	bl	c103974 <uart0int_puts>
	uart0int_puts( "  4 - Decrementar latidos (-10) \n" );
 c103adc:	e59f005c 	ldr	r0, [pc, #92]	; c103b40 <uart0int_putMenu+0xd0>
 c103ae0:	ebffffa3 	bl	c103974 <uart0int_puts>
	uart0int_puts( "  d - Detenerse \n" );
 c103ae4:	e59f0058 	ldr	r0, [pc, #88]	; c103b44 <uart0int_putMenu+0xd4>
 c103ae8:	ebffffa1 	bl	c103974 <uart0int_puts>
	uart0int_puts( "  a - Comenzar a andar \n" );
 c103aec:	e59f0054 	ldr	r0, [pc, #84]	; c103b48 <uart0int_putMenu+0xd8>
 c103af0:	ebffff9f 	bl	c103974 <uart0int_puts>
	uart0int_puts( "  5 - Incrementar pasos    (+1) \n" );
 c103af4:	e59f0050 	ldr	r0, [pc, #80]	; c103b4c <uart0int_putMenu+0xdc>
 c103af8:	ebffff9d 	bl	c103974 <uart0int_puts>
	uart0int_puts( "  6 - Incrementar pasos   (+10) \n" );
 c103afc:	e59f004c 	ldr	r0, [pc, #76]	; c103b50 <uart0int_putMenu+0xe0>
 c103b00:	ebffff9b 	bl	c103974 <uart0int_puts>
	uart0int_puts( "  7 - Decrementar pasos    (-1) \n" );
 c103b04:	e59f0048 	ldr	r0, [pc, #72]	; c103b54 <uart0int_putMenu+0xe4>
 c103b08:	ebffff99 	bl	c103974 <uart0int_puts>
	uart0int_puts( "  8 - Decrementar pasos   (-10) \n" );
 c103b0c:	e59f0044 	ldr	r0, [pc, #68]	; c103b58 <uart0int_putMenu+0xe8>
 c103b10:	ebffff97 	bl	c103974 <uart0int_puts>
}
 c103b14:	e24bd00c 	sub	sp, fp, #12
 c103b18:	e89d6800 	ldm	sp, {fp, sp, lr}
 c103b1c:	e12fff1e 	bx	lr
 c103b20:	0c10a1c4 	.word	0x0c10a1c4
 c103b24:	0c10a1c8 	.word	0x0c10a1c8
 c103b28:	0c10bd82 	.word	0x0c10bd82
 c103b2c:	0c10a1e0 	.word	0x0c10a1e0
 c103b30:	0c10bd83 	.word	0x0c10bd83
 c103b34:	0c10a1f8 	.word	0x0c10a1f8
 c103b38:	0c10a21c 	.word	0x0c10a21c
 c103b3c:	0c10a240 	.word	0x0c10a240
 c103b40:	0c10a264 	.word	0x0c10a264
 c103b44:	0c10a288 	.word	0x0c10a288
 c103b48:	0c10a29c 	.word	0x0c10a29c
 c103b4c:	0c10a2b8 	.word	0x0c10a2b8
 c103b50:	0c10a2dc 	.word	0x0c10a2dc
 c103b54:	0c10a300 	.word	0x0c10a300
 c103b58:	0c10a324 	.word	0x0c10a324

0c103b5c <uart0int_isrRX>:

void uart0int_isrRX( void )
{
 c103b5c:	e52dc004 	push	{ip}		; (str ip, [sp, #-4]!)
 c103b60:	e1a0c00d 	mov	ip, sp
 c103b64:	e92dd80f 	push	{r0, r1, r2, r3, fp, ip, lr, pc}
 c103b68:	e24cb004 	sub	fp, ip, #4
    I_ISPC = BIT_URXD0;
 c103b6c:	e59f37d0 	ldr	r3, [pc, #2000]	; c104344 <uart0int_isrRX+0x7e8>
 c103b70:	e3a02080 	mov	r2, #128	; 0x80
 c103b74:	e5832000 	str	r2, [r3]
	switch( URXH0 )
 c103b78:	e59f37c8 	ldr	r3, [pc, #1992]	; c104348 <uart0int_isrRX+0x7ec>
 c103b7c:	e5933000 	ldr	r3, [r3]
 c103b80:	e243300a 	sub	r3, r3, #10
 c103b84:	e353005a 	cmp	r3, #90	; 0x5a
 c103b88:	979ff103 	ldrls	pc, [pc, r3, lsl #2]
 c103b8c:	ea0001e4 	b	c104324 <uart0int_isrRX+0x7c8>
 c103b90:	0c104330 	.word	0x0c104330
 c103b94:	0c104324 	.word	0x0c104324
 c103b98:	0c104324 	.word	0x0c104324
 c103b9c:	0c104324 	.word	0x0c104324
 c103ba0:	0c104324 	.word	0x0c104324
 c103ba4:	0c104324 	.word	0x0c104324
 c103ba8:	0c104324 	.word	0x0c104324
 c103bac:	0c104324 	.word	0x0c104324
 c103bb0:	0c104324 	.word	0x0c104324
 c103bb4:	0c104324 	.word	0x0c104324
 c103bb8:	0c104324 	.word	0x0c104324
 c103bbc:	0c104324 	.word	0x0c104324
 c103bc0:	0c104324 	.word	0x0c104324
 c103bc4:	0c104324 	.word	0x0c104324
 c103bc8:	0c104324 	.word	0x0c104324
 c103bcc:	0c104324 	.word	0x0c104324
 c103bd0:	0c104324 	.word	0x0c104324
 c103bd4:	0c104324 	.word	0x0c104324
 c103bd8:	0c104324 	.word	0x0c104324
 c103bdc:	0c104324 	.word	0x0c104324
 c103be0:	0c104324 	.word	0x0c104324
 c103be4:	0c104324 	.word	0x0c104324
 c103be8:	0c104324 	.word	0x0c104324
 c103bec:	0c104324 	.word	0x0c104324
 c103bf0:	0c104324 	.word	0x0c104324
 c103bf4:	0c104324 	.word	0x0c104324
 c103bf8:	0c104324 	.word	0x0c104324
 c103bfc:	0c104324 	.word	0x0c104324
 c103c00:	0c104324 	.word	0x0c104324
 c103c04:	0c104324 	.word	0x0c104324
 c103c08:	0c104324 	.word	0x0c104324
 c103c0c:	0c104324 	.word	0x0c104324
 c103c10:	0c104324 	.word	0x0c104324
 c103c14:	0c104324 	.word	0x0c104324
 c103c18:	0c104324 	.word	0x0c104324
 c103c1c:	0c104324 	.word	0x0c104324
 c103c20:	0c104324 	.word	0x0c104324
 c103c24:	0c104324 	.word	0x0c104324
 c103c28:	0c104324 	.word	0x0c104324
 c103c2c:	0c103cfc 	.word	0x0c103cfc
 c103c30:	0c103d98 	.word	0x0c103d98
 c103c34:	0c103e34 	.word	0x0c103e34
 c103c38:	0c103ed0 	.word	0x0c103ed0
 c103c3c:	0c104064 	.word	0x0c104064
 c103c40:	0c104114 	.word	0x0c104114
 c103c44:	0c1041c4 	.word	0x0c1041c4
 c103c48:	0c104274 	.word	0x0c104274
 c103c4c:	0c104324 	.word	0x0c104324
 c103c50:	0c104324 	.word	0x0c104324
 c103c54:	0c104324 	.word	0x0c104324
 c103c58:	0c104324 	.word	0x0c104324
 c103c5c:	0c104324 	.word	0x0c104324
 c103c60:	0c104324 	.word	0x0c104324
 c103c64:	0c104324 	.word	0x0c104324
 c103c68:	0c104324 	.word	0x0c104324
 c103c6c:	0c103fe8 	.word	0x0c103fe8
 c103c70:	0c104324 	.word	0x0c104324
 c103c74:	0c104324 	.word	0x0c104324
 c103c78:	0c103f6c 	.word	0x0c103f6c
 c103c7c:	0c104324 	.word	0x0c104324
 c103c80:	0c104324 	.word	0x0c104324
 c103c84:	0c104324 	.word	0x0c104324
 c103c88:	0c104324 	.word	0x0c104324
 c103c8c:	0c104324 	.word	0x0c104324
 c103c90:	0c104324 	.word	0x0c104324
 c103c94:	0c104324 	.word	0x0c104324
 c103c98:	0c104324 	.word	0x0c104324
 c103c9c:	0c104324 	.word	0x0c104324
 c103ca0:	0c104324 	.word	0x0c104324
 c103ca4:	0c104324 	.word	0x0c104324
 c103ca8:	0c104324 	.word	0x0c104324
 c103cac:	0c104324 	.word	0x0c104324
 c103cb0:	0c104324 	.word	0x0c104324
 c103cb4:	0c104324 	.word	0x0c104324
 c103cb8:	0c104324 	.word	0x0c104324
 c103cbc:	0c104324 	.word	0x0c104324
 c103cc0:	0c104324 	.word	0x0c104324
 c103cc4:	0c104324 	.word	0x0c104324
 c103cc8:	0c104324 	.word	0x0c104324
 c103ccc:	0c104324 	.word	0x0c104324
 c103cd0:	0c104324 	.word	0x0c104324
 c103cd4:	0c104324 	.word	0x0c104324
 c103cd8:	0c104324 	.word	0x0c104324
 c103cdc:	0c104324 	.word	0x0c104324
 c103ce0:	0c104324 	.word	0x0c104324
 c103ce4:	0c104324 	.word	0x0c104324
 c103ce8:	0c104324 	.word	0x0c104324
 c103cec:	0c103fe8 	.word	0x0c103fe8
 c103cf0:	0c104324 	.word	0x0c104324
 c103cf4:	0c104324 	.word	0x0c104324
 c103cf8:	0c103f6c 	.word	0x0c103f6c
	{
		case '1':
			latidosPorMin = ( latidosPorMin < 255 ? latidosPorMin+1 : latidosPorMin );
 c103cfc:	e59f3648 	ldr	r3, [pc, #1608]	; c10434c <uart0int_isrRX+0x7f0>
 c103d00:	e5d33000 	ldrb	r3, [r3]
 c103d04:	e20330ff 	and	r3, r3, #255	; 0xff
 c103d08:	e35300ff 	cmp	r3, #255	; 0xff
 c103d0c:	0a000005 	beq	c103d28 <uart0int_isrRX+0x1cc>
 c103d10:	e59f3634 	ldr	r3, [pc, #1588]	; c10434c <uart0int_isrRX+0x7f0>
 c103d14:	e5d33000 	ldrb	r3, [r3]
 c103d18:	e20330ff 	and	r3, r3, #255	; 0xff
 c103d1c:	e2833001 	add	r3, r3, #1
 c103d20:	e20330ff 	and	r3, r3, #255	; 0xff
 c103d24:	ea000002 	b	c103d34 <uart0int_isrRX+0x1d8>
 c103d28:	e59f361c 	ldr	r3, [pc, #1564]	; c10434c <uart0int_isrRX+0x7f0>
 c103d2c:	e5d33000 	ldrb	r3, [r3]
 c103d30:	e20330ff 	and	r3, r3, #255	; 0xff
 c103d34:	e59f2610 	ldr	r2, [pc, #1552]	; c10434c <uart0int_isrRX+0x7f0>
 c103d38:	e5c23000 	strb	r3, [r2]
		    TCNTB3  = cntb[latidosPorMin];                             // Carga T3
 c103d3c:	e59f360c 	ldr	r3, [pc, #1548]	; c104350 <uart0int_isrRX+0x7f4>
 c103d40:	e59f2604 	ldr	r2, [pc, #1540]	; c10434c <uart0int_isrRX+0x7f0>
 c103d44:	e5d22000 	ldrb	r2, [r2]
 c103d48:	e20220ff 	and	r2, r2, #255	; 0xff
 c103d4c:	e59f1600 	ldr	r1, [pc, #1536]	; c104354 <uart0int_isrRX+0x7f8>
 c103d50:	e1a02082 	lsl	r2, r2, #1
 c103d54:	e0812002 	add	r2, r1, r2
 c103d58:	e1d220b0 	ldrh	r2, [r2]
 c103d5c:	e5832000 	str	r2, [r3]
		    TCON    = (TCON & ~(0xf << 16)) | (1 << 19) | (1 << 17);   // Modo interval, carga TCNT3, stop T3
 c103d60:	e59f35f0 	ldr	r3, [pc, #1520]	; c104358 <uart0int_isrRX+0x7fc>
 c103d64:	e59f25ec 	ldr	r2, [pc, #1516]	; c104358 <uart0int_isrRX+0x7fc>
 c103d68:	e5922000 	ldr	r2, [r2]
 c103d6c:	e3c2280f 	bic	r2, r2, #983040	; 0xf0000
 c103d70:	e382280a 	orr	r2, r2, #655360	; 0xa0000
 c103d74:	e5832000 	str	r2, [r3]
		    TCON    = (TCON & ~(0xf << 16)) | (1 << 19) | (1 << 16);   // Modo interval, no carga TCNT3, start T3
 c103d78:	e59f35d8 	ldr	r3, [pc, #1496]	; c104358 <uart0int_isrRX+0x7fc>
 c103d7c:	e59f25d4 	ldr	r2, [pc, #1492]	; c104358 <uart0int_isrRX+0x7fc>
 c103d80:	e5922000 	ldr	r2, [r2]
 c103d84:	e3c2280f 	bic	r2, r2, #983040	; 0xf0000
 c103d88:	e3822809 	orr	r2, r2, #589824	; 0x90000
 c103d8c:	e5832000 	str	r2, [r3]
			uart0int_putMenu();
 c103d90:	ebffff36 	bl	c103a70 <uart0int_putMenu>
			break;
 c103d94:	ea000166 	b	c104334 <uart0int_isrRX+0x7d8>
		case '2':
			latidosPorMin = ( latidosPorMin <= 245 ? latidosPorMin+10 : latidosPorMin );
 c103d98:	e59f35ac 	ldr	r3, [pc, #1452]	; c10434c <uart0int_isrRX+0x7f0>
 c103d9c:	e5d33000 	ldrb	r3, [r3]
 c103da0:	e20330ff 	and	r3, r3, #255	; 0xff
 c103da4:	e35300f5 	cmp	r3, #245	; 0xf5
 c103da8:	8a000005 	bhi	c103dc4 <uart0int_isrRX+0x268>
 c103dac:	e59f3598 	ldr	r3, [pc, #1432]	; c10434c <uart0int_isrRX+0x7f0>
 c103db0:	e5d33000 	ldrb	r3, [r3]
 c103db4:	e20330ff 	and	r3, r3, #255	; 0xff
 c103db8:	e283300a 	add	r3, r3, #10
 c103dbc:	e20330ff 	and	r3, r3, #255	; 0xff
 c103dc0:	ea000002 	b	c103dd0 <uart0int_isrRX+0x274>
 c103dc4:	e59f3580 	ldr	r3, [pc, #1408]	; c10434c <uart0int_isrRX+0x7f0>
 c103dc8:	e5d33000 	ldrb	r3, [r3]
 c103dcc:	e20330ff 	and	r3, r3, #255	; 0xff
 c103dd0:	e59f2574 	ldr	r2, [pc, #1396]	; c10434c <uart0int_isrRX+0x7f0>
 c103dd4:	e5c23000 	strb	r3, [r2]
		    TCNTB3  = cntb[latidosPorMin];                             // Carga T3
 c103dd8:	e59f3570 	ldr	r3, [pc, #1392]	; c104350 <uart0int_isrRX+0x7f4>
 c103ddc:	e59f2568 	ldr	r2, [pc, #1384]	; c10434c <uart0int_isrRX+0x7f0>
 c103de0:	e5d22000 	ldrb	r2, [r2]
 c103de4:	e20220ff 	and	r2, r2, #255	; 0xff
 c103de8:	e59f1564 	ldr	r1, [pc, #1380]	; c104354 <uart0int_isrRX+0x7f8>
 c103dec:	e1a02082 	lsl	r2, r2, #1
 c103df0:	e0812002 	add	r2, r1, r2
 c103df4:	e1d220b0 	ldrh	r2, [r2]
 c103df8:	e5832000 	str	r2, [r3]
		    TCON    = (TCON & ~(0xf << 16)) | (1 << 19) | (1 << 17);   // Modo interval, carga TCNT3, stop T3
 c103dfc:	e59f3554 	ldr	r3, [pc, #1364]	; c104358 <uart0int_isrRX+0x7fc>
 c103e00:	e59f2550 	ldr	r2, [pc, #1360]	; c104358 <uart0int_isrRX+0x7fc>
 c103e04:	e5922000 	ldr	r2, [r2]
 c103e08:	e3c2280f 	bic	r2, r2, #983040	; 0xf0000
 c103e0c:	e382280a 	orr	r2, r2, #655360	; 0xa0000
 c103e10:	e5832000 	str	r2, [r3]
		    TCON    = (TCON & ~(0xf << 16)) | (1 << 19) | (1 << 16);   // Modo interval, no carga TCNT3, start T3
 c103e14:	e59f353c 	ldr	r3, [pc, #1340]	; c104358 <uart0int_isrRX+0x7fc>
 c103e18:	e59f2538 	ldr	r2, [pc, #1336]	; c104358 <uart0int_isrRX+0x7fc>
 c103e1c:	e5922000 	ldr	r2, [r2]
 c103e20:	e3c2280f 	bic	r2, r2, #983040	; 0xf0000
 c103e24:	e3822809 	orr	r2, r2, #589824	; 0x90000
 c103e28:	e5832000 	str	r2, [r3]
			uart0int_putMenu();
 c103e2c:	ebffff0f 	bl	c103a70 <uart0int_putMenu>
			break;
 c103e30:	ea00013f 	b	c104334 <uart0int_isrRX+0x7d8>
		case '3':
			latidosPorMin = ( latidosPorMin > 28 ? latidosPorMin-1 : latidosPorMin );
 c103e34:	e59f3510 	ldr	r3, [pc, #1296]	; c10434c <uart0int_isrRX+0x7f0>
 c103e38:	e5d33000 	ldrb	r3, [r3]
 c103e3c:	e20330ff 	and	r3, r3, #255	; 0xff
 c103e40:	e353001c 	cmp	r3, #28
 c103e44:	9a000005 	bls	c103e60 <uart0int_isrRX+0x304>
 c103e48:	e59f34fc 	ldr	r3, [pc, #1276]	; c10434c <uart0int_isrRX+0x7f0>
 c103e4c:	e5d33000 	ldrb	r3, [r3]
 c103e50:	e20330ff 	and	r3, r3, #255	; 0xff
 c103e54:	e2433001 	sub	r3, r3, #1
 c103e58:	e20330ff 	and	r3, r3, #255	; 0xff
 c103e5c:	ea000002 	b	c103e6c <uart0int_isrRX+0x310>
 c103e60:	e59f34e4 	ldr	r3, [pc, #1252]	; c10434c <uart0int_isrRX+0x7f0>
 c103e64:	e5d33000 	ldrb	r3, [r3]
 c103e68:	e20330ff 	and	r3, r3, #255	; 0xff
 c103e6c:	e59f24d8 	ldr	r2, [pc, #1240]	; c10434c <uart0int_isrRX+0x7f0>
 c103e70:	e5c23000 	strb	r3, [r2]
		    TCNTB3  = cntb[latidosPorMin];                             // Carga T3
 c103e74:	e59f34d4 	ldr	r3, [pc, #1236]	; c104350 <uart0int_isrRX+0x7f4>
 c103e78:	e59f24cc 	ldr	r2, [pc, #1228]	; c10434c <uart0int_isrRX+0x7f0>
 c103e7c:	e5d22000 	ldrb	r2, [r2]
 c103e80:	e20220ff 	and	r2, r2, #255	; 0xff
 c103e84:	e59f14c8 	ldr	r1, [pc, #1224]	; c104354 <uart0int_isrRX+0x7f8>
 c103e88:	e1a02082 	lsl	r2, r2, #1
 c103e8c:	e0812002 	add	r2, r1, r2
 c103e90:	e1d220b0 	ldrh	r2, [r2]
 c103e94:	e5832000 	str	r2, [r3]
		    TCON    = (TCON & ~(0xf << 16)) | (1 << 19) | (1 << 17);   // Modo interval, carga TCNT3, stop T3
 c103e98:	e59f34b8 	ldr	r3, [pc, #1208]	; c104358 <uart0int_isrRX+0x7fc>
 c103e9c:	e59f24b4 	ldr	r2, [pc, #1204]	; c104358 <uart0int_isrRX+0x7fc>
 c103ea0:	e5922000 	ldr	r2, [r2]
 c103ea4:	e3c2280f 	bic	r2, r2, #983040	; 0xf0000
 c103ea8:	e382280a 	orr	r2, r2, #655360	; 0xa0000
 c103eac:	e5832000 	str	r2, [r3]
		    TCON    = (TCON & ~(0xf << 16)) | (1 << 19) | (1 << 16);   // Modo interval, no carga TCNT3, start T3
 c103eb0:	e59f34a0 	ldr	r3, [pc, #1184]	; c104358 <uart0int_isrRX+0x7fc>
 c103eb4:	e59f249c 	ldr	r2, [pc, #1180]	; c104358 <uart0int_isrRX+0x7fc>
 c103eb8:	e5922000 	ldr	r2, [r2]
 c103ebc:	e3c2280f 	bic	r2, r2, #983040	; 0xf0000
 c103ec0:	e3822809 	orr	r2, r2, #589824	; 0x90000
 c103ec4:	e5832000 	str	r2, [r3]
		    uart0int_putMenu();
 c103ec8:	ebfffee8 	bl	c103a70 <uart0int_putMenu>
			break;
 c103ecc:	ea000118 	b	c104334 <uart0int_isrRX+0x7d8>
		case '4':
			latidosPorMin = ( latidosPorMin >= 38 ? latidosPorMin-10 : latidosPorMin );
 c103ed0:	e59f3474 	ldr	r3, [pc, #1140]	; c10434c <uart0int_isrRX+0x7f0>
 c103ed4:	e5d33000 	ldrb	r3, [r3]
 c103ed8:	e20330ff 	and	r3, r3, #255	; 0xff
 c103edc:	e3530025 	cmp	r3, #37	; 0x25
 c103ee0:	9a000005 	bls	c103efc <uart0int_isrRX+0x3a0>
 c103ee4:	e59f3460 	ldr	r3, [pc, #1120]	; c10434c <uart0int_isrRX+0x7f0>
 c103ee8:	e5d33000 	ldrb	r3, [r3]
 c103eec:	e20330ff 	and	r3, r3, #255	; 0xff
 c103ef0:	e243300a 	sub	r3, r3, #10
 c103ef4:	e20330ff 	and	r3, r3, #255	; 0xff
 c103ef8:	ea000002 	b	c103f08 <uart0int_isrRX+0x3ac>
 c103efc:	e59f3448 	ldr	r3, [pc, #1096]	; c10434c <uart0int_isrRX+0x7f0>
 c103f00:	e5d33000 	ldrb	r3, [r3]
 c103f04:	e20330ff 	and	r3, r3, #255	; 0xff
 c103f08:	e59f243c 	ldr	r2, [pc, #1084]	; c10434c <uart0int_isrRX+0x7f0>
 c103f0c:	e5c23000 	strb	r3, [r2]
		    TCNTB3  = cntb[latidosPorMin];                             // Carga T3
 c103f10:	e59f3438 	ldr	r3, [pc, #1080]	; c104350 <uart0int_isrRX+0x7f4>
 c103f14:	e59f2430 	ldr	r2, [pc, #1072]	; c10434c <uart0int_isrRX+0x7f0>
 c103f18:	e5d22000 	ldrb	r2, [r2]
 c103f1c:	e20220ff 	and	r2, r2, #255	; 0xff
 c103f20:	e59f142c 	ldr	r1, [pc, #1068]	; c104354 <uart0int_isrRX+0x7f8>
 c103f24:	e1a02082 	lsl	r2, r2, #1
 c103f28:	e0812002 	add	r2, r1, r2
 c103f2c:	e1d220b0 	ldrh	r2, [r2]
 c103f30:	e5832000 	str	r2, [r3]
		    TCON    = (TCON & ~(0xf << 16)) | (1 << 19) | (1 << 17);   // Modo interval, carga TCNT3, stop T3
 c103f34:	e59f341c 	ldr	r3, [pc, #1052]	; c104358 <uart0int_isrRX+0x7fc>
 c103f38:	e59f2418 	ldr	r2, [pc, #1048]	; c104358 <uart0int_isrRX+0x7fc>
 c103f3c:	e5922000 	ldr	r2, [r2]
 c103f40:	e3c2280f 	bic	r2, r2, #983040	; 0xf0000
 c103f44:	e382280a 	orr	r2, r2, #655360	; 0xa0000
 c103f48:	e5832000 	str	r2, [r3]
		    TCON    = (TCON & ~(0xf << 16)) | (1 << 19) | (1 << 16);   // Modo interval, no carga TCNT3, start T3
 c103f4c:	e59f3404 	ldr	r3, [pc, #1028]	; c104358 <uart0int_isrRX+0x7fc>
 c103f50:	e59f2400 	ldr	r2, [pc, #1024]	; c104358 <uart0int_isrRX+0x7fc>
 c103f54:	e5922000 	ldr	r2, [r2]
 c103f58:	e3c2280f 	bic	r2, r2, #983040	; 0xf0000
 c103f5c:	e3822809 	orr	r2, r2, #589824	; 0x90000
 c103f60:	e5832000 	str	r2, [r3]
			uart0int_putMenu();
 c103f64:	ebfffec1 	bl	c103a70 <uart0int_putMenu>
			break;
 c103f68:	ea0000f1 	b	c104334 <uart0int_isrRX+0x7d8>
		case 'd':
		case 'D':
			pasosPorMin = 0;
 c103f6c:	e59f33e8 	ldr	r3, [pc, #1000]	; c10435c <uart0int_isrRX+0x800>
 c103f70:	e3a02000 	mov	r2, #0
 c103f74:	e5c32000 	strb	r2, [r3]
		    TCNTB2  = cntb[pasosPorMin];                               // Carga T2
 c103f78:	e59f33e0 	ldr	r3, [pc, #992]	; c104360 <uart0int_isrRX+0x804>
 c103f7c:	e59f23d8 	ldr	r2, [pc, #984]	; c10435c <uart0int_isrRX+0x800>
 c103f80:	e5d22000 	ldrb	r2, [r2]
 c103f84:	e20220ff 	and	r2, r2, #255	; 0xff
 c103f88:	e59f13c4 	ldr	r1, [pc, #964]	; c104354 <uart0int_isrRX+0x7f8>
 c103f8c:	e1a02082 	lsl	r2, r2, #1
 c103f90:	e0812002 	add	r2, r1, r2
 c103f94:	e1d220b0 	ldrh	r2, [r2]
 c103f98:	e5832000 	str	r2, [r3]
		    TCON    = (TCON & ~(0xf << 12)) | (1 << 15) | (1 << 13);   // Modo interval, carga TCNT2, stop T2
 c103f9c:	e59f33b4 	ldr	r3, [pc, #948]	; c104358 <uart0int_isrRX+0x7fc>
 c103fa0:	e59f23b0 	ldr	r2, [pc, #944]	; c104358 <uart0int_isrRX+0x7fc>
 c103fa4:	e5922000 	ldr	r2, [r2]
 c103fa8:	e3c22a0f 	bic	r2, r2, #61440	; 0xf000
 c103fac:	e3822a0a 	orr	r2, r2, #40960	; 0xa000
 c103fb0:	e5832000 	str	r2, [r3]
		    TCON    = (TCON & ~(0xf << 12)) | (1 << 15) | (1 << 12);   // Modo interval, no carga TCNT2, start T2
 c103fb4:	e59f339c 	ldr	r3, [pc, #924]	; c104358 <uart0int_isrRX+0x7fc>
 c103fb8:	e59f2398 	ldr	r2, [pc, #920]	; c104358 <uart0int_isrRX+0x7fc>
 c103fbc:	e5922000 	ldr	r2, [r2]
 c103fc0:	e3c22a0f 	bic	r2, r2, #61440	; 0xf000
 c103fc4:	e3822a09 	orr	r2, r2, #36864	; 0x9000
 c103fc8:	e5832000 	str	r2, [r3]
			INTMSK |= BIT_TIMER2;
 c103fcc:	e59f3390 	ldr	r3, [pc, #912]	; c104364 <uart0int_isrRX+0x808>
 c103fd0:	e59f238c 	ldr	r2, [pc, #908]	; c104364 <uart0int_isrRX+0x808>
 c103fd4:	e5922000 	ldr	r2, [r2]
 c103fd8:	e3822b02 	orr	r2, r2, #2048	; 0x800
 c103fdc:	e5832000 	str	r2, [r3]
		    uart0int_putMenu();
 c103fe0:	ebfffea2 	bl	c103a70 <uart0int_putMenu>
			break;
 c103fe4:	ea0000d2 	b	c104334 <uart0int_isrRX+0x7d8>
		case 'a':
		case 'A':
			pasosPorMin = 10;
 c103fe8:	e59f336c 	ldr	r3, [pc, #876]	; c10435c <uart0int_isrRX+0x800>
 c103fec:	e3a0200a 	mov	r2, #10
 c103ff0:	e5c32000 	strb	r2, [r3]
		    TCNTB2  = cntb[pasosPorMin];                               // Carga T2
 c103ff4:	e59f3364 	ldr	r3, [pc, #868]	; c104360 <uart0int_isrRX+0x804>
 c103ff8:	e59f235c 	ldr	r2, [pc, #860]	; c10435c <uart0int_isrRX+0x800>
 c103ffc:	e5d22000 	ldrb	r2, [r2]
 c104000:	e20220ff 	and	r2, r2, #255	; 0xff
 c104004:	e59f1348 	ldr	r1, [pc, #840]	; c104354 <uart0int_isrRX+0x7f8>
 c104008:	e1a02082 	lsl	r2, r2, #1
 c10400c:	e0812002 	add	r2, r1, r2
 c104010:	e1d220b0 	ldrh	r2, [r2]
 c104014:	e5832000 	str	r2, [r3]
		    TCON    = (TCON & ~(0xf << 12)) | (1 << 15) | (1 << 13);   // Modo interval, carga TCNT2, stop T2
 c104018:	e59f3338 	ldr	r3, [pc, #824]	; c104358 <uart0int_isrRX+0x7fc>
 c10401c:	e59f2334 	ldr	r2, [pc, #820]	; c104358 <uart0int_isrRX+0x7fc>
 c104020:	e5922000 	ldr	r2, [r2]
 c104024:	e3c22a0f 	bic	r2, r2, #61440	; 0xf000
 c104028:	e3822a0a 	orr	r2, r2, #40960	; 0xa000
 c10402c:	e5832000 	str	r2, [r3]
		    TCON    = (TCON & ~(0xf << 12)) | (1 << 15) | (1 << 12);   // Modo interval, no carga TCNT2, start T2
 c104030:	e59f3320 	ldr	r3, [pc, #800]	; c104358 <uart0int_isrRX+0x7fc>
 c104034:	e59f231c 	ldr	r2, [pc, #796]	; c104358 <uart0int_isrRX+0x7fc>
 c104038:	e5922000 	ldr	r2, [r2]
 c10403c:	e3c22a0f 	bic	r2, r2, #61440	; 0xf000
 c104040:	e3822a09 	orr	r2, r2, #36864	; 0x9000
 c104044:	e5832000 	str	r2, [r3]
		    INTMSK &= ~BIT_TIMER2;
 c104048:	e59f3314 	ldr	r3, [pc, #788]	; c104364 <uart0int_isrRX+0x808>
 c10404c:	e59f2310 	ldr	r2, [pc, #784]	; c104364 <uart0int_isrRX+0x808>
 c104050:	e5922000 	ldr	r2, [r2]
 c104054:	e3c22b02 	bic	r2, r2, #2048	; 0x800
 c104058:	e5832000 	str	r2, [r3]
			uart0int_putMenu();
 c10405c:	ebfffe83 	bl	c103a70 <uart0int_putMenu>
			break;
 c104060:	ea0000b3 	b	c104334 <uart0int_isrRX+0x7d8>
		case '5':
			pasosPorMin = ( pasosPorMin != 0 && pasosPorMin < 200 ? pasosPorMin+1 : pasosPorMin );
 c104064:	e59f32f0 	ldr	r3, [pc, #752]	; c10435c <uart0int_isrRX+0x800>
 c104068:	e5d33000 	ldrb	r3, [r3]
 c10406c:	e20330ff 	and	r3, r3, #255	; 0xff
 c104070:	e3530000 	cmp	r3, #0
 c104074:	0a00000a 	beq	c1040a4 <uart0int_isrRX+0x548>
 c104078:	e59f32dc 	ldr	r3, [pc, #732]	; c10435c <uart0int_isrRX+0x800>
 c10407c:	e5d33000 	ldrb	r3, [r3]
 c104080:	e20330ff 	and	r3, r3, #255	; 0xff
 c104084:	e35300c7 	cmp	r3, #199	; 0xc7
 c104088:	8a000005 	bhi	c1040a4 <uart0int_isrRX+0x548>
 c10408c:	e59f32c8 	ldr	r3, [pc, #712]	; c10435c <uart0int_isrRX+0x800>
 c104090:	e5d33000 	ldrb	r3, [r3]
 c104094:	e20330ff 	and	r3, r3, #255	; 0xff
 c104098:	e2833001 	add	r3, r3, #1
 c10409c:	e20330ff 	and	r3, r3, #255	; 0xff
 c1040a0:	ea000002 	b	c1040b0 <uart0int_isrRX+0x554>
 c1040a4:	e59f32b0 	ldr	r3, [pc, #688]	; c10435c <uart0int_isrRX+0x800>
 c1040a8:	e5d33000 	ldrb	r3, [r3]
 c1040ac:	e20330ff 	and	r3, r3, #255	; 0xff
 c1040b0:	e59f22a4 	ldr	r2, [pc, #676]	; c10435c <uart0int_isrRX+0x800>
 c1040b4:	e5c23000 	strb	r3, [r2]
		    TCNTB2  = cntb[pasosPorMin];                               // Carga T2
 c1040b8:	e59f32a0 	ldr	r3, [pc, #672]	; c104360 <uart0int_isrRX+0x804>
 c1040bc:	e59f2298 	ldr	r2, [pc, #664]	; c10435c <uart0int_isrRX+0x800>
 c1040c0:	e5d22000 	ldrb	r2, [r2]
 c1040c4:	e20220ff 	and	r2, r2, #255	; 0xff
 c1040c8:	e59f1284 	ldr	r1, [pc, #644]	; c104354 <uart0int_isrRX+0x7f8>
 c1040cc:	e1a02082 	lsl	r2, r2, #1
 c1040d0:	e0812002 	add	r2, r1, r2
 c1040d4:	e1d220b0 	ldrh	r2, [r2]
 c1040d8:	e5832000 	str	r2, [r3]
		    TCON    = (TCON & ~(0xf << 12)) | (1 << 15) | (1 << 13);   // Modo interval, carga TCNT2, stop T2
 c1040dc:	e59f3274 	ldr	r3, [pc, #628]	; c104358 <uart0int_isrRX+0x7fc>
 c1040e0:	e59f2270 	ldr	r2, [pc, #624]	; c104358 <uart0int_isrRX+0x7fc>
 c1040e4:	e5922000 	ldr	r2, [r2]
 c1040e8:	e3c22a0f 	bic	r2, r2, #61440	; 0xf000
 c1040ec:	e3822a0a 	orr	r2, r2, #40960	; 0xa000
 c1040f0:	e5832000 	str	r2, [r3]
		    TCON    = (TCON & ~(0xf << 12)) | (1 << 15) | (1 << 12);   // Modo interval, no carga TCNT2, start T2
 c1040f4:	e59f325c 	ldr	r3, [pc, #604]	; c104358 <uart0int_isrRX+0x7fc>
 c1040f8:	e59f2258 	ldr	r2, [pc, #600]	; c104358 <uart0int_isrRX+0x7fc>
 c1040fc:	e5922000 	ldr	r2, [r2]
 c104100:	e3c22a0f 	bic	r2, r2, #61440	; 0xf000
 c104104:	e3822a09 	orr	r2, r2, #36864	; 0x9000
 c104108:	e5832000 	str	r2, [r3]
			uart0int_putMenu();
 c10410c:	ebfffe57 	bl	c103a70 <uart0int_putMenu>
			break;
 c104110:	ea000087 	b	c104334 <uart0int_isrRX+0x7d8>
		case '6':
			pasosPorMin = ( pasosPorMin != 0 && pasosPorMin <= 190 ? pasosPorMin+10 : pasosPorMin );
 c104114:	e59f3240 	ldr	r3, [pc, #576]	; c10435c <uart0int_isrRX+0x800>
 c104118:	e5d33000 	ldrb	r3, [r3]
 c10411c:	e20330ff 	and	r3, r3, #255	; 0xff
 c104120:	e3530000 	cmp	r3, #0
 c104124:	0a00000a 	beq	c104154 <uart0int_isrRX+0x5f8>
 c104128:	e59f322c 	ldr	r3, [pc, #556]	; c10435c <uart0int_isrRX+0x800>
 c10412c:	e5d33000 	ldrb	r3, [r3]
 c104130:	e20330ff 	and	r3, r3, #255	; 0xff
 c104134:	e35300be 	cmp	r3, #190	; 0xbe
 c104138:	8a000005 	bhi	c104154 <uart0int_isrRX+0x5f8>
 c10413c:	e59f3218 	ldr	r3, [pc, #536]	; c10435c <uart0int_isrRX+0x800>
 c104140:	e5d33000 	ldrb	r3, [r3]
 c104144:	e20330ff 	and	r3, r3, #255	; 0xff
 c104148:	e283300a 	add	r3, r3, #10
 c10414c:	e20330ff 	and	r3, r3, #255	; 0xff
 c104150:	ea000002 	b	c104160 <uart0int_isrRX+0x604>
 c104154:	e59f3200 	ldr	r3, [pc, #512]	; c10435c <uart0int_isrRX+0x800>
 c104158:	e5d33000 	ldrb	r3, [r3]
 c10415c:	e20330ff 	and	r3, r3, #255	; 0xff
 c104160:	e59f21f4 	ldr	r2, [pc, #500]	; c10435c <uart0int_isrRX+0x800>
 c104164:	e5c23000 	strb	r3, [r2]
		    TCNTB2  = cntb[pasosPorMin];                               // Carga T2
 c104168:	e59f31f0 	ldr	r3, [pc, #496]	; c104360 <uart0int_isrRX+0x804>
 c10416c:	e59f21e8 	ldr	r2, [pc, #488]	; c10435c <uart0int_isrRX+0x800>
 c104170:	e5d22000 	ldrb	r2, [r2]
 c104174:	e20220ff 	and	r2, r2, #255	; 0xff
 c104178:	e59f11d4 	ldr	r1, [pc, #468]	; c104354 <uart0int_isrRX+0x7f8>
 c10417c:	e1a02082 	lsl	r2, r2, #1
 c104180:	e0812002 	add	r2, r1, r2
 c104184:	e1d220b0 	ldrh	r2, [r2]
 c104188:	e5832000 	str	r2, [r3]
		    TCON    = (TCON & ~(0xf << 12)) | (1 << 15) | (1 << 13);   // Modo interval, carga TCNT2, stop T2
 c10418c:	e59f31c4 	ldr	r3, [pc, #452]	; c104358 <uart0int_isrRX+0x7fc>
 c104190:	e59f21c0 	ldr	r2, [pc, #448]	; c104358 <uart0int_isrRX+0x7fc>
 c104194:	e5922000 	ldr	r2, [r2]
 c104198:	e3c22a0f 	bic	r2, r2, #61440	; 0xf000
 c10419c:	e3822a0a 	orr	r2, r2, #40960	; 0xa000
 c1041a0:	e5832000 	str	r2, [r3]
		    TCON    = (TCON & ~(0xf << 12)) | (1 << 15) | (1 << 12);   // Modo interval, no carga TCNT2, start T2
 c1041a4:	e59f31ac 	ldr	r3, [pc, #428]	; c104358 <uart0int_isrRX+0x7fc>
 c1041a8:	e59f21a8 	ldr	r2, [pc, #424]	; c104358 <uart0int_isrRX+0x7fc>
 c1041ac:	e5922000 	ldr	r2, [r2]
 c1041b0:	e3c22a0f 	bic	r2, r2, #61440	; 0xf000
 c1041b4:	e3822a09 	orr	r2, r2, #36864	; 0x9000
 c1041b8:	e5832000 	str	r2, [r3]
		    uart0int_putMenu();
 c1041bc:	ebfffe2b 	bl	c103a70 <uart0int_putMenu>
			break;
 c1041c0:	ea00005b 	b	c104334 <uart0int_isrRX+0x7d8>
		case '7':
			pasosPorMin = ( pasosPorMin != 0 && pasosPorMin > 10 ? pasosPorMin-1 : pasosPorMin );
 c1041c4:	e59f3190 	ldr	r3, [pc, #400]	; c10435c <uart0int_isrRX+0x800>
 c1041c8:	e5d33000 	ldrb	r3, [r3]
 c1041cc:	e20330ff 	and	r3, r3, #255	; 0xff
 c1041d0:	e3530000 	cmp	r3, #0
 c1041d4:	0a00000a 	beq	c104204 <uart0int_isrRX+0x6a8>
 c1041d8:	e59f317c 	ldr	r3, [pc, #380]	; c10435c <uart0int_isrRX+0x800>
 c1041dc:	e5d33000 	ldrb	r3, [r3]
 c1041e0:	e20330ff 	and	r3, r3, #255	; 0xff
 c1041e4:	e353000a 	cmp	r3, #10
 c1041e8:	9a000005 	bls	c104204 <uart0int_isrRX+0x6a8>
 c1041ec:	e59f3168 	ldr	r3, [pc, #360]	; c10435c <uart0int_isrRX+0x800>
 c1041f0:	e5d33000 	ldrb	r3, [r3]
 c1041f4:	e20330ff 	and	r3, r3, #255	; 0xff
 c1041f8:	e2433001 	sub	r3, r3, #1
 c1041fc:	e20330ff 	and	r3, r3, #255	; 0xff
 c104200:	ea000002 	b	c104210 <uart0int_isrRX+0x6b4>
 c104204:	e59f3150 	ldr	r3, [pc, #336]	; c10435c <uart0int_isrRX+0x800>
 c104208:	e5d33000 	ldrb	r3, [r3]
 c10420c:	e20330ff 	and	r3, r3, #255	; 0xff
 c104210:	e59f2144 	ldr	r2, [pc, #324]	; c10435c <uart0int_isrRX+0x800>
 c104214:	e5c23000 	strb	r3, [r2]
		    TCNTB2  = cntb[pasosPorMin];                               // Carga T2
 c104218:	e59f3140 	ldr	r3, [pc, #320]	; c104360 <uart0int_isrRX+0x804>
 c10421c:	e59f2138 	ldr	r2, [pc, #312]	; c10435c <uart0int_isrRX+0x800>
 c104220:	e5d22000 	ldrb	r2, [r2]
 c104224:	e20220ff 	and	r2, r2, #255	; 0xff
 c104228:	e59f1124 	ldr	r1, [pc, #292]	; c104354 <uart0int_isrRX+0x7f8>
 c10422c:	e1a02082 	lsl	r2, r2, #1
 c104230:	e0812002 	add	r2, r1, r2
 c104234:	e1d220b0 	ldrh	r2, [r2]
 c104238:	e5832000 	str	r2, [r3]
		    TCON    = (TCON & ~(0xf << 12)) | (1 << 15) | (1 << 13);   // Modo interval, carga TCNT2, stop T2
 c10423c:	e59f3114 	ldr	r3, [pc, #276]	; c104358 <uart0int_isrRX+0x7fc>
 c104240:	e59f2110 	ldr	r2, [pc, #272]	; c104358 <uart0int_isrRX+0x7fc>
 c104244:	e5922000 	ldr	r2, [r2]
 c104248:	e3c22a0f 	bic	r2, r2, #61440	; 0xf000
 c10424c:	e3822a0a 	orr	r2, r2, #40960	; 0xa000
 c104250:	e5832000 	str	r2, [r3]
		    TCON    = (TCON & ~(0xf << 12)) | (1 << 15) | (1 << 12);   // Modo interval, no carga TCNT2, start T2
 c104254:	e59f30fc 	ldr	r3, [pc, #252]	; c104358 <uart0int_isrRX+0x7fc>
 c104258:	e59f20f8 	ldr	r2, [pc, #248]	; c104358 <uart0int_isrRX+0x7fc>
 c10425c:	e5922000 	ldr	r2, [r2]
 c104260:	e3c22a0f 	bic	r2, r2, #61440	; 0xf000
 c104264:	e3822a09 	orr	r2, r2, #36864	; 0x9000
 c104268:	e5832000 	str	r2, [r3]
			uart0int_putMenu();
 c10426c:	ebfffdff 	bl	c103a70 <uart0int_putMenu>
			break;
 c104270:	ea00002f 	b	c104334 <uart0int_isrRX+0x7d8>
		case '8':
			pasosPorMin = ( pasosPorMin != 0 && pasosPorMin >= 20 ? pasosPorMin-10 : pasosPorMin );
 c104274:	e59f30e0 	ldr	r3, [pc, #224]	; c10435c <uart0int_isrRX+0x800>
 c104278:	e5d33000 	ldrb	r3, [r3]
 c10427c:	e20330ff 	and	r3, r3, #255	; 0xff
 c104280:	e3530000 	cmp	r3, #0
 c104284:	0a00000a 	beq	c1042b4 <uart0int_isrRX+0x758>
 c104288:	e59f30cc 	ldr	r3, [pc, #204]	; c10435c <uart0int_isrRX+0x800>
 c10428c:	e5d33000 	ldrb	r3, [r3]
 c104290:	e20330ff 	and	r3, r3, #255	; 0xff
 c104294:	e3530013 	cmp	r3, #19
 c104298:	9a000005 	bls	c1042b4 <uart0int_isrRX+0x758>
 c10429c:	e59f30b8 	ldr	r3, [pc, #184]	; c10435c <uart0int_isrRX+0x800>
 c1042a0:	e5d33000 	ldrb	r3, [r3]
 c1042a4:	e20330ff 	and	r3, r3, #255	; 0xff
 c1042a8:	e243300a 	sub	r3, r3, #10
 c1042ac:	e20330ff 	and	r3, r3, #255	; 0xff
 c1042b0:	ea000002 	b	c1042c0 <uart0int_isrRX+0x764>
 c1042b4:	e59f30a0 	ldr	r3, [pc, #160]	; c10435c <uart0int_isrRX+0x800>
 c1042b8:	e5d33000 	ldrb	r3, [r3]
 c1042bc:	e20330ff 	and	r3, r3, #255	; 0xff
 c1042c0:	e59f2094 	ldr	r2, [pc, #148]	; c10435c <uart0int_isrRX+0x800>
 c1042c4:	e5c23000 	strb	r3, [r2]
		    TCNTB2  = cntb[pasosPorMin];                               // Carga T2
 c1042c8:	e59f3090 	ldr	r3, [pc, #144]	; c104360 <uart0int_isrRX+0x804>
 c1042cc:	e59f2088 	ldr	r2, [pc, #136]	; c10435c <uart0int_isrRX+0x800>
 c1042d0:	e5d22000 	ldrb	r2, [r2]
 c1042d4:	e20220ff 	and	r2, r2, #255	; 0xff
 c1042d8:	e59f1074 	ldr	r1, [pc, #116]	; c104354 <uart0int_isrRX+0x7f8>
 c1042dc:	e1a02082 	lsl	r2, r2, #1
 c1042e0:	e0812002 	add	r2, r1, r2
 c1042e4:	e1d220b0 	ldrh	r2, [r2]
 c1042e8:	e5832000 	str	r2, [r3]
		    TCON    = (TCON & ~(0xf << 12)) | (1 << 15) | (1 << 13);   // Modo interval, carga TCNT2, stop T2
 c1042ec:	e59f3064 	ldr	r3, [pc, #100]	; c104358 <uart0int_isrRX+0x7fc>
 c1042f0:	e59f2060 	ldr	r2, [pc, #96]	; c104358 <uart0int_isrRX+0x7fc>
 c1042f4:	e5922000 	ldr	r2, [r2]
 c1042f8:	e3c22a0f 	bic	r2, r2, #61440	; 0xf000
 c1042fc:	e3822a0a 	orr	r2, r2, #40960	; 0xa000
 c104300:	e5832000 	str	r2, [r3]
		    TCON    = (TCON & ~(0xf << 12)) | (1 << 15) | (1 << 12);   // Modo interval, no carga TCNT2, start T2
 c104304:	e59f304c 	ldr	r3, [pc, #76]	; c104358 <uart0int_isrRX+0x7fc>
 c104308:	e59f2048 	ldr	r2, [pc, #72]	; c104358 <uart0int_isrRX+0x7fc>
 c10430c:	e5922000 	ldr	r2, [r2]
 c104310:	e3c22a0f 	bic	r2, r2, #61440	; 0xf000
 c104314:	e3822a09 	orr	r2, r2, #36864	; 0x9000
 c104318:	e5832000 	str	r2, [r3]
			uart0int_putMenu();
 c10431c:	ebfffdd3 	bl	c103a70 <uart0int_putMenu>
			break;
 c104320:	ea000003 	b	c104334 <uart0int_isrRX+0x7d8>
	    case '\n':
			break;
		default:
			uart0int_putMenu();
 c104324:	ebfffdd1 	bl	c103a70 <uart0int_putMenu>
			break;
 c104328:	e1a00000 	nop			; (mov r0, r0)
 c10432c:	ea000000 	b	c104334 <uart0int_isrRX+0x7d8>
		    TCON    = (TCON & ~(0xf << 12)) | (1 << 15) | (1 << 13);   // Modo interval, carga TCNT2, stop T2
		    TCON    = (TCON & ~(0xf << 12)) | (1 << 15) | (1 << 12);   // Modo interval, no carga TCNT2, start T2
			uart0int_putMenu();
			break;
	    case '\n':
			break;
 c104330:	e1a00000 	nop			; (mov r0, r0)
		default:
			uart0int_putMenu();
			break;
	}

}
 c104334:	e24bd01c 	sub	sp, fp, #28
 c104338:	e89d680f 	ldm	sp, {r0, r1, r2, r3, fp, sp, lr}
 c10433c:	e49dc004 	pop	{ip}		; (ldr ip, [sp], #4)
 c104340:	e25ef004 	subs	pc, lr, #4
 c104344:	01e00024 	.word	0x01e00024
 c104348:	01d00024 	.word	0x01d00024
 c10434c:	0c10bd82 	.word	0x0c10bd82
 c104350:	01d50030 	.word	0x01d50030
 c104354:	0c109f2c 	.word	0x0c109f2c
 c104358:	01d50008 	.word	0x01d50008
 c10435c:	0c10bd83 	.word	0x0c10bd83
 c104360:	01d50024 	.word	0x01d50024
 c104364:	01e0000c 	.word	0x01e0000c

0c104368 <fifo_init>:

/*******************************************************************/

void fifo_init( fifo_t *pfifo )
{
 c104368:	e1a0c00d 	mov	ip, sp
 c10436c:	e92dd800 	push	{fp, ip, lr, pc}
 c104370:	e24cb004 	sub	fp, ip, #4
 c104374:	e24dd008 	sub	sp, sp, #8
 c104378:	e50b0010 	str	r0, [fp, #-16]
	pfifo->head = 0;
 c10437c:	e51b3010 	ldr	r3, [fp, #-16]
 c104380:	e3a02000 	mov	r2, #0
 c104384:	e1c320b0 	strh	r2, [r3]
	pfifo->tail = 0;
 c104388:	e51b3010 	ldr	r3, [fp, #-16]
 c10438c:	e3a02000 	mov	r2, #0
 c104390:	e1c320b2 	strh	r2, [r3, #2]
	pfifo->size = 0;
 c104394:	e51b3010 	ldr	r3, [fp, #-16]
 c104398:	e3a02000 	mov	r2, #0
 c10439c:	e1c320b4 	strh	r2, [r3, #4]
}
 c1043a0:	e24bd00c 	sub	sp, fp, #12
 c1043a4:	e89d6800 	ldm	sp, {fp, sp, lr}
 c1043a8:	e12fff1e 	bx	lr

0c1043ac <fifo_enqueue>:

void fifo_enqueue( fifo_t *pfifo, uint8 data )
{
 c1043ac:	e1a0c00d 	mov	ip, sp
 c1043b0:	e92dd800 	push	{fp, ip, lr, pc}
 c1043b4:	e24cb004 	sub	fp, ip, #4
 c1043b8:	e24dd008 	sub	sp, sp, #8
 c1043bc:	e50b0010 	str	r0, [fp, #-16]
 c1043c0:	e1a03001 	mov	r3, r1
 c1043c4:	e54b3011 	strb	r3, [fp, #-17]	; 0xffffffef
	pfifo->buffer[pfifo->tail++] = data;
 c1043c8:	e51b3010 	ldr	r3, [fp, #-16]
 c1043cc:	e1d330b2 	ldrh	r3, [r3, #2]
 c1043d0:	e1a03803 	lsl	r3, r3, #16
 c1043d4:	e1a03823 	lsr	r3, r3, #16
 c1043d8:	e1a01003 	mov	r1, r3
 c1043dc:	e51b0010 	ldr	r0, [fp, #-16]
 c1043e0:	e3a02006 	mov	r2, #6
 c1043e4:	e0801001 	add	r1, r0, r1
 c1043e8:	e0812002 	add	r2, r1, r2
 c1043ec:	e55b1011 	ldrb	r1, [fp, #-17]	; 0xffffffef
 c1043f0:	e5c21000 	strb	r1, [r2]
 c1043f4:	e2833001 	add	r3, r3, #1
 c1043f8:	e1a03803 	lsl	r3, r3, #16
 c1043fc:	e1a02823 	lsr	r2, r3, #16
 c104400:	e51b3010 	ldr	r3, [fp, #-16]
 c104404:	e1c320b2 	strh	r2, [r3, #2]
	if( pfifo->tail == FIFO_SIZE )
 c104408:	e51b3010 	ldr	r3, [fp, #-16]
 c10440c:	e1d330b2 	ldrh	r3, [r3, #2]
 c104410:	e1a03803 	lsl	r3, r3, #16
 c104414:	e1a03823 	lsr	r3, r3, #16
 c104418:	e3530b01 	cmp	r3, #1024	; 0x400
 c10441c:	1a000002 	bne	c10442c <fifo_enqueue+0x80>
		pfifo->tail = 0;
 c104420:	e51b3010 	ldr	r3, [fp, #-16]
 c104424:	e3a02000 	mov	r2, #0
 c104428:	e1c320b2 	strh	r2, [r3, #2]
	INT_DISABLE;
 c10442c:	e10f0000 	mrs	r0, CPSR
 c104430:	e52d0004 	push	{r0}		; (str r0, [sp, #-4]!)
 c104434:	e38000c0 	orr	r0, r0, #192	; 0xc0
 c104438:	e121f000 	msr	CPSR_c, r0
	pfifo->size++;
 c10443c:	e51b3010 	ldr	r3, [fp, #-16]
 c104440:	e1d330b4 	ldrh	r3, [r3, #4]
 c104444:	e1a03803 	lsl	r3, r3, #16
 c104448:	e1a03823 	lsr	r3, r3, #16
 c10444c:	e2833001 	add	r3, r3, #1
 c104450:	e1a03803 	lsl	r3, r3, #16
 c104454:	e1a02823 	lsr	r2, r3, #16
 c104458:	e51b3010 	ldr	r3, [fp, #-16]
 c10445c:	e1c320b4 	strh	r2, [r3, #4]
	INT_ENABLE;
 c104460:	e49d0004 	pop	{r0}		; (ldr r0, [sp], #4)
 c104464:	e121f000 	msr	CPSR_c, r0
}
 c104468:	e24bd00c 	sub	sp, fp, #12
 c10446c:	e89d6800 	ldm	sp, {fp, sp, lr}
 c104470:	e12fff1e 	bx	lr

0c104474 <fifo_dequeue>:

void fifo_dequeue( fifo_t *pfifo, uint8 *data )
{
 c104474:	e1a0c00d 	mov	ip, sp
 c104478:	e92dd800 	push	{fp, ip, lr, pc}
 c10447c:	e24cb004 	sub	fp, ip, #4
 c104480:	e24dd008 	sub	sp, sp, #8
 c104484:	e50b0010 	str	r0, [fp, #-16]
 c104488:	e50b1014 	str	r1, [fp, #-20]	; 0xffffffec
	*data = pfifo->buffer[pfifo->head++];
 c10448c:	e51b3010 	ldr	r3, [fp, #-16]
 c104490:	e1d330b0 	ldrh	r3, [r3]
 c104494:	e1a03803 	lsl	r3, r3, #16
 c104498:	e1a03823 	lsr	r3, r3, #16
 c10449c:	e1a01003 	mov	r1, r3
 c1044a0:	e51b0010 	ldr	r0, [fp, #-16]
 c1044a4:	e3a02006 	mov	r2, #6
 c1044a8:	e0801001 	add	r1, r0, r1
 c1044ac:	e0812002 	add	r2, r1, r2
 c1044b0:	e5d21000 	ldrb	r1, [r2]
 c1044b4:	e51b2014 	ldr	r2, [fp, #-20]	; 0xffffffec
 c1044b8:	e5c21000 	strb	r1, [r2]
 c1044bc:	e2833001 	add	r3, r3, #1
 c1044c0:	e1a03803 	lsl	r3, r3, #16
 c1044c4:	e1a02823 	lsr	r2, r3, #16
 c1044c8:	e51b3010 	ldr	r3, [fp, #-16]
 c1044cc:	e1c320b0 	strh	r2, [r3]
	if( pfifo->head == FIFO_SIZE )
 c1044d0:	e51b3010 	ldr	r3, [fp, #-16]
 c1044d4:	e1d330b0 	ldrh	r3, [r3]
 c1044d8:	e1a03803 	lsl	r3, r3, #16
 c1044dc:	e1a03823 	lsr	r3, r3, #16
 c1044e0:	e3530b01 	cmp	r3, #1024	; 0x400
 c1044e4:	1a000002 	bne	c1044f4 <fifo_dequeue+0x80>
		pfifo->head = 0;
 c1044e8:	e51b3010 	ldr	r3, [fp, #-16]
 c1044ec:	e3a02000 	mov	r2, #0
 c1044f0:	e1c320b0 	strh	r2, [r3]
	INT_DISABLE;
 c1044f4:	e10f0000 	mrs	r0, CPSR
 c1044f8:	e52d0004 	push	{r0}		; (str r0, [sp, #-4]!)
 c1044fc:	e38000c0 	orr	r0, r0, #192	; 0xc0
 c104500:	e121f000 	msr	CPSR_c, r0
	pfifo->size--;
 c104504:	e51b3010 	ldr	r3, [fp, #-16]
 c104508:	e1d330b4 	ldrh	r3, [r3, #4]
 c10450c:	e1a03803 	lsl	r3, r3, #16
 c104510:	e1a03823 	lsr	r3, r3, #16
 c104514:	e2433001 	sub	r3, r3, #1
 c104518:	e1a03803 	lsl	r3, r3, #16
 c10451c:	e1a02823 	lsr	r2, r3, #16
 c104520:	e51b3010 	ldr	r3, [fp, #-16]
 c104524:	e1c320b4 	strh	r2, [r3, #4]
	INT_ENABLE;
 c104528:	e49d0004 	pop	{r0}		; (ldr r0, [sp], #4)
 c10452c:	e121f000 	msr	CPSR_c, r0
}
 c104530:	e24bd00c 	sub	sp, fp, #12
 c104534:	e89d6800 	ldm	sp, {fp, sp, lr}
 c104538:	e12fff1e 	bx	lr

0c10453c <fifo_is_empty>:

boolean fifo_is_empty( fifo_t *pfifo )
{
 c10453c:	e1a0c00d 	mov	ip, sp
 c104540:	e92dd800 	push	{fp, ip, lr, pc}
 c104544:	e24cb004 	sub	fp, ip, #4
 c104548:	e24dd008 	sub	sp, sp, #8
 c10454c:	e50b0010 	str	r0, [fp, #-16]
	return (pfifo->size == 0);
 c104550:	e51b3010 	ldr	r3, [fp, #-16]
 c104554:	e1d330b4 	ldrh	r3, [r3, #4]
 c104558:	e1a03803 	lsl	r3, r3, #16
 c10455c:	e1a03823 	lsr	r3, r3, #16
 c104560:	e3530000 	cmp	r3, #0
 c104564:	13a03000 	movne	r3, #0
 c104568:	03a03001 	moveq	r3, #1
 c10456c:	e20330ff 	and	r3, r3, #255	; 0xff
}
 c104570:	e1a00003 	mov	r0, r3
 c104574:	e24bd00c 	sub	sp, fp, #12
 c104578:	e89d6800 	ldm	sp, {fp, sp, lr}
 c10457c:	e12fff1e 	bx	lr

0c104580 <fifo_is_full>:

boolean fifo_is_full( fifo_t *pfifo )
{
 c104580:	e1a0c00d 	mov	ip, sp
 c104584:	e92dd800 	push	{fp, ip, lr, pc}
 c104588:	e24cb004 	sub	fp, ip, #4
 c10458c:	e24dd008 	sub	sp, sp, #8
 c104590:	e50b0010 	str	r0, [fp, #-16]
	return (pfifo->size == FIFO_SIZE-1);
 c104594:	e51b3010 	ldr	r3, [fp, #-16]
 c104598:	e1d330b4 	ldrh	r3, [r3, #4]
 c10459c:	e1a03803 	lsl	r3, r3, #16
 c1045a0:	e1a02823 	lsr	r2, r3, #16
 c1045a4:	e59f301c 	ldr	r3, [pc, #28]	; c1045c8 <fifo_is_full+0x48>
 c1045a8:	e1520003 	cmp	r2, r3
 c1045ac:	13a03000 	movne	r3, #0
 c1045b0:	03a03001 	moveq	r3, #1
 c1045b4:	e20330ff 	and	r3, r3, #255	; 0xff
}
 c1045b8:	e1a00003 	mov	r0, r3
 c1045bc:	e24bd00c 	sub	sp, fp, #12
 c1045c0:	e89d6800 	ldm	sp, {fp, sp, lr}
 c1045c4:	e12fff1e 	bx	lr
 c1045c8:	000003ff 	.word	0x000003ff

0c1045cc <keypad_scan>:
#include <keypad.h>

extern void isr_KEYPAD_dummy( void );

uint8 keypad_scan( void )
{
 c1045cc:	e1a0c00d 	mov	ip, sp
 c1045d0:	e92dd800 	push	{fp, ip, lr, pc}
 c1045d4:	e24cb004 	sub	fp, ip, #4
 c1045d8:	e24dd008 	sub	sp, sp, #8
    uint8 aux;

    aux = *( KEYPAD_ADDR + 0x1c );
 c1045dc:	e59f31fc 	ldr	r3, [pc, #508]	; c1047e0 <keypad_scan+0x214>
 c1045e0:	e5d33000 	ldrb	r3, [r3]
 c1045e4:	e54b300d 	strb	r3, [fp, #-13]
    if( (aux & 0x0f) != 0x0f )
 c1045e8:	e55b300d 	ldrb	r3, [fp, #-13]
 c1045ec:	e203300f 	and	r3, r3, #15
 c1045f0:	e353000f 	cmp	r3, #15
 c1045f4:	0a000017 	beq	c104658 <keypad_scan+0x8c>
    {
        if( (aux & 0x8) == 0 )
 c1045f8:	e55b300d 	ldrb	r3, [fp, #-13]
 c1045fc:	e2033008 	and	r3, r3, #8
 c104600:	e3530000 	cmp	r3, #0
 c104604:	1a000001 	bne	c104610 <keypad_scan+0x44>
            return KEYPAD_KEY0;
 c104608:	e3a03000 	mov	r3, #0
 c10460c:	ea00006f 	b	c1047d0 <keypad_scan+0x204>
        else if( (aux & 0x4) == 0 )
 c104610:	e55b300d 	ldrb	r3, [fp, #-13]
 c104614:	e2033004 	and	r3, r3, #4
 c104618:	e3530000 	cmp	r3, #0
 c10461c:	1a000001 	bne	c104628 <keypad_scan+0x5c>
            return KEYPAD_KEY1;
 c104620:	e3a03001 	mov	r3, #1
 c104624:	ea000069 	b	c1047d0 <keypad_scan+0x204>
        else if( (aux & 0x2) == 0 )
 c104628:	e55b300d 	ldrb	r3, [fp, #-13]
 c10462c:	e2033002 	and	r3, r3, #2
 c104630:	e3530000 	cmp	r3, #0
 c104634:	1a000001 	bne	c104640 <keypad_scan+0x74>
            return KEYPAD_KEY2;
 c104638:	e3a03002 	mov	r3, #2
 c10463c:	ea000063 	b	c1047d0 <keypad_scan+0x204>
        else if( (aux & 0x1) == 0 )
 c104640:	e55b300d 	ldrb	r3, [fp, #-13]
 c104644:	e2033001 	and	r3, r3, #1
 c104648:	e3530000 	cmp	r3, #0
 c10464c:	1a000001 	bne	c104658 <keypad_scan+0x8c>
            return KEYPAD_KEY3;
 c104650:	e3a03003 	mov	r3, #3
 c104654:	ea00005d 	b	c1047d0 <keypad_scan+0x204>
    }
	aux = *( KEYPAD_ADDR + 0x1a );
 c104658:	e59f3184 	ldr	r3, [pc, #388]	; c1047e4 <keypad_scan+0x218>
 c10465c:	e5d33000 	ldrb	r3, [r3]
 c104660:	e54b300d 	strb	r3, [fp, #-13]
	if( (aux & 0x0f) != 0x0f )
 c104664:	e55b300d 	ldrb	r3, [fp, #-13]
 c104668:	e203300f 	and	r3, r3, #15
 c10466c:	e353000f 	cmp	r3, #15
 c104670:	0a000017 	beq	c1046d4 <keypad_scan+0x108>
	{
		if( (aux & 0x8) == 0 )
 c104674:	e55b300d 	ldrb	r3, [fp, #-13]
 c104678:	e2033008 	and	r3, r3, #8
 c10467c:	e3530000 	cmp	r3, #0
 c104680:	1a000001 	bne	c10468c <keypad_scan+0xc0>
			return KEYPAD_KEY4;
 c104684:	e3a03004 	mov	r3, #4
 c104688:	ea000050 	b	c1047d0 <keypad_scan+0x204>
		else if( (aux & 0x4) == 0 )
 c10468c:	e55b300d 	ldrb	r3, [fp, #-13]
 c104690:	e2033004 	and	r3, r3, #4
 c104694:	e3530000 	cmp	r3, #0
 c104698:	1a000001 	bne	c1046a4 <keypad_scan+0xd8>
			return KEYPAD_KEY5;
 c10469c:	e3a03005 	mov	r3, #5
 c1046a0:	ea00004a 	b	c1047d0 <keypad_scan+0x204>
		else if( (aux & 0x2) == 0 )
 c1046a4:	e55b300d 	ldrb	r3, [fp, #-13]
 c1046a8:	e2033002 	and	r3, r3, #2
 c1046ac:	e3530000 	cmp	r3, #0
 c1046b0:	1a000001 	bne	c1046bc <keypad_scan+0xf0>
			return KEYPAD_KEY6;
 c1046b4:	e3a03006 	mov	r3, #6
 c1046b8:	ea000044 	b	c1047d0 <keypad_scan+0x204>
		else if( (aux & 0x1) == 0 )
 c1046bc:	e55b300d 	ldrb	r3, [fp, #-13]
 c1046c0:	e2033001 	and	r3, r3, #1
 c1046c4:	e3530000 	cmp	r3, #0
 c1046c8:	1a000001 	bne	c1046d4 <keypad_scan+0x108>
			return KEYPAD_KEY7;
 c1046cc:	e3a03007 	mov	r3, #7
 c1046d0:	ea00003e 	b	c1047d0 <keypad_scan+0x204>
	}
    aux = *( KEYPAD_ADDR + 0x16 );
 c1046d4:	e59f310c 	ldr	r3, [pc, #268]	; c1047e8 <keypad_scan+0x21c>
 c1046d8:	e5d33000 	ldrb	r3, [r3]
 c1046dc:	e54b300d 	strb	r3, [fp, #-13]
	if( (aux & 0x0f) != 0x0f )
 c1046e0:	e55b300d 	ldrb	r3, [fp, #-13]
 c1046e4:	e203300f 	and	r3, r3, #15
 c1046e8:	e353000f 	cmp	r3, #15
 c1046ec:	0a000017 	beq	c104750 <keypad_scan+0x184>
	{
		if( (aux & 0x8) == 0 )
 c1046f0:	e55b300d 	ldrb	r3, [fp, #-13]
 c1046f4:	e2033008 	and	r3, r3, #8
 c1046f8:	e3530000 	cmp	r3, #0
 c1046fc:	1a000001 	bne	c104708 <keypad_scan+0x13c>
			return KEYPAD_KEY8;
 c104700:	e3a03008 	mov	r3, #8
 c104704:	ea000031 	b	c1047d0 <keypad_scan+0x204>
		else if( (aux & 0x4) == 0 )
 c104708:	e55b300d 	ldrb	r3, [fp, #-13]
 c10470c:	e2033004 	and	r3, r3, #4
 c104710:	e3530000 	cmp	r3, #0
 c104714:	1a000001 	bne	c104720 <keypad_scan+0x154>
			return KEYPAD_KEY9;
 c104718:	e3a03009 	mov	r3, #9
 c10471c:	ea00002b 	b	c1047d0 <keypad_scan+0x204>
		else if( (aux & 0x2) == 0 )
 c104720:	e55b300d 	ldrb	r3, [fp, #-13]
 c104724:	e2033002 	and	r3, r3, #2
 c104728:	e3530000 	cmp	r3, #0
 c10472c:	1a000001 	bne	c104738 <keypad_scan+0x16c>
			return KEYPAD_KEYA;
 c104730:	e3a0300a 	mov	r3, #10
 c104734:	ea000025 	b	c1047d0 <keypad_scan+0x204>
		else if( (aux & 0x1) == 0 )
 c104738:	e55b300d 	ldrb	r3, [fp, #-13]
 c10473c:	e2033001 	and	r3, r3, #1
 c104740:	e3530000 	cmp	r3, #0
 c104744:	1a000001 	bne	c104750 <keypad_scan+0x184>
			return KEYPAD_KEYB;
 c104748:	e3a0300b 	mov	r3, #11
 c10474c:	ea00001f 	b	c1047d0 <keypad_scan+0x204>
	}

	aux = *( KEYPAD_ADDR + 0x0e );
 c104750:	e59f3094 	ldr	r3, [pc, #148]	; c1047ec <keypad_scan+0x220>
 c104754:	e5d33000 	ldrb	r3, [r3]
 c104758:	e54b300d 	strb	r3, [fp, #-13]
	if( (aux & 0x0f) != 0x0f )
 c10475c:	e55b300d 	ldrb	r3, [fp, #-13]
 c104760:	e203300f 	and	r3, r3, #15
 c104764:	e353000f 	cmp	r3, #15
 c104768:	0a000017 	beq	c1047cc <keypad_scan+0x200>
	{
		if( (aux & 0x8) == 0 )
 c10476c:	e55b300d 	ldrb	r3, [fp, #-13]
 c104770:	e2033008 	and	r3, r3, #8
 c104774:	e3530000 	cmp	r3, #0
 c104778:	1a000001 	bne	c104784 <keypad_scan+0x1b8>
			return KEYPAD_KEYC;
 c10477c:	e3a0300c 	mov	r3, #12
 c104780:	ea000012 	b	c1047d0 <keypad_scan+0x204>
		else if( (aux & 0x4) == 0 )
 c104784:	e55b300d 	ldrb	r3, [fp, #-13]
 c104788:	e2033004 	and	r3, r3, #4
 c10478c:	e3530000 	cmp	r3, #0
 c104790:	1a000001 	bne	c10479c <keypad_scan+0x1d0>
			return KEYPAD_KEYD;
 c104794:	e3a0300d 	mov	r3, #13
 c104798:	ea00000c 	b	c1047d0 <keypad_scan+0x204>
		else if( (aux & 0x2) == 0 )
 c10479c:	e55b300d 	ldrb	r3, [fp, #-13]
 c1047a0:	e2033002 	and	r3, r3, #2
 c1047a4:	e3530000 	cmp	r3, #0
 c1047a8:	1a000001 	bne	c1047b4 <keypad_scan+0x1e8>
			return KEYPAD_KEYE;
 c1047ac:	e3a0300e 	mov	r3, #14
 c1047b0:	ea000006 	b	c1047d0 <keypad_scan+0x204>
		else if( (aux & 0x1) == 0 )
 c1047b4:	e55b300d 	ldrb	r3, [fp, #-13]
 c1047b8:	e2033001 	and	r3, r3, #1
 c1047bc:	e3530000 	cmp	r3, #0
 c1047c0:	1a000001 	bne	c1047cc <keypad_scan+0x200>
			return KEYPAD_KEYF;
 c1047c4:	e3a0300f 	mov	r3, #15
 c1047c8:	ea000000 	b	c1047d0 <keypad_scan+0x204>

	}
    return KEYPAD_FAILURE;
 c1047cc:	e3a030ff 	mov	r3, #255	; 0xff
}
 c1047d0:	e1a00003 	mov	r0, r3
 c1047d4:	e24bd00c 	sub	sp, fp, #12
 c1047d8:	e89d6800 	ldm	sp, {fp, sp, lr}
 c1047dc:	e12fff1e 	bx	lr
 c1047e0:	0600001c 	.word	0x0600001c
 c1047e4:	0600001a 	.word	0x0600001a
 c1047e8:	06000016 	.word	0x06000016
 c1047ec:	0600000e 	.word	0x0600000e

0c1047f0 <keypad_pressed>:

uint8 keypad_pressed( void )
{
 c1047f0:	e1a0c00d 	mov	ip, sp
 c1047f4:	e92dd800 	push	{fp, ip, lr, pc}
 c1047f8:	e24cb004 	sub	fp, ip, #4
    return !(PDATG & (1<<1));
 c1047fc:	e59f3024 	ldr	r3, [pc, #36]	; c104828 <keypad_pressed+0x38>
 c104800:	e5933000 	ldr	r3, [r3]
 c104804:	e2033002 	and	r3, r3, #2
 c104808:	e3530000 	cmp	r3, #0
 c10480c:	13a03000 	movne	r3, #0
 c104810:	03a03001 	moveq	r3, #1
 c104814:	e20330ff 	and	r3, r3, #255	; 0xff
}
 c104818:	e1a00003 	mov	r0, r3
 c10481c:	e24bd00c 	sub	sp, fp, #12
 c104820:	e89d6800 	ldm	sp, {fp, sp, lr}
 c104824:	e12fff1e 	bx	lr
 c104828:	01d20044 	.word	0x01d20044

0c10482c <keypad_open>:

void keypad_open( void (*isr)(void) )
{
 c10482c:	e1a0c00d 	mov	ip, sp
 c104830:	e92dd800 	push	{fp, ip, lr, pc}
 c104834:	e24cb004 	sub	fp, ip, #4
 c104838:	e24dd008 	sub	sp, sp, #8
 c10483c:	e50b0010 	str	r0, [fp, #-16]
     pISR_KEYPAD = isr;
 c104840:	e59f303c 	ldr	r3, [pc, #60]	; c104884 <keypad_open+0x58>
 c104844:	e51b2010 	ldr	r2, [fp, #-16]
 c104848:	e5832000 	str	r2, [r3]
     	 EXTINTPND = 0x0;
 c10484c:	e59f3034 	ldr	r3, [pc, #52]	; c104888 <keypad_open+0x5c>
 c104850:	e3a02000 	mov	r2, #0
 c104854:	e5832000 	str	r2, [r3]
     	 I_ISPC = BIT_KEYPAD;
 c104858:	e59f302c 	ldr	r3, [pc, #44]	; c10488c <keypad_open+0x60>
 c10485c:	e3a02401 	mov	r2, #16777216	; 0x1000000
 c104860:	e5832000 	str	r2, [r3]
     	 INTMSK &= ~ (BIT_GLOBAL | BIT_KEYPAD);
 c104864:	e59f3024 	ldr	r3, [pc, #36]	; c104890 <keypad_open+0x64>
 c104868:	e59f2020 	ldr	r2, [pc, #32]	; c104890 <keypad_open+0x64>
 c10486c:	e5922000 	ldr	r2, [r2]
 c104870:	e3c22405 	bic	r2, r2, #83886080	; 0x5000000
 c104874:	e5832000 	str	r2, [r3]
}
 c104878:	e24bd00c 	sub	sp, fp, #12
 c10487c:	e89d6800 	ldm	sp, {fp, sp, lr}
 c104880:	e12fff1e 	bx	lr
 c104884:	0c7fff80 	.word	0x0c7fff80
 c104888:	01d20054 	.word	0x01d20054
 c10488c:	01e00024 	.word	0x01e00024
 c104890:	01e0000c 	.word	0x01e0000c

0c104894 <keypad_close>:

void keypad_close( void )
{
 c104894:	e1a0c00d 	mov	ip, sp
 c104898:	e92dd800 	push	{fp, ip, lr, pc}
 c10489c:	e24cb004 	sub	fp, ip, #4
    INTMSK |= BIT_KEYPAD;
 c1048a0:	e59f3024 	ldr	r3, [pc, #36]	; c1048cc <keypad_close+0x38>
 c1048a4:	e59f2020 	ldr	r2, [pc, #32]	; c1048cc <keypad_close+0x38>
 c1048a8:	e5922000 	ldr	r2, [r2]
 c1048ac:	e3822401 	orr	r2, r2, #16777216	; 0x1000000
 c1048b0:	e5832000 	str	r2, [r3]
    pISR_KEYPAD = isr_KEYPAD_dummy;
 c1048b4:	e59f3014 	ldr	r3, [pc, #20]	; c1048d0 <keypad_close+0x3c>
 c1048b8:	e59f2014 	ldr	r2, [pc, #20]	; c1048d4 <keypad_close+0x40>
 c1048bc:	e5832000 	str	r2, [r3]
}
 c1048c0:	e24bd00c 	sub	sp, fp, #12
 c1048c4:	e89d6800 	ldm	sp, {fp, sp, lr}
 c1048c8:	e12fff1e 	bx	lr
 c1048cc:	01e0000c 	.word	0x01e0000c
 c1048d0:	0c7fff80 	.word	0x0c7fff80
 c1048d4:	0c1072fc 	.word	0x0c1072fc

0c1048d8 <keypad_init>:

#if KEYPAD_IO_METHOD == POOLING


void keypad_init( void )
{
 c1048d8:	e1a0c00d 	mov	ip, sp
 c1048dc:	e92dd800 	push	{fp, ip, lr, pc}
 c1048e0:	e24cb004 	sub	fp, ip, #4
    timers_init();  
 c1048e4:	eb000b37 	bl	c1075c8 <timers_init>
};
 c1048e8:	e24bd00c 	sub	sp, fp, #12
 c1048ec:	e89d6800 	ldm	sp, {fp, sp, lr}
 c1048f0:	e12fff1e 	bx	lr

0c1048f4 <keypad_getchar>:

uint8 keypad_getchar( void )
{
 c1048f4:	e1a0c00d 	mov	ip, sp
 c1048f8:	e92dd800 	push	{fp, ip, lr, pc}
 c1048fc:	e24cb004 	sub	fp, ip, #4
 c104900:	e24dd008 	sub	sp, sp, #8
    uint8 scancode;
    while(!keypad_pressed());
 c104904:	e1a00000 	nop			; (mov r0, r0)
 c104908:	ebffffb8 	bl	c1047f0 <keypad_pressed>
 c10490c:	e1a03000 	mov	r3, r0
 c104910:	e3530000 	cmp	r3, #0
 c104914:	0afffffb 	beq	c104908 <keypad_getchar+0x14>
    sw_delay_ms(KEYPAD_KEYDOWN_DELAY);
 c104918:	e3a0001e 	mov	r0, #30
 c10491c:	eb000bd1 	bl	c107868 <sw_delay_ms>
    scancode=keypad_scan();
 c104920:	ebffff29 	bl	c1045cc <keypad_scan>
 c104924:	e1a03000 	mov	r3, r0
 c104928:	e54b300d 	strb	r3, [fp, #-13]

    while(keypad_pressed());
 c10492c:	e1a00000 	nop			; (mov r0, r0)
 c104930:	ebffffae 	bl	c1047f0 <keypad_pressed>
 c104934:	e1a03000 	mov	r3, r0
 c104938:	e3530000 	cmp	r3, #0
 c10493c:	1afffffb 	bne	c104930 <keypad_getchar+0x3c>
    sw_delay_ms(KEYPAD_KEYUP_DELAY);
 c104940:	e3a00064 	mov	r0, #100	; 0x64
 c104944:	eb000bc7 	bl	c107868 <sw_delay_ms>
    return scancode;
 c104948:	e55b300d 	ldrb	r3, [fp, #-13]
}
 c10494c:	e1a00003 	mov	r0, r3
 c104950:	e24bd00c 	sub	sp, fp, #12
 c104954:	e89d6800 	ldm	sp, {fp, sp, lr}
 c104958:	e12fff1e 	bx	lr

0c10495c <keypad_getchartime>:

uint8 keypad_getchartime( uint16 *ms )
{
 c10495c:	e1a0c00d 	mov	ip, sp
 c104960:	e92dd800 	push	{fp, ip, lr, pc}
 c104964:	e24cb004 	sub	fp, ip, #4
 c104968:	e24dd010 	sub	sp, sp, #16
 c10496c:	e50b0018 	str	r0, [fp, #-24]	; 0xffffffe8
    uint8 scancode;
    while(!keypad_pressed());
 c104970:	e1a00000 	nop			; (mov r0, r0)
 c104974:	ebffff9d 	bl	c1047f0 <keypad_pressed>
 c104978:	e1a03000 	mov	r3, r0
 c10497c:	e3530000 	cmp	r3, #0
 c104980:	0afffffb 	beq	c104974 <keypad_getchartime+0x18>
    timer3_start();
 c104984:	eb000c1e 	bl	c107a04 <timer3_start>
    sw_delay_ms(KEYPAD_KEYDOWN_DELAY);
 c104988:	e3a0001e 	mov	r0, #30
 c10498c:	eb000bb5 	bl	c107868 <sw_delay_ms>
    scancode=keypad_scan();
 c104990:	ebffff0d 	bl	c1045cc <keypad_scan>
 c104994:	e1a03000 	mov	r3, r0
 c104998:	e54b300d 	strb	r3, [fp, #-13]

    while(keypad_pressed());
 c10499c:	e1a00000 	nop			; (mov r0, r0)
 c1049a0:	ebffff92 	bl	c1047f0 <keypad_pressed>
 c1049a4:	e1a03000 	mov	r3, r0
 c1049a8:	e3530000 	cmp	r3, #0
 c1049ac:	1afffffb 	bne	c1049a0 <keypad_getchartime+0x44>
    *ms=timer3_stop()/10;
 c1049b0:	eb000c3f 	bl	c107ab4 <timer3_stop>
 c1049b4:	e1a03000 	mov	r3, r0
 c1049b8:	e1a02003 	mov	r2, r3
 c1049bc:	e59f3030 	ldr	r3, [pc, #48]	; c1049f4 <keypad_getchartime+0x98>
 c1049c0:	e0831392 	umull	r1, r3, r2, r3
 c1049c4:	e1a031a3 	lsr	r3, r3, #3
 c1049c8:	e1a03803 	lsl	r3, r3, #16
 c1049cc:	e1a02823 	lsr	r2, r3, #16
 c1049d0:	e51b3018 	ldr	r3, [fp, #-24]	; 0xffffffe8
 c1049d4:	e1c320b0 	strh	r2, [r3]
    sw_delay_ms(KEYPAD_KEYUP_DELAY);
 c1049d8:	e3a00064 	mov	r0, #100	; 0x64
 c1049dc:	eb000ba1 	bl	c107868 <sw_delay_ms>
    return scancode;
 c1049e0:	e55b300d 	ldrb	r3, [fp, #-13]

}
 c1049e4:	e1a00003 	mov	r0, r3
 c1049e8:	e24bd00c 	sub	sp, fp, #12
 c1049ec:	e89d6800 	ldm	sp, {fp, sp, lr}
 c1049f0:	e12fff1e 	bx	lr
 c1049f4:	cccccccd 	.word	0xcccccccd

0c1049f8 <keypad_timeout_getchar>:

uint8 keypad_timeout_getchar( uint16 ms )
{
 c1049f8:	e1a0c00d 	mov	ip, sp
 c1049fc:	e92dd800 	push	{fp, ip, lr, pc}
 c104a00:	e24cb004 	sub	fp, ip, #4
 c104a04:	e24dd010 	sub	sp, sp, #16
 c104a08:	e1a03000 	mov	r3, r0
 c104a0c:	e14b31b6 	strh	r3, [fp, #-22]	; 0xffffffea
    uint8 scancode;
    timer3_start_timeout(ms*10);
 c104a10:	e15b31b6 	ldrh	r3, [fp, #-22]	; 0xffffffea
 c104a14:	e1a02003 	mov	r2, r3
 c104a18:	e1a02102 	lsl	r2, r2, #2
 c104a1c:	e0823003 	add	r3, r2, r3
 c104a20:	e1a03083 	lsl	r3, r3, #1
 c104a24:	e1a03803 	lsl	r3, r3, #16
 c104a28:	e1a03823 	lsr	r3, r3, #16
 c104a2c:	e1a00003 	mov	r0, r3
 c104a30:	eb000c34 	bl	c107b08 <timer3_start_timeout>
    while(!keypad_pressed() && !timer3_timeout());
 c104a34:	e1a00000 	nop			; (mov r0, r0)
 c104a38:	ebffff6c 	bl	c1047f0 <keypad_pressed>
 c104a3c:	e1a03000 	mov	r3, r0
 c104a40:	e3530000 	cmp	r3, #0
 c104a44:	1a000003 	bne	c104a58 <keypad_timeout_getchar+0x60>
 c104a48:	eb000c5c 	bl	c107bc0 <timer3_timeout>
 c104a4c:	e1a03000 	mov	r3, r0
 c104a50:	e3530000 	cmp	r3, #0
 c104a54:	0afffff7 	beq	c104a38 <keypad_timeout_getchar+0x40>
    if (timer3_timeout())
 c104a58:	eb000c58 	bl	c107bc0 <timer3_timeout>
 c104a5c:	e1a03000 	mov	r3, r0
 c104a60:	e3530000 	cmp	r3, #0
 c104a64:	0a000001 	beq	c104a70 <keypad_timeout_getchar+0x78>
    	return KEYPAD_TIMEOUT;
 c104a68:	e3a030fe 	mov	r3, #254	; 0xfe
 c104a6c:	ea000016 	b	c104acc <keypad_timeout_getchar+0xd4>
    sw_delay_ms(KEYPAD_KEYDOWN_DELAY);
 c104a70:	e3a0001e 	mov	r0, #30
 c104a74:	eb000b7b 	bl	c107868 <sw_delay_ms>
    scancode= keypad_scan();
 c104a78:	ebfffed3 	bl	c1045cc <keypad_scan>
 c104a7c:	e1a03000 	mov	r3, r0
 c104a80:	e54b300d 	strb	r3, [fp, #-13]

    while (keypad_pressed()&& !timer3_timeout());
 c104a84:	e1a00000 	nop			; (mov r0, r0)
 c104a88:	ebffff58 	bl	c1047f0 <keypad_pressed>
 c104a8c:	e1a03000 	mov	r3, r0
 c104a90:	e3530000 	cmp	r3, #0
 c104a94:	0a000003 	beq	c104aa8 <keypad_timeout_getchar+0xb0>
 c104a98:	eb000c48 	bl	c107bc0 <timer3_timeout>
 c104a9c:	e1a03000 	mov	r3, r0
 c104aa0:	e3530000 	cmp	r3, #0
 c104aa4:	0afffff7 	beq	c104a88 <keypad_timeout_getchar+0x90>
    if(timer3_timeout())
 c104aa8:	eb000c44 	bl	c107bc0 <timer3_timeout>
 c104aac:	e1a03000 	mov	r3, r0
 c104ab0:	e3530000 	cmp	r3, #0
 c104ab4:	0a000001 	beq	c104ac0 <keypad_timeout_getchar+0xc8>
    	return KEYPAD_TIMEOUT;
 c104ab8:	e3a030fe 	mov	r3, #254	; 0xfe
 c104abc:	ea000002 	b	c104acc <keypad_timeout_getchar+0xd4>
    sw_delay_ms(KEYPAD_KEYUP_DELAY);
 c104ac0:	e3a00064 	mov	r0, #100	; 0x64
 c104ac4:	eb000b67 	bl	c107868 <sw_delay_ms>
    return scancode;
 c104ac8:	e55b300d 	ldrb	r3, [fp, #-13]

}
 c104acc:	e1a00003 	mov	r0, r3
 c104ad0:	e24bd00c 	sub	sp, fp, #12
 c104ad4:	e89d6800 	ldm	sp, {fp, sp, lr}
 c104ad8:	e12fff1e 	bx	lr

0c104adc <lcd_init>:
uint8 lcd_buffer[LCD_BUFFER_SIZE];

static uint8 state;

void lcd_init( void )
{      
 c104adc:	e1a0c00d 	mov	ip, sp
 c104ae0:	e92dd800 	push	{fp, ip, lr, pc}
 c104ae4:	e24cb004 	sub	fp, ip, #4

    DITHMODE = 0x12210;
 c104ae8:	e59f30fc 	ldr	r3, [pc, #252]	; c104bec <lcd_init+0x110>
 c104aec:	e59f20fc 	ldr	r2, [pc, #252]	; c104bf0 <lcd_init+0x114>
 c104af0:	e5832000 	str	r2, [r3]
    DP1_2    = 0xA5A5;
 c104af4:	e59f30f8 	ldr	r3, [pc, #248]	; c104bf4 <lcd_init+0x118>
 c104af8:	e59f20f8 	ldr	r2, [pc, #248]	; c104bf8 <lcd_init+0x11c>
 c104afc:	e5832000 	str	r2, [r3]
    DP4_7    = 0xBA5DA65;
 c104b00:	e59f30f4 	ldr	r3, [pc, #244]	; c104bfc <lcd_init+0x120>
 c104b04:	e59f20f4 	ldr	r2, [pc, #244]	; c104c00 <lcd_init+0x124>
 c104b08:	e5832000 	str	r2, [r3]
    DP3_5    = 0xA5A5F;
 c104b0c:	e59f30f0 	ldr	r3, [pc, #240]	; c104c04 <lcd_init+0x128>
 c104b10:	e59f20f0 	ldr	r2, [pc, #240]	; c104c08 <lcd_init+0x12c>
 c104b14:	e5832000 	str	r2, [r3]
    DP2_3    = 0xD6B;
 c104b18:	e59f30ec 	ldr	r3, [pc, #236]	; c104c0c <lcd_init+0x130>
 c104b1c:	e59f20ec 	ldr	r2, [pc, #236]	; c104c10 <lcd_init+0x134>
 c104b20:	e5832000 	str	r2, [r3]
    DP5_7    = 0xEB7B5ED;
 c104b24:	e59f30e8 	ldr	r3, [pc, #232]	; c104c14 <lcd_init+0x138>
 c104b28:	e59f20e8 	ldr	r2, [pc, #232]	; c104c18 <lcd_init+0x13c>
 c104b2c:	e5832000 	str	r2, [r3]
    DP3_4    = 0x7DBE;
 c104b30:	e59f30e4 	ldr	r3, [pc, #228]	; c104c1c <lcd_init+0x140>
 c104b34:	e59f20e4 	ldr	r2, [pc, #228]	; c104c20 <lcd_init+0x144>
 c104b38:	e5832000 	str	r2, [r3]
    DP4_5    = 0x7EBDF;
 c104b3c:	e59f30e0 	ldr	r3, [pc, #224]	; c104c24 <lcd_init+0x148>
 c104b40:	e59f20e0 	ldr	r2, [pc, #224]	; c104c28 <lcd_init+0x14c>
 c104b44:	e5832000 	str	r2, [r3]
    DP6_7    = 0x7FDFBFE;
 c104b48:	e59f30dc 	ldr	r3, [pc, #220]	; c104c2c <lcd_init+0x150>
 c104b4c:	e59f20dc 	ldr	r2, [pc, #220]	; c104c30 <lcd_init+0x154>
 c104b50:	e5832000 	str	r2, [r3]
    
    REDLUT   = 0x0;
 c104b54:	e59f30d8 	ldr	r3, [pc, #216]	; c104c34 <lcd_init+0x158>
 c104b58:	e3a02000 	mov	r2, #0
 c104b5c:	e5832000 	str	r2, [r3]
    GREENLUT = 0x0;
 c104b60:	e59f30d0 	ldr	r3, [pc, #208]	; c104c38 <lcd_init+0x15c>
 c104b64:	e3a02000 	mov	r2, #0
 c104b68:	e5832000 	str	r2, [r3]
    BLUELUT  = 0x0;
 c104b6c:	e59f30c8 	ldr	r3, [pc, #200]	; c104c3c <lcd_init+0x160>
 c104b70:	e3a02000 	mov	r2, #0
 c104b74:	e5832000 	str	r2, [r3]

    LCDCON1  = 0x1C020;
 c104b78:	e3a0361f 	mov	r3, #32505856	; 0x1f00000
 c104b7c:	e59f20bc 	ldr	r2, [pc, #188]	; c104c40 <lcd_init+0x164>
 c104b80:	e5832000 	str	r2, [r3]
    LCDCON2  = 0x13CEF;
 c104b84:	e59f30b8 	ldr	r3, [pc, #184]	; c104c44 <lcd_init+0x168>
 c104b88:	e59f20b8 	ldr	r2, [pc, #184]	; c104c48 <lcd_init+0x16c>
 c104b8c:	e5832000 	str	r2, [r3]
    LCDCON3  = 0x0;
 c104b90:	e59f30b4 	ldr	r3, [pc, #180]	; c104c4c <lcd_init+0x170>
 c104b94:	e3a02000 	mov	r2, #0
 c104b98:	e5832000 	str	r2, [r3]

    LCDSADDR1 = (2 << 27) | ((uint32)lcd_buffer >> 1);
 c104b9c:	e59f30ac 	ldr	r3, [pc, #172]	; c104c50 <lcd_init+0x174>
 c104ba0:	e59f20ac 	ldr	r2, [pc, #172]	; c104c54 <lcd_init+0x178>
 c104ba4:	e1a020a2 	lsr	r2, r2, #1
 c104ba8:	e3822201 	orr	r2, r2, #268435456	; 0x10000000
 c104bac:	e5832000 	str	r2, [r3]
    LCDSADDR2 = (1 << 29) | (((uint32)lcd_buffer + LCD_BUFFER_SIZE) & 0x3FFFFF) >> 1;
 c104bb0:	e59f20a0 	ldr	r2, [pc, #160]	; c104c58 <lcd_init+0x17c>
 c104bb4:	e59f3098 	ldr	r3, [pc, #152]	; c104c54 <lcd_init+0x178>
 c104bb8:	e2833c96 	add	r3, r3, #38400	; 0x9600
 c104bbc:	e3c334ff 	bic	r3, r3, #-16777216	; 0xff000000
 c104bc0:	e3c33503 	bic	r3, r3, #12582912	; 0xc00000
 c104bc4:	e1a030a3 	lsr	r3, r3, #1
 c104bc8:	e3833202 	orr	r3, r3, #536870912	; 0x20000000
 c104bcc:	e5823000 	str	r3, [r2]
    LCDSADDR3 = 0x50;
 c104bd0:	e59f3084 	ldr	r3, [pc, #132]	; c104c5c <lcd_init+0x180>
 c104bd4:	e3a02050 	mov	r2, #80	; 0x50
 c104bd8:	e5832000 	str	r2, [r3]
    
    lcd_off();
 c104bdc:	eb00002e 	bl	c104c9c <lcd_off>
}
 c104be0:	e24bd00c 	sub	sp, fp, #12
 c104be4:	e89d6800 	ldm	sp, {fp, sp, lr}
 c104be8:	e12fff1e 	bx	lr
 c104bec:	01f00044 	.word	0x01f00044
 c104bf0:	00012210 	.word	0x00012210
 c104bf4:	01f00020 	.word	0x01f00020
 c104bf8:	0000a5a5 	.word	0x0000a5a5
 c104bfc:	01f00024 	.word	0x01f00024
 c104c00:	0ba5da65 	.word	0x0ba5da65
 c104c04:	01f00028 	.word	0x01f00028
 c104c08:	000a5a5f 	.word	0x000a5a5f
 c104c0c:	01f0002c 	.word	0x01f0002c
 c104c10:	00000d6b 	.word	0x00000d6b
 c104c14:	01f00030 	.word	0x01f00030
 c104c18:	0eb7b5ed 	.word	0x0eb7b5ed
 c104c1c:	01f00034 	.word	0x01f00034
 c104c20:	00007dbe 	.word	0x00007dbe
 c104c24:	01f00038 	.word	0x01f00038
 c104c28:	0007ebdf 	.word	0x0007ebdf
 c104c2c:	01f0003c 	.word	0x01f0003c
 c104c30:	07fdfbfe 	.word	0x07fdfbfe
 c104c34:	01f00014 	.word	0x01f00014
 c104c38:	01f00018 	.word	0x01f00018
 c104c3c:	01f0001c 	.word	0x01f0001c
 c104c40:	0001c020 	.word	0x0001c020
 c104c44:	01f00004 	.word	0x01f00004
 c104c48:	00013cef 	.word	0x00013cef
 c104c4c:	01f00040 	.word	0x01f00040
 c104c50:	01f00008 	.word	0x01f00008
 c104c54:	0c10bdc8 	.word	0x0c10bdc8
 c104c58:	01f0000c 	.word	0x01f0000c
 c104c5c:	01f00010 	.word	0x01f00010

0c104c60 <lcd_on>:

void lcd_on( void )
{
 c104c60:	e1a0c00d 	mov	ip, sp
 c104c64:	e92dd800 	push	{fp, ip, lr, pc}
 c104c68:	e24cb004 	sub	fp, ip, #4
    LCDCON1 |= (1<<0);
 c104c6c:	e3a0361f 	mov	r3, #32505856	; 0x1f00000
 c104c70:	e3a0261f 	mov	r2, #32505856	; 0x1f00000
 c104c74:	e5922000 	ldr	r2, [r2]
 c104c78:	e3822001 	orr	r2, r2, #1
 c104c7c:	e5832000 	str	r2, [r3]
    state = 1;
 c104c80:	e59f3010 	ldr	r3, [pc, #16]	; c104c98 <lcd_on+0x38>
 c104c84:	e3a02001 	mov	r2, #1
 c104c88:	e5c32000 	strb	r2, [r3]
}
 c104c8c:	e24bd00c 	sub	sp, fp, #12
 c104c90:	e89d6800 	ldm	sp, {fp, sp, lr}
 c104c94:	e12fff1e 	bx	lr
 c104c98:	0c10bd84 	.word	0x0c10bd84

0c104c9c <lcd_off>:

void lcd_off( void )
{
 c104c9c:	e1a0c00d 	mov	ip, sp
 c104ca0:	e92dd800 	push	{fp, ip, lr, pc}
 c104ca4:	e24cb004 	sub	fp, ip, #4
	LCDCON1 &= ~(1<<0);
 c104ca8:	e3a0361f 	mov	r3, #32505856	; 0x1f00000
 c104cac:	e3a0261f 	mov	r2, #32505856	; 0x1f00000
 c104cb0:	e5922000 	ldr	r2, [r2]
 c104cb4:	e3c22001 	bic	r2, r2, #1
 c104cb8:	e5832000 	str	r2, [r3]
	state = 0;
 c104cbc:	e59f3010 	ldr	r3, [pc, #16]	; c104cd4 <lcd_off+0x38>
 c104cc0:	e3a02000 	mov	r2, #0
 c104cc4:	e5c32000 	strb	r2, [r3]
}
 c104cc8:	e24bd00c 	sub	sp, fp, #12
 c104ccc:	e89d6800 	ldm	sp, {fp, sp, lr}
 c104cd0:	e12fff1e 	bx	lr
 c104cd4:	0c10bd84 	.word	0x0c10bd84

0c104cd8 <lcd_status>:

uint8 lcd_status( void )
{
 c104cd8:	e1a0c00d 	mov	ip, sp
 c104cdc:	e92dd800 	push	{fp, ip, lr, pc}
 c104ce0:	e24cb004 	sub	fp, ip, #4
	return state;
 c104ce4:	e59f3010 	ldr	r3, [pc, #16]	; c104cfc <lcd_status+0x24>
 c104ce8:	e5d33000 	ldrb	r3, [r3]
}
 c104cec:	e1a00003 	mov	r0, r3
 c104cf0:	e24bd00c 	sub	sp, fp, #12
 c104cf4:	e89d6800 	ldm	sp, {fp, sp, lr}
 c104cf8:	e12fff1e 	bx	lr
 c104cfc:	0c10bd84 	.word	0x0c10bd84

0c104d00 <lcd_clear>:

void lcd_clear( void )
{
 c104d00:	e1a0c00d 	mov	ip, sp
 c104d04:	e92dd800 	push	{fp, ip, lr, pc}
 c104d08:	e24cb004 	sub	fp, ip, #4
 c104d0c:	e24dd008 	sub	sp, sp, #8
	uint32 i;
	for (i=0; i < LCD_BUFFER_SIZE; i++){
 c104d10:	e3a03000 	mov	r3, #0
 c104d14:	e50b3010 	str	r3, [fp, #-16]
 c104d18:	ea000007 	b	c104d3c <lcd_clear+0x3c>
		lcd_buffer[i]=0;
 c104d1c:	e59f2034 	ldr	r2, [pc, #52]	; c104d58 <lcd_clear+0x58>
 c104d20:	e51b3010 	ldr	r3, [fp, #-16]
 c104d24:	e0823003 	add	r3, r2, r3
 c104d28:	e3a02000 	mov	r2, #0
 c104d2c:	e5c32000 	strb	r2, [r3]
}

void lcd_clear( void )
{
	uint32 i;
	for (i=0; i < LCD_BUFFER_SIZE; i++){
 c104d30:	e51b3010 	ldr	r3, [fp, #-16]
 c104d34:	e2833001 	add	r3, r3, #1
 c104d38:	e50b3010 	str	r3, [fp, #-16]
 c104d3c:	e51b2010 	ldr	r2, [fp, #-16]
 c104d40:	e59f3014 	ldr	r3, [pc, #20]	; c104d5c <lcd_clear+0x5c>
 c104d44:	e1520003 	cmp	r2, r3
 c104d48:	9afffff3 	bls	c104d1c <lcd_clear+0x1c>
		lcd_buffer[i]=0;
	}
}
 c104d4c:	e24bd00c 	sub	sp, fp, #12
 c104d50:	e89d6800 	ldm	sp, {fp, sp, lr}
 c104d54:	e12fff1e 	bx	lr
 c104d58:	0c10bdc8 	.word	0x0c10bdc8
 c104d5c:	000095ff 	.word	0x000095ff

0c104d60 <lcd_putpixel>:

void lcd_putpixel( uint16 x, uint16 y, uint8 c)
{
 c104d60:	e1a0c00d 	mov	ip, sp
 c104d64:	e92dd800 	push	{fp, ip, lr, pc}
 c104d68:	e24cb004 	sub	fp, ip, #4
 c104d6c:	e24dd010 	sub	sp, sp, #16
 c104d70:	e1a03002 	mov	r3, r2
 c104d74:	e14b01b6 	strh	r0, [fp, #-22]	; 0xffffffea
 c104d78:	e14b11b8 	strh	r1, [fp, #-24]	; 0xffffffe8
 c104d7c:	e54b3019 	strb	r3, [fp, #-25]	; 0xffffffe7
    uint8 byte, bit;
    uint16 i;

    i = x/2 + y*(LCD_WIDTH/2);
 c104d80:	e15b31b6 	ldrh	r3, [fp, #-22]	; 0xffffffea
 c104d84:	e1a030a3 	lsr	r3, r3, #1
 c104d88:	e1a03803 	lsl	r3, r3, #16
 c104d8c:	e1a02823 	lsr	r2, r3, #16
 c104d90:	e15b31b8 	ldrh	r3, [fp, #-24]	; 0xffffffe8
 c104d94:	e1a01003 	mov	r1, r3
 c104d98:	e1a01101 	lsl	r1, r1, #2
 c104d9c:	e0813003 	add	r3, r1, r3
 c104da0:	e1a03283 	lsl	r3, r3, #5
 c104da4:	e1a03803 	lsl	r3, r3, #16
 c104da8:	e1a03823 	lsr	r3, r3, #16
 c104dac:	e0823003 	add	r3, r2, r3
 c104db0:	e14b30be 	strh	r3, [fp, #-14]
    bit = (1-x%2)*4;
 c104db4:	e15b31b6 	ldrh	r3, [fp, #-22]	; 0xffffffea
 c104db8:	e2033001 	and	r3, r3, #1
 c104dbc:	e3530000 	cmp	r3, #0
 c104dc0:	1a000001 	bne	c104dcc <lcd_putpixel+0x6c>
 c104dc4:	e3a03004 	mov	r3, #4
 c104dc8:	ea000000 	b	c104dd0 <lcd_putpixel+0x70>
 c104dcc:	e3a03000 	mov	r3, #0
 c104dd0:	e54b300f 	strb	r3, [fp, #-15]
    
    byte = lcd_buffer[i];
 c104dd4:	e15b30be 	ldrh	r3, [fp, #-14]
 c104dd8:	e59f2068 	ldr	r2, [pc, #104]	; c104e48 <lcd_putpixel+0xe8>
 c104ddc:	e7d23003 	ldrb	r3, [r2, r3]
 c104de0:	e54b3010 	strb	r3, [fp, #-16]
    byte &= ~(0xF << bit);
 c104de4:	e55b300f 	ldrb	r3, [fp, #-15]
 c104de8:	e3a0200f 	mov	r2, #15
 c104dec:	e1a03312 	lsl	r3, r2, r3
 c104df0:	e20330ff 	and	r3, r3, #255	; 0xff
 c104df4:	e1e03003 	mvn	r3, r3
 c104df8:	e20320ff 	and	r2, r3, #255	; 0xff
 c104dfc:	e55b3010 	ldrb	r3, [fp, #-16]
 c104e00:	e0023003 	and	r3, r2, r3
 c104e04:	e20330ff 	and	r3, r3, #255	; 0xff
 c104e08:	e54b3010 	strb	r3, [fp, #-16]
    byte |= c << bit;
 c104e0c:	e55b2019 	ldrb	r2, [fp, #-25]	; 0xffffffe7
 c104e10:	e55b300f 	ldrb	r3, [fp, #-15]
 c104e14:	e1a03312 	lsl	r3, r2, r3
 c104e18:	e20320ff 	and	r2, r3, #255	; 0xff
 c104e1c:	e55b3010 	ldrb	r3, [fp, #-16]
 c104e20:	e1823003 	orr	r3, r2, r3
 c104e24:	e20330ff 	and	r3, r3, #255	; 0xff
 c104e28:	e54b3010 	strb	r3, [fp, #-16]
    lcd_buffer[i] = byte;
 c104e2c:	e15b30be 	ldrh	r3, [fp, #-14]
 c104e30:	e59f2010 	ldr	r2, [pc, #16]	; c104e48 <lcd_putpixel+0xe8>
 c104e34:	e55b1010 	ldrb	r1, [fp, #-16]
 c104e38:	e7c21003 	strb	r1, [r2, r3]
}
 c104e3c:	e24bd00c 	sub	sp, fp, #12
 c104e40:	e89d6800 	ldm	sp, {fp, sp, lr}
 c104e44:	e12fff1e 	bx	lr
 c104e48:	0c10bdc8 	.word	0x0c10bdc8

0c104e4c <lcd_getpixel>:

uint8 lcd_getpixel( uint16 x, uint16 y )
{
 c104e4c:	e1a0c00d 	mov	ip, sp
 c104e50:	e92dd800 	push	{fp, ip, lr, pc}
 c104e54:	e24cb004 	sub	fp, ip, #4
 c104e58:	e24dd010 	sub	sp, sp, #16
 c104e5c:	e1a02000 	mov	r2, r0
 c104e60:	e1a03001 	mov	r3, r1
 c104e64:	e14b21b6 	strh	r2, [fp, #-22]	; 0xffffffea
 c104e68:	e14b31b8 	strh	r3, [fp, #-24]	; 0xffffffe8
	uint8 byte, bit;
	uint16 i;
	//Así un pixel (x,y):
	//Estará en el byte que ocupa la posición del array:  x/ 2 + y* (320/2)
	i= x/2 + y *(LCD_WIDTH/2);
 c104e6c:	e15b31b6 	ldrh	r3, [fp, #-22]	; 0xffffffea
 c104e70:	e1a030a3 	lsr	r3, r3, #1
 c104e74:	e1a03803 	lsl	r3, r3, #16
 c104e78:	e1a02823 	lsr	r2, r3, #16
 c104e7c:	e15b31b8 	ldrh	r3, [fp, #-24]	; 0xffffffe8
 c104e80:	e1a01003 	mov	r1, r3
 c104e84:	e1a01101 	lsl	r1, r1, #2
 c104e88:	e0813003 	add	r3, r1, r3
 c104e8c:	e1a03283 	lsl	r3, r3, #5
 c104e90:	e1a03803 	lsl	r3, r3, #16
 c104e94:	e1a03823 	lsr	r3, r3, #16
 c104e98:	e0823003 	add	r3, r2, r3
 c104e9c:	e14b30be 	strh	r3, [fp, #-14]
	//Dentro del byte estará ubicado a partir del bit:
	bit = (1-x%2)*4;
 c104ea0:	e15b31b6 	ldrh	r3, [fp, #-22]	; 0xffffffea
 c104ea4:	e2033001 	and	r3, r3, #1
 c104ea8:	e3530000 	cmp	r3, #0
 c104eac:	1a000001 	bne	c104eb8 <lcd_getpixel+0x6c>
 c104eb0:	e3a03004 	mov	r3, #4
 c104eb4:	ea000000 	b	c104ebc <lcd_getpixel+0x70>
 c104eb8:	e3a03000 	mov	r3, #0
 c104ebc:	e54b300f 	strb	r3, [fp, #-15]
	//Cojemos el byte
	byte= lcd_buffer[i];
 c104ec0:	e15b30be 	ldrh	r3, [fp, #-14]
 c104ec4:	e59f2024 	ldr	r2, [pc, #36]	; c104ef0 <lcd_getpixel+0xa4>
 c104ec8:	e7d23003 	ldrb	r3, [r2, r3]
 c104ecc:	e54b3010 	strb	r3, [fp, #-16]
	//Devolvemos el pixel
	return byte<<bit;
 c104ed0:	e55b2010 	ldrb	r2, [fp, #-16]
 c104ed4:	e55b300f 	ldrb	r3, [fp, #-15]
 c104ed8:	e1a03312 	lsl	r3, r2, r3
 c104edc:	e20330ff 	and	r3, r3, #255	; 0xff
}
 c104ee0:	e1a00003 	mov	r0, r3
 c104ee4:	e24bd00c 	sub	sp, fp, #12
 c104ee8:	e89d6800 	ldm	sp, {fp, sp, lr}
 c104eec:	e12fff1e 	bx	lr
 c104ef0:	0c10bdc8 	.word	0x0c10bdc8

0c104ef4 <lcd_draw_hrow>:

void lcd_draw_hrow( uint16 xleft, uint16 xright, uint16 y, uint8 color, uint16 width )
{
 c104ef4:	e1a0c00d 	mov	ip, sp
 c104ef8:	e92dd800 	push	{fp, ip, lr, pc}
 c104efc:	e24cb004 	sub	fp, ip, #4
 c104f00:	e24dd010 	sub	sp, sp, #16
 c104f04:	e14b01b6 	strh	r0, [fp, #-22]	; 0xffffffea
 c104f08:	e14b11b8 	strh	r1, [fp, #-24]	; 0xffffffe8
 c104f0c:	e14b21ba 	strh	r2, [fp, #-26]	; 0xffffffe6
 c104f10:	e54b301b 	strb	r3, [fp, #-27]	; 0xffffffe5
	uint16 yaux = y;
 c104f14:	e15b31ba 	ldrh	r3, [fp, #-26]	; 0xffffffe6
 c104f18:	e14b30be 	strh	r3, [fp, #-14]
	//Vamos aumentando la x para ir escribiendo en horizontal y cuando llegamos al final aumentamos la y, reseteamos cont
	while(yaux<=y + width){
 c104f1c:	ea000013 	b	c104f70 <lcd_draw_hrow+0x7c>
		uint16 cont = xleft;
 c104f20:	e15b31b6 	ldrh	r3, [fp, #-22]	; 0xffffffea
 c104f24:	e14b31b0 	strh	r3, [fp, #-16]
		while (cont <= xright){
 c104f28:	ea000009 	b	c104f54 <lcd_draw_hrow+0x60>
			lcd_putpixel(cont, yaux, color);
 c104f2c:	e15b11b0 	ldrh	r1, [fp, #-16]
 c104f30:	e15b20be 	ldrh	r2, [fp, #-14]
 c104f34:	e55b301b 	ldrb	r3, [fp, #-27]	; 0xffffffe5
 c104f38:	e1a00001 	mov	r0, r1
 c104f3c:	e1a01002 	mov	r1, r2
 c104f40:	e1a02003 	mov	r2, r3
 c104f44:	ebffff85 	bl	c104d60 <lcd_putpixel>
			cont++;
 c104f48:	e15b31b0 	ldrh	r3, [fp, #-16]
 c104f4c:	e2833001 	add	r3, r3, #1
 c104f50:	e14b31b0 	strh	r3, [fp, #-16]
{
	uint16 yaux = y;
	//Vamos aumentando la x para ir escribiendo en horizontal y cuando llegamos al final aumentamos la y, reseteamos cont
	while(yaux<=y + width){
		uint16 cont = xleft;
		while (cont <= xright){
 c104f54:	e15b21b0 	ldrh	r2, [fp, #-16]
 c104f58:	e15b31b8 	ldrh	r3, [fp, #-24]	; 0xffffffe8
 c104f5c:	e1520003 	cmp	r2, r3
 c104f60:	9afffff1 	bls	c104f2c <lcd_draw_hrow+0x38>
			lcd_putpixel(cont, yaux, color);
			cont++;
		}
		yaux++;
 c104f64:	e15b30be 	ldrh	r3, [fp, #-14]
 c104f68:	e2833001 	add	r3, r3, #1
 c104f6c:	e14b30be 	strh	r3, [fp, #-14]

void lcd_draw_hrow( uint16 xleft, uint16 xright, uint16 y, uint8 color, uint16 width )
{
	uint16 yaux = y;
	//Vamos aumentando la x para ir escribiendo en horizontal y cuando llegamos al final aumentamos la y, reseteamos cont
	while(yaux<=y + width){
 c104f70:	e15b20be 	ldrh	r2, [fp, #-14]
 c104f74:	e15b11ba 	ldrh	r1, [fp, #-26]	; 0xffffffe6
 c104f78:	e1db30b4 	ldrh	r3, [fp, #4]
 c104f7c:	e0813003 	add	r3, r1, r3
 c104f80:	e1520003 	cmp	r2, r3
 c104f84:	daffffe5 	ble	c104f20 <lcd_draw_hrow+0x2c>
			lcd_putpixel(cont, yaux, color);
			cont++;
		}
		yaux++;
	}
}
 c104f88:	e24bd00c 	sub	sp, fp, #12
 c104f8c:	e89d6800 	ldm	sp, {fp, sp, lr}
 c104f90:	e12fff1e 	bx	lr

0c104f94 <lcd_draw_vrow>:

void lcd_draw_vrow( uint16 yup, uint16 ydown, uint16 x, uint8 color, uint16 width )
{
 c104f94:	e1a0c00d 	mov	ip, sp
 c104f98:	e92dd800 	push	{fp, ip, lr, pc}
 c104f9c:	e24cb004 	sub	fp, ip, #4
 c104fa0:	e24dd010 	sub	sp, sp, #16
 c104fa4:	e14b01b6 	strh	r0, [fp, #-22]	; 0xffffffea
 c104fa8:	e14b11b8 	strh	r1, [fp, #-24]	; 0xffffffe8
 c104fac:	e14b21ba 	strh	r2, [fp, #-26]	; 0xffffffe6
 c104fb0:	e54b301b 	strb	r3, [fp, #-27]	; 0xffffffe5
	uint16 xaux = x;
 c104fb4:	e15b31ba 	ldrh	r3, [fp, #-26]	; 0xffffffe6
 c104fb8:	e14b30be 	strh	r3, [fp, #-14]
	//Vamos aumentando la y para ir escribiendo en horizontal y cuando llegamos al final aumentamos la x, reseteamos cont
	while(xaux<=x + width){
 c104fbc:	ea000013 	b	c105010 <lcd_draw_vrow+0x7c>
		uint16 cont = yup;
 c104fc0:	e15b31b6 	ldrh	r3, [fp, #-22]	; 0xffffffea
 c104fc4:	e14b31b0 	strh	r3, [fp, #-16]
		while (cont <= ydown){
 c104fc8:	ea000009 	b	c104ff4 <lcd_draw_vrow+0x60>
			lcd_putpixel(xaux, cont, color);
 c104fcc:	e15b10be 	ldrh	r1, [fp, #-14]
 c104fd0:	e15b21b0 	ldrh	r2, [fp, #-16]
 c104fd4:	e55b301b 	ldrb	r3, [fp, #-27]	; 0xffffffe5
 c104fd8:	e1a00001 	mov	r0, r1
 c104fdc:	e1a01002 	mov	r1, r2
 c104fe0:	e1a02003 	mov	r2, r3
 c104fe4:	ebffff5d 	bl	c104d60 <lcd_putpixel>
			cont++;
 c104fe8:	e15b31b0 	ldrh	r3, [fp, #-16]
 c104fec:	e2833001 	add	r3, r3, #1
 c104ff0:	e14b31b0 	strh	r3, [fp, #-16]
{
	uint16 xaux = x;
	//Vamos aumentando la y para ir escribiendo en horizontal y cuando llegamos al final aumentamos la x, reseteamos cont
	while(xaux<=x + width){
		uint16 cont = yup;
		while (cont <= ydown){
 c104ff4:	e15b21b0 	ldrh	r2, [fp, #-16]
 c104ff8:	e15b31b8 	ldrh	r3, [fp, #-24]	; 0xffffffe8
 c104ffc:	e1520003 	cmp	r2, r3
 c105000:	9afffff1 	bls	c104fcc <lcd_draw_vrow+0x38>
			lcd_putpixel(xaux, cont, color);
			cont++;
		}
		xaux++;
 c105004:	e15b30be 	ldrh	r3, [fp, #-14]
 c105008:	e2833001 	add	r3, r3, #1
 c10500c:	e14b30be 	strh	r3, [fp, #-14]

void lcd_draw_vrow( uint16 yup, uint16 ydown, uint16 x, uint8 color, uint16 width )
{
	uint16 xaux = x;
	//Vamos aumentando la y para ir escribiendo en horizontal y cuando llegamos al final aumentamos la x, reseteamos cont
	while(xaux<=x + width){
 c105010:	e15b20be 	ldrh	r2, [fp, #-14]
 c105014:	e15b11ba 	ldrh	r1, [fp, #-26]	; 0xffffffe6
 c105018:	e1db30b4 	ldrh	r3, [fp, #4]
 c10501c:	e0813003 	add	r3, r1, r3
 c105020:	e1520003 	cmp	r2, r3
 c105024:	daffffe5 	ble	c104fc0 <lcd_draw_vrow+0x2c>
			lcd_putpixel(xaux, cont, color);
			cont++;
		}
		xaux++;
	}
}
 c105028:	e24bd00c 	sub	sp, fp, #12
 c10502c:	e89d6800 	ldm	sp, {fp, sp, lr}
 c105030:	e12fff1e 	bx	lr

0c105034 <lcd_draw_box>:

void lcd_draw_box( uint16 xleft, uint16 yup, uint16 xright, uint16 ydown, uint8 color, uint16 width )
{
 c105034:	e1a0c00d 	mov	ip, sp
 c105038:	e92dd800 	push	{fp, ip, lr, pc}
 c10503c:	e24cb004 	sub	fp, ip, #4
 c105040:	e24dd010 	sub	sp, sp, #16
 c105044:	e14b00be 	strh	r0, [fp, #-14]
 c105048:	e14b11b0 	strh	r1, [fp, #-16]
 c10504c:	e14b21b2 	strh	r2, [fp, #-18]	; 0xffffffee
 c105050:	e14b31b4 	strh	r3, [fp, #-20]	; 0xffffffec
	lcd_draw_hrow(xleft, xright, yup, color, width);
 c105054:	e15b00be 	ldrh	r0, [fp, #-14]
 c105058:	e15b11b2 	ldrh	r1, [fp, #-18]	; 0xffffffee
 c10505c:	e15b21b0 	ldrh	r2, [fp, #-16]
 c105060:	e5db3004 	ldrb	r3, [fp, #4]
 c105064:	e1dbc0b8 	ldrh	ip, [fp, #8]
 c105068:	e58dc000 	str	ip, [sp]
 c10506c:	ebffffa0 	bl	c104ef4 <lcd_draw_hrow>
	lcd_draw_hrow(xleft, xright, ydown-width, color, width);
 c105070:	e15b21b4 	ldrh	r2, [fp, #-20]	; 0xffffffec
 c105074:	e1db30b8 	ldrh	r3, [fp, #8]
 c105078:	e0633002 	rsb	r3, r3, r2
 c10507c:	e1a03803 	lsl	r3, r3, #16
 c105080:	e1a02823 	lsr	r2, r3, #16
 c105084:	e15b00be 	ldrh	r0, [fp, #-14]
 c105088:	e15b11b2 	ldrh	r1, [fp, #-18]	; 0xffffffee
 c10508c:	e5db3004 	ldrb	r3, [fp, #4]
 c105090:	e1dbc0b8 	ldrh	ip, [fp, #8]
 c105094:	e58dc000 	str	ip, [sp]
 c105098:	ebffff95 	bl	c104ef4 <lcd_draw_hrow>
	lcd_draw_vrow(yup, ydown, xleft, color, width);
 c10509c:	e15b01b0 	ldrh	r0, [fp, #-16]
 c1050a0:	e15b11b4 	ldrh	r1, [fp, #-20]	; 0xffffffec
 c1050a4:	e15b20be 	ldrh	r2, [fp, #-14]
 c1050a8:	e5db3004 	ldrb	r3, [fp, #4]
 c1050ac:	e1dbc0b8 	ldrh	ip, [fp, #8]
 c1050b0:	e58dc000 	str	ip, [sp]
 c1050b4:	ebffffb6 	bl	c104f94 <lcd_draw_vrow>
	lcd_draw_vrow(yup, ydown, xright-width, color, width);
 c1050b8:	e15b21b2 	ldrh	r2, [fp, #-18]	; 0xffffffee
 c1050bc:	e1db30b8 	ldrh	r3, [fp, #8]
 c1050c0:	e0633002 	rsb	r3, r3, r2
 c1050c4:	e1a03803 	lsl	r3, r3, #16
 c1050c8:	e1a02823 	lsr	r2, r3, #16
 c1050cc:	e15b01b0 	ldrh	r0, [fp, #-16]
 c1050d0:	e15b11b4 	ldrh	r1, [fp, #-20]	; 0xffffffec
 c1050d4:	e5db3004 	ldrb	r3, [fp, #4]
 c1050d8:	e1dbc0b8 	ldrh	ip, [fp, #8]
 c1050dc:	e58dc000 	str	ip, [sp]
 c1050e0:	ebffffab 	bl	c104f94 <lcd_draw_vrow>
}
 c1050e4:	e24bd00c 	sub	sp, fp, #12
 c1050e8:	e89d6800 	ldm	sp, {fp, sp, lr}
 c1050ec:	e12fff1e 	bx	lr

0c1050f0 <lcd_putchar>:

void lcd_putchar( uint16 x, uint16 y, uint8 color, char ch )
{
 c1050f0:	e1a0c00d 	mov	ip, sp
 c1050f4:	e92dd800 	push	{fp, ip, lr, pc}
 c1050f8:	e24cb004 	sub	fp, ip, #4
 c1050fc:	e24dd010 	sub	sp, sp, #16
 c105100:	e14b01b6 	strh	r0, [fp, #-22]	; 0xffffffea
 c105104:	e14b11b8 	strh	r1, [fp, #-24]	; 0xffffffe8
 c105108:	e54b2019 	strb	r2, [fp, #-25]	; 0xffffffe7
 c10510c:	e54b301a 	strb	r3, [fp, #-26]	; 0xffffffe6
    uint8 row, col;
    uint8 *bitmap;

    bitmap = font + ch*16;
 c105110:	e55b301a 	ldrb	r3, [fp, #-26]	; 0xffffffe6
 c105114:	e1a03203 	lsl	r3, r3, #4
 c105118:	e1a02003 	mov	r2, r3
 c10511c:	e59f311c 	ldr	r3, [pc, #284]	; c105240 <lcd_putchar+0x150>
 c105120:	e0823003 	add	r3, r2, r3
 c105124:	e50b3014 	str	r3, [fp, #-20]	; 0xffffffec
    for( row=0; row<16; row++ )
 c105128:	e3a03000 	mov	r3, #0
 c10512c:	e54b300d 	strb	r3, [fp, #-13]
 c105130:	ea00003c 	b	c105228 <lcd_putchar+0x138>
        for( col=0; col<8; col++ )                    
 c105134:	e3a03000 	mov	r3, #0
 c105138:	e54b300e 	strb	r3, [fp, #-14]
 c10513c:	ea000033 	b	c105210 <lcd_putchar+0x120>
            if( bitmap[row] & (0x80 >> col) )
 c105140:	e55b300d 	ldrb	r3, [fp, #-13]
 c105144:	e51b2014 	ldr	r2, [fp, #-20]	; 0xffffffec
 c105148:	e0823003 	add	r3, r2, r3
 c10514c:	e5d33000 	ldrb	r3, [r3]
 c105150:	e1a02003 	mov	r2, r3
 c105154:	e55b300e 	ldrb	r3, [fp, #-14]
 c105158:	e3a01080 	mov	r1, #128	; 0x80
 c10515c:	e1a03351 	asr	r3, r1, r3
 c105160:	e0023003 	and	r3, r2, r3
 c105164:	e3530000 	cmp	r3, #0
 c105168:	0a000013 	beq	c1051bc <lcd_putchar+0xcc>
                lcd_putpixel( x+col, y+row, color );
 c10516c:	e55b300e 	ldrb	r3, [fp, #-14]
 c105170:	e1a03803 	lsl	r3, r3, #16
 c105174:	e1a02823 	lsr	r2, r3, #16
 c105178:	e15b31b6 	ldrh	r3, [fp, #-22]	; 0xffffffea
 c10517c:	e0823003 	add	r3, r2, r3
 c105180:	e1a03803 	lsl	r3, r3, #16
 c105184:	e1a01823 	lsr	r1, r3, #16
 c105188:	e55b300d 	ldrb	r3, [fp, #-13]
 c10518c:	e1a03803 	lsl	r3, r3, #16
 c105190:	e1a02823 	lsr	r2, r3, #16
 c105194:	e15b31b8 	ldrh	r3, [fp, #-24]	; 0xffffffe8
 c105198:	e0823003 	add	r3, r2, r3
 c10519c:	e1a03803 	lsl	r3, r3, #16
 c1051a0:	e1a02823 	lsr	r2, r3, #16
 c1051a4:	e55b3019 	ldrb	r3, [fp, #-25]	; 0xffffffe7
 c1051a8:	e1a00001 	mov	r0, r1
 c1051ac:	e1a01002 	mov	r1, r2
 c1051b0:	e1a02003 	mov	r2, r3
 c1051b4:	ebfffee9 	bl	c104d60 <lcd_putpixel>
 c1051b8:	ea000011 	b	c105204 <lcd_putchar+0x114>
            else
                lcd_putpixel( x+col, y+row, WHITE );
 c1051bc:	e55b300e 	ldrb	r3, [fp, #-14]
 c1051c0:	e1a03803 	lsl	r3, r3, #16
 c1051c4:	e1a02823 	lsr	r2, r3, #16
 c1051c8:	e15b31b6 	ldrh	r3, [fp, #-22]	; 0xffffffea
 c1051cc:	e0823003 	add	r3, r2, r3
 c1051d0:	e1a03803 	lsl	r3, r3, #16
 c1051d4:	e1a02823 	lsr	r2, r3, #16
 c1051d8:	e55b300d 	ldrb	r3, [fp, #-13]
 c1051dc:	e1a03803 	lsl	r3, r3, #16
 c1051e0:	e1a01823 	lsr	r1, r3, #16
 c1051e4:	e15b31b8 	ldrh	r3, [fp, #-24]	; 0xffffffe8
 c1051e8:	e0813003 	add	r3, r1, r3
 c1051ec:	e1a03803 	lsl	r3, r3, #16
 c1051f0:	e1a03823 	lsr	r3, r3, #16
 c1051f4:	e1a00002 	mov	r0, r2
 c1051f8:	e1a01003 	mov	r1, r3
 c1051fc:	e3a02000 	mov	r2, #0
 c105200:	ebfffed6 	bl	c104d60 <lcd_putpixel>
    uint8 row, col;
    uint8 *bitmap;

    bitmap = font + ch*16;
    for( row=0; row<16; row++ )
        for( col=0; col<8; col++ )                    
 c105204:	e55b300e 	ldrb	r3, [fp, #-14]
 c105208:	e2833001 	add	r3, r3, #1
 c10520c:	e54b300e 	strb	r3, [fp, #-14]
 c105210:	e55b300e 	ldrb	r3, [fp, #-14]
 c105214:	e3530007 	cmp	r3, #7
 c105218:	9affffc8 	bls	c105140 <lcd_putchar+0x50>
{
    uint8 row, col;
    uint8 *bitmap;

    bitmap = font + ch*16;
    for( row=0; row<16; row++ )
 c10521c:	e55b300d 	ldrb	r3, [fp, #-13]
 c105220:	e2833001 	add	r3, r3, #1
 c105224:	e54b300d 	strb	r3, [fp, #-13]
 c105228:	e55b300d 	ldrb	r3, [fp, #-13]
 c10522c:	e353000f 	cmp	r3, #15
 c105230:	9affffbf 	bls	c105134 <lcd_putchar+0x44>
        for( col=0; col<8; col++ )                    
            if( bitmap[row] & (0x80 >> col) )
                lcd_putpixel( x+col, y+row, color );
            else
                lcd_putpixel( x+col, y+row, WHITE );
}
 c105234:	e24bd00c 	sub	sp, fp, #12
 c105238:	e89d6800 	ldm	sp, {fp, sp, lr}
 c10523c:	e12fff1e 	bx	lr
 c105240:	0c10a958 	.word	0x0c10a958

0c105244 <lcd_puts>:

void lcd_puts( uint16 x, uint16 y, uint8 color, char *s )
{
 c105244:	e1a0c00d 	mov	ip, sp
 c105248:	e92dd800 	push	{fp, ip, lr, pc}
 c10524c:	e24cb004 	sub	fp, ip, #4
 c105250:	e24dd010 	sub	sp, sp, #16
 c105254:	e50b3018 	str	r3, [fp, #-24]	; 0xffffffe8
 c105258:	e14b00be 	strh	r0, [fp, #-14]
 c10525c:	e14b11b0 	strh	r1, [fp, #-16]
 c105260:	e1a03002 	mov	r3, r2
 c105264:	e54b3011 	strb	r3, [fp, #-17]	; 0xffffffef
	//Pone un caracter por pantalla
	while(*s !='\0'){
 c105268:	ea00000b 	b	c10529c <lcd_puts+0x58>
		   lcd_putchar(x,y,color, *s);
 c10526c:	e51b3018 	ldr	r3, [fp, #-24]	; 0xffffffe8
 c105270:	e5d33000 	ldrb	r3, [r3]
 c105274:	e15b00be 	ldrh	r0, [fp, #-14]
 c105278:	e15b11b0 	ldrh	r1, [fp, #-16]
 c10527c:	e55b2011 	ldrb	r2, [fp, #-17]	; 0xffffffef
 c105280:	ebffff9a 	bl	c1050f0 <lcd_putchar>
		   s++;
 c105284:	e51b3018 	ldr	r3, [fp, #-24]	; 0xffffffe8
 c105288:	e2833001 	add	r3, r3, #1
 c10528c:	e50b3018 	str	r3, [fp, #-24]	; 0xffffffe8
		   x=x+8;
 c105290:	e15b30be 	ldrh	r3, [fp, #-14]
 c105294:	e2833008 	add	r3, r3, #8
 c105298:	e14b30be 	strh	r3, [fp, #-14]
}

void lcd_puts( uint16 x, uint16 y, uint8 color, char *s )
{
	//Pone un caracter por pantalla
	while(*s !='\0'){
 c10529c:	e51b3018 	ldr	r3, [fp, #-24]	; 0xffffffe8
 c1052a0:	e5d33000 	ldrb	r3, [r3]
 c1052a4:	e3530000 	cmp	r3, #0
 c1052a8:	1affffef 	bne	c10526c <lcd_puts+0x28>
		   lcd_putchar(x,y,color, *s);
		   s++;
		   x=x+8;
	   }
}
 c1052ac:	e24bd00c 	sub	sp, fp, #12
 c1052b0:	e89d6800 	ldm	sp, {fp, sp, lr}
 c1052b4:	e12fff1e 	bx	lr

0c1052b8 <lcd_putint>:

void lcd_putint( uint16 x, uint16 y, uint8 color, int32 i )
{
 c1052b8:	e1a0c00d 	mov	ip, sp
 c1052bc:	e92dd800 	push	{fp, ip, lr, pc}
 c1052c0:	e24cb004 	sub	fp, ip, #4
 c1052c4:	e24dd028 	sub	sp, sp, #40	; 0x28
 c1052c8:	e50b3030 	str	r3, [fp, #-48]	; 0xffffffd0
 c1052cc:	e14b02b6 	strh	r0, [fp, #-38]	; 0xffffffda
 c1052d0:	e14b12b8 	strh	r1, [fp, #-40]	; 0xffffffd8
 c1052d4:	e1a03002 	mov	r3, r2
 c1052d8:	e54b3029 	strb	r3, [fp, #-41]	; 0xffffffd7
	//Tenemos las 10 cifras, el signo - y el /0
	char buf[12];
	char *p = buf + 12;
 c1052dc:	e24b3020 	sub	r3, fp, #32
 c1052e0:	e283300c 	add	r3, r3, #12
 c1052e4:	e50b3010 	str	r3, [fp, #-16]
	boolean negativo=FALSE;
 c1052e8:	e3a03000 	mov	r3, #0
 c1052ec:	e54b3011 	strb	r3, [fp, #-17]	; 0xffffffef
	int8 c;
	*p = '\0';
 c1052f0:	e51b3010 	ldr	r3, [fp, #-16]
 c1052f4:	e3a02000 	mov	r2, #0
 c1052f8:	e5c32000 	strb	r2, [r3]
	if (i<0){
 c1052fc:	e51b3030 	ldr	r3, [fp, #-48]	; 0xffffffd0
 c105300:	e3530000 	cmp	r3, #0
 c105304:	aa000004 	bge	c10531c <lcd_putint+0x64>
		 i*= -1;
 c105308:	e51b3030 	ldr	r3, [fp, #-48]	; 0xffffffd0
 c10530c:	e2633000 	rsb	r3, r3, #0
 c105310:	e50b3030 	str	r3, [fp, #-48]	; 0xffffffd0
		 negativo= TRUE;
 c105314:	e3a03001 	mov	r3, #1
 c105318:	e54b3011 	strb	r3, [fp, #-17]	; 0xffffffef
	}

	do {
		 c=i%10;
 c10531c:	e51b1030 	ldr	r1, [fp, #-48]	; 0xffffffd0
 c105320:	e59f30c0 	ldr	r3, [pc, #192]	; c1053e8 <lcd_putint+0x130>
 c105324:	e0c32391 	smull	r2, r3, r1, r3
 c105328:	e1a02143 	asr	r2, r3, #2
 c10532c:	e1a03fc1 	asr	r3, r1, #31
 c105330:	e0632002 	rsb	r2, r3, r2
 c105334:	e1a03002 	mov	r3, r2
 c105338:	e1a03103 	lsl	r3, r3, #2
 c10533c:	e0833002 	add	r3, r3, r2
 c105340:	e1a03083 	lsl	r3, r3, #1
 c105344:	e0632001 	rsb	r2, r3, r1
 c105348:	e1a03002 	mov	r3, r2
 c10534c:	e54b3012 	strb	r3, [fp, #-18]	; 0xffffffee
		 *--p = '0'+ c;
 c105350:	e51b3010 	ldr	r3, [fp, #-16]
 c105354:	e2433001 	sub	r3, r3, #1
 c105358:	e50b3010 	str	r3, [fp, #-16]
 c10535c:	e55b3012 	ldrb	r3, [fp, #-18]	; 0xffffffee
 c105360:	e2833030 	add	r3, r3, #48	; 0x30
 c105364:	e20320ff 	and	r2, r3, #255	; 0xff
 c105368:	e51b3010 	ldr	r3, [fp, #-16]
 c10536c:	e5c32000 	strb	r2, [r3]
		 i/=10;
 c105370:	e51b3030 	ldr	r3, [fp, #-48]	; 0xffffffd0
 c105374:	e59f206c 	ldr	r2, [pc, #108]	; c1053e8 <lcd_putint+0x130>
 c105378:	e0c21293 	smull	r1, r2, r3, r2
 c10537c:	e1a02142 	asr	r2, r2, #2
 c105380:	e1a03fc3 	asr	r3, r3, #31
 c105384:	e0633002 	rsb	r3, r3, r2
 c105388:	e50b3030 	str	r3, [fp, #-48]	; 0xffffffd0
	} while(i);
 c10538c:	e51b3030 	ldr	r3, [fp, #-48]	; 0xffffffd0
 c105390:	e3530000 	cmp	r3, #0
 c105394:	1affffe0 	bne	c10531c <lcd_putint+0x64>

	if (negativo)
 c105398:	e55b3011 	ldrb	r3, [fp, #-17]	; 0xffffffef
 c10539c:	e3530000 	cmp	r3, #0
 c1053a0:	0a000005 	beq	c1053bc <lcd_putint+0x104>
	{
		*--p= '-';
 c1053a4:	e51b3010 	ldr	r3, [fp, #-16]
 c1053a8:	e2433001 	sub	r3, r3, #1
 c1053ac:	e50b3010 	str	r3, [fp, #-16]
 c1053b0:	e51b3010 	ldr	r3, [fp, #-16]
 c1053b4:	e3a0202d 	mov	r2, #45	; 0x2d
 c1053b8:	e5c32000 	strb	r2, [r3]
	}
	lcd_puts(x, y, color, p);
 c1053bc:	e15b12b6 	ldrh	r1, [fp, #-38]	; 0xffffffda
 c1053c0:	e15b22b8 	ldrh	r2, [fp, #-40]	; 0xffffffd8
 c1053c4:	e55b3029 	ldrb	r3, [fp, #-41]	; 0xffffffd7
 c1053c8:	e1a00001 	mov	r0, r1
 c1053cc:	e1a01002 	mov	r1, r2
 c1053d0:	e1a02003 	mov	r2, r3
 c1053d4:	e51b3010 	ldr	r3, [fp, #-16]
 c1053d8:	ebffff99 	bl	c105244 <lcd_puts>
}
 c1053dc:	e24bd00c 	sub	sp, fp, #12
 c1053e0:	e89d6800 	ldm	sp, {fp, sp, lr}
 c1053e4:	e12fff1e 	bx	lr
 c1053e8:	66666667 	.word	0x66666667

0c1053ec <lcd_puthex>:

void lcd_puthex( uint16 x, uint16 y, uint8 color, uint32 i )
{
 c1053ec:	e1a0c00d 	mov	ip, sp
 c1053f0:	e92dd800 	push	{fp, ip, lr, pc}
 c1053f4:	e24cb004 	sub	fp, ip, #4
 c1053f8:	e24dd020 	sub	sp, sp, #32
 c1053fc:	e50b3028 	str	r3, [fp, #-40]	; 0xffffffd8
 c105400:	e14b01be 	strh	r0, [fp, #-30]	; 0xffffffe2
 c105404:	e14b12b0 	strh	r1, [fp, #-32]	; 0xffffffe0
 c105408:	e1a03002 	mov	r3, r2
 c10540c:	e54b3021 	strb	r3, [fp, #-33]	; 0xffffffdf
	//Formato 0x00
	 char buf[8 + 1];
	 char *p = buf + 8;
 c105410:	e24b301c 	sub	r3, fp, #28
 c105414:	e2833008 	add	r3, r3, #8
 c105418:	e50b3010 	str	r3, [fp, #-16]
	 uint8 c;

	 *p = '\0';
 c10541c:	e51b3010 	ldr	r3, [fp, #-16]
 c105420:	e3a02000 	mov	r2, #0
 c105424:	e5c32000 	strb	r2, [r3]

	 do {
		 c = i & 0xf;
 c105428:	e51b3028 	ldr	r3, [fp, #-40]	; 0xffffffd8
 c10542c:	e20330ff 	and	r3, r3, #255	; 0xff
 c105430:	e203300f 	and	r3, r3, #15
 c105434:	e54b3011 	strb	r3, [fp, #-17]	; 0xffffffef
		 if( c < 10 )
 c105438:	e55b3011 	ldrb	r3, [fp, #-17]	; 0xffffffef
 c10543c:	e3530009 	cmp	r3, #9
 c105440:	8a000008 	bhi	c105468 <lcd_puthex+0x7c>
		 *--p = '0' + c;
 c105444:	e51b3010 	ldr	r3, [fp, #-16]
 c105448:	e2433001 	sub	r3, r3, #1
 c10544c:	e50b3010 	str	r3, [fp, #-16]
 c105450:	e55b3011 	ldrb	r3, [fp, #-17]	; 0xffffffef
 c105454:	e2833030 	add	r3, r3, #48	; 0x30
 c105458:	e20320ff 	and	r2, r3, #255	; 0xff
 c10545c:	e51b3010 	ldr	r3, [fp, #-16]
 c105460:	e5c32000 	strb	r2, [r3]
 c105464:	ea000007 	b	c105488 <lcd_puthex+0x9c>
	 else
		 *--p = 'a' + c - 10;
 c105468:	e51b3010 	ldr	r3, [fp, #-16]
 c10546c:	e2433001 	sub	r3, r3, #1
 c105470:	e50b3010 	str	r3, [fp, #-16]
 c105474:	e55b3011 	ldrb	r3, [fp, #-17]	; 0xffffffef
 c105478:	e2833057 	add	r3, r3, #87	; 0x57
 c10547c:	e20320ff 	and	r2, r3, #255	; 0xff
 c105480:	e51b3010 	ldr	r3, [fp, #-16]
 c105484:	e5c32000 	strb	r2, [r3]
		 i = i >> 4;
 c105488:	e51b3028 	ldr	r3, [fp, #-40]	; 0xffffffd8
 c10548c:	e1a03223 	lsr	r3, r3, #4
 c105490:	e50b3028 	str	r3, [fp, #-40]	; 0xffffffd8
	 }
	 while( i );
 c105494:	e51b3028 	ldr	r3, [fp, #-40]	; 0xffffffd8
 c105498:	e3530000 	cmp	r3, #0
 c10549c:	1affffe1 	bne	c105428 <lcd_puthex+0x3c>

	 lcd_puts(x, y, color, p);
 c1054a0:	e15b11be 	ldrh	r1, [fp, #-30]	; 0xffffffe2
 c1054a4:	e15b22b0 	ldrh	r2, [fp, #-32]	; 0xffffffe0
 c1054a8:	e55b3021 	ldrb	r3, [fp, #-33]	; 0xffffffdf
 c1054ac:	e1a00001 	mov	r0, r1
 c1054b0:	e1a01002 	mov	r1, r2
 c1054b4:	e1a02003 	mov	r2, r3
 c1054b8:	e51b3010 	ldr	r3, [fp, #-16]
 c1054bc:	ebffff60 	bl	c105244 <lcd_puts>
}
 c1054c0:	e24bd00c 	sub	sp, fp, #12
 c1054c4:	e89d6800 	ldm	sp, {fp, sp, lr}
 c1054c8:	e12fff1e 	bx	lr

0c1054cc <lcd_putchar_x2>:

// Escritura de caracteres

void lcd_putchar_x2( uint16 x, uint16 y, uint8 color, char ch )
{
 c1054cc:	e1a0c00d 	mov	ip, sp
 c1054d0:	e92dd800 	push	{fp, ip, lr, pc}
 c1054d4:	e24cb004 	sub	fp, ip, #4
 c1054d8:	e24dd010 	sub	sp, sp, #16
 c1054dc:	e14b01b6 	strh	r0, [fp, #-22]	; 0xffffffea
 c1054e0:	e14b11b8 	strh	r1, [fp, #-24]	; 0xffffffe8
 c1054e4:	e54b2019 	strb	r2, [fp, #-25]	; 0xffffffe7
 c1054e8:	e54b301a 	strb	r3, [fp, #-26]	; 0xffffffe6
	//
	uint8 row, col;
	uint8 *bitmap;

	bitmap = font + ch*16;
 c1054ec:	e55b301a 	ldrb	r3, [fp, #-26]	; 0xffffffe6
 c1054f0:	e1a03203 	lsl	r3, r3, #4
 c1054f4:	e1a02003 	mov	r2, r3
 c1054f8:	e59f312c 	ldr	r3, [pc, #300]	; c10562c <lcd_putchar_x2+0x160>
 c1054fc:	e0823003 	add	r3, r2, r3
 c105500:	e50b3014 	str	r3, [fp, #-20]	; 0xffffffec
	for( row=0; row<32; row++ )
 c105504:	e3a03000 	mov	r3, #0
 c105508:	e54b300d 	strb	r3, [fp, #-13]
 c10550c:	ea000040 	b	c105614 <lcd_putchar_x2+0x148>
		for( col=0; col<16; col++ )
 c105510:	e3a03000 	mov	r3, #0
 c105514:	e54b300e 	strb	r3, [fp, #-14]
 c105518:	ea000037 	b	c1055fc <lcd_putchar_x2+0x130>
			if( bitmap[row/2] & (0x80 >> col/2) )
 c10551c:	e55b300d 	ldrb	r3, [fp, #-13]
 c105520:	e1a030a3 	lsr	r3, r3, #1
 c105524:	e20330ff 	and	r3, r3, #255	; 0xff
 c105528:	e51b2014 	ldr	r2, [fp, #-20]	; 0xffffffec
 c10552c:	e0823003 	add	r3, r2, r3
 c105530:	e5d33000 	ldrb	r3, [r3]
 c105534:	e1a02003 	mov	r2, r3
 c105538:	e55b300e 	ldrb	r3, [fp, #-14]
 c10553c:	e1a030a3 	lsr	r3, r3, #1
 c105540:	e20330ff 	and	r3, r3, #255	; 0xff
 c105544:	e3a01080 	mov	r1, #128	; 0x80
 c105548:	e1a03351 	asr	r3, r1, r3
 c10554c:	e0023003 	and	r3, r2, r3
 c105550:	e3530000 	cmp	r3, #0
 c105554:	0a000013 	beq	c1055a8 <lcd_putchar_x2+0xdc>
				lcd_putpixel( x+col, y+row, color );
 c105558:	e55b300e 	ldrb	r3, [fp, #-14]
 c10555c:	e1a03803 	lsl	r3, r3, #16
 c105560:	e1a02823 	lsr	r2, r3, #16
 c105564:	e15b31b6 	ldrh	r3, [fp, #-22]	; 0xffffffea
 c105568:	e0823003 	add	r3, r2, r3
 c10556c:	e1a03803 	lsl	r3, r3, #16
 c105570:	e1a01823 	lsr	r1, r3, #16
 c105574:	e55b300d 	ldrb	r3, [fp, #-13]
 c105578:	e1a03803 	lsl	r3, r3, #16
 c10557c:	e1a02823 	lsr	r2, r3, #16
 c105580:	e15b31b8 	ldrh	r3, [fp, #-24]	; 0xffffffe8
 c105584:	e0823003 	add	r3, r2, r3
 c105588:	e1a03803 	lsl	r3, r3, #16
 c10558c:	e1a02823 	lsr	r2, r3, #16
 c105590:	e55b3019 	ldrb	r3, [fp, #-25]	; 0xffffffe7
 c105594:	e1a00001 	mov	r0, r1
 c105598:	e1a01002 	mov	r1, r2
 c10559c:	e1a02003 	mov	r2, r3
 c1055a0:	ebfffdee 	bl	c104d60 <lcd_putpixel>
 c1055a4:	ea000011 	b	c1055f0 <lcd_putchar_x2+0x124>
			else
				lcd_putpixel( x+col, y+row, WHITE );
 c1055a8:	e55b300e 	ldrb	r3, [fp, #-14]
 c1055ac:	e1a03803 	lsl	r3, r3, #16
 c1055b0:	e1a02823 	lsr	r2, r3, #16
 c1055b4:	e15b31b6 	ldrh	r3, [fp, #-22]	; 0xffffffea
 c1055b8:	e0823003 	add	r3, r2, r3
 c1055bc:	e1a03803 	lsl	r3, r3, #16
 c1055c0:	e1a02823 	lsr	r2, r3, #16
 c1055c4:	e55b300d 	ldrb	r3, [fp, #-13]
 c1055c8:	e1a03803 	lsl	r3, r3, #16
 c1055cc:	e1a01823 	lsr	r1, r3, #16
 c1055d0:	e15b31b8 	ldrh	r3, [fp, #-24]	; 0xffffffe8
 c1055d4:	e0813003 	add	r3, r1, r3
 c1055d8:	e1a03803 	lsl	r3, r3, #16
 c1055dc:	e1a03823 	lsr	r3, r3, #16
 c1055e0:	e1a00002 	mov	r0, r2
 c1055e4:	e1a01003 	mov	r1, r3
 c1055e8:	e3a02000 	mov	r2, #0
 c1055ec:	ebfffddb 	bl	c104d60 <lcd_putpixel>
	uint8 row, col;
	uint8 *bitmap;

	bitmap = font + ch*16;
	for( row=0; row<32; row++ )
		for( col=0; col<16; col++ )
 c1055f0:	e55b300e 	ldrb	r3, [fp, #-14]
 c1055f4:	e2833001 	add	r3, r3, #1
 c1055f8:	e54b300e 	strb	r3, [fp, #-14]
 c1055fc:	e55b300e 	ldrb	r3, [fp, #-14]
 c105600:	e353000f 	cmp	r3, #15
 c105604:	9affffc4 	bls	c10551c <lcd_putchar_x2+0x50>
	//
	uint8 row, col;
	uint8 *bitmap;

	bitmap = font + ch*16;
	for( row=0; row<32; row++ )
 c105608:	e55b300d 	ldrb	r3, [fp, #-13]
 c10560c:	e2833001 	add	r3, r3, #1
 c105610:	e54b300d 	strb	r3, [fp, #-13]
 c105614:	e55b300d 	ldrb	r3, [fp, #-13]
 c105618:	e353001f 	cmp	r3, #31
 c10561c:	9affffbb 	bls	c105510 <lcd_putchar_x2+0x44>
		for( col=0; col<16; col++ )
			if( bitmap[row/2] & (0x80 >> col/2) )
				lcd_putpixel( x+col, y+row, color );
			else
				lcd_putpixel( x+col, y+row, WHITE );
}
 c105620:	e24bd00c 	sub	sp, fp, #12
 c105624:	e89d6800 	ldm	sp, {fp, sp, lr}
 c105628:	e12fff1e 	bx	lr
 c10562c:	0c10a958 	.word	0x0c10a958

0c105630 <lcd_puts_x2>:


// Escritura de cadenas de caracteres

void lcd_puts_x2( uint16 x, uint16 y, uint8 color, char *s )
{
 c105630:	e1a0c00d 	mov	ip, sp
 c105634:	e92dd800 	push	{fp, ip, lr, pc}
 c105638:	e24cb004 	sub	fp, ip, #4
 c10563c:	e24dd010 	sub	sp, sp, #16
 c105640:	e50b3018 	str	r3, [fp, #-24]	; 0xffffffe8
 c105644:	e14b00be 	strh	r0, [fp, #-14]
 c105648:	e14b11b0 	strh	r1, [fp, #-16]
 c10564c:	e1a03002 	mov	r3, r2
 c105650:	e54b3011 	strb	r3, [fp, #-17]	; 0xffffffef
    while (*s != '\0'){
 c105654:	ea00000b 	b	c105688 <lcd_puts_x2+0x58>
    	lcd_putchar_x2(x,y,color, *s);
 c105658:	e51b3018 	ldr	r3, [fp, #-24]	; 0xffffffe8
 c10565c:	e5d33000 	ldrb	r3, [r3]
 c105660:	e15b00be 	ldrh	r0, [fp, #-14]
 c105664:	e15b11b0 	ldrh	r1, [fp, #-16]
 c105668:	e55b2011 	ldrb	r2, [fp, #-17]	; 0xffffffef
 c10566c:	ebffff96 	bl	c1054cc <lcd_putchar_x2>
    	s++;
 c105670:	e51b3018 	ldr	r3, [fp, #-24]	; 0xffffffe8
 c105674:	e2833001 	add	r3, r3, #1
 c105678:	e50b3018 	str	r3, [fp, #-24]	; 0xffffffe8
    	x=x+16;
 c10567c:	e15b30be 	ldrh	r3, [fp, #-14]
 c105680:	e2833010 	add	r3, r3, #16
 c105684:	e14b30be 	strh	r3, [fp, #-14]

// Escritura de cadenas de caracteres

void lcd_puts_x2( uint16 x, uint16 y, uint8 color, char *s )
{
    while (*s != '\0'){
 c105688:	e51b3018 	ldr	r3, [fp, #-24]	; 0xffffffe8
 c10568c:	e5d33000 	ldrb	r3, [r3]
 c105690:	e3530000 	cmp	r3, #0
 c105694:	1affffef 	bne	c105658 <lcd_puts_x2+0x28>
    	lcd_putchar_x2(x,y,color, *s);
    	s++;
    	x=x+16;
    }
}
 c105698:	e24bd00c 	sub	sp, fp, #12
 c10569c:	e89d6800 	ldm	sp, {fp, sp, lr}
 c1056a0:	e12fff1e 	bx	lr

0c1056a4 <lcd_putint_x2>:


// Escritura de números decimales/hexadecimales como cadenas de caracteres

void lcd_putint_x2( uint16 x, uint16 y, uint8 color, int32 i )
{
 c1056a4:	e1a0c00d 	mov	ip, sp
 c1056a8:	e92dd800 	push	{fp, ip, lr, pc}
 c1056ac:	e24cb004 	sub	fp, ip, #4
 c1056b0:	e24dd028 	sub	sp, sp, #40	; 0x28
 c1056b4:	e50b3030 	str	r3, [fp, #-48]	; 0xffffffd0
 c1056b8:	e14b02b6 	strh	r0, [fp, #-38]	; 0xffffffda
 c1056bc:	e14b12b8 	strh	r1, [fp, #-40]	; 0xffffffd8
 c1056c0:	e1a03002 	mov	r3, r2
 c1056c4:	e54b3029 	strb	r3, [fp, #-41]	; 0xffffffd7
	char buf[12];
	char *p = buf + 12;
 c1056c8:	e24b3020 	sub	r3, fp, #32
 c1056cc:	e283300c 	add	r3, r3, #12
 c1056d0:	e50b3010 	str	r3, [fp, #-16]
	boolean negativo=FALSE;
 c1056d4:	e3a03000 	mov	r3, #0
 c1056d8:	e54b3011 	strb	r3, [fp, #-17]	; 0xffffffef
	uint8 c;
	*p = '\0';
 c1056dc:	e51b3010 	ldr	r3, [fp, #-16]
 c1056e0:	e3a02000 	mov	r2, #0
 c1056e4:	e5c32000 	strb	r2, [r3]

	 if (i<0){
 c1056e8:	e51b3030 	ldr	r3, [fp, #-48]	; 0xffffffd0
 c1056ec:	e3530000 	cmp	r3, #0
 c1056f0:	aa000004 	bge	c105708 <lcd_putint_x2+0x64>

		 i*= -1;
 c1056f4:	e51b3030 	ldr	r3, [fp, #-48]	; 0xffffffd0
 c1056f8:	e2633000 	rsb	r3, r3, #0
 c1056fc:	e50b3030 	str	r3, [fp, #-48]	; 0xffffffd0
		 negativo= TRUE;
 c105700:	e3a03001 	mov	r3, #1
 c105704:	e54b3011 	strb	r3, [fp, #-17]	; 0xffffffef
	 }

	 do {

		 c=i%10;
 c105708:	e51b1030 	ldr	r1, [fp, #-48]	; 0xffffffd0
 c10570c:	e59f30c0 	ldr	r3, [pc, #192]	; c1057d4 <lcd_putint_x2+0x130>
 c105710:	e0c32391 	smull	r2, r3, r1, r3
 c105714:	e1a02143 	asr	r2, r3, #2
 c105718:	e1a03fc1 	asr	r3, r1, #31
 c10571c:	e0632002 	rsb	r2, r3, r2
 c105720:	e1a03002 	mov	r3, r2
 c105724:	e1a03103 	lsl	r3, r3, #2
 c105728:	e0833002 	add	r3, r3, r2
 c10572c:	e1a03083 	lsl	r3, r3, #1
 c105730:	e0632001 	rsb	r2, r3, r1
 c105734:	e1a03002 	mov	r3, r2
 c105738:	e54b3012 	strb	r3, [fp, #-18]	; 0xffffffee
		 *--p = '0'+ c;
 c10573c:	e51b3010 	ldr	r3, [fp, #-16]
 c105740:	e2433001 	sub	r3, r3, #1
 c105744:	e50b3010 	str	r3, [fp, #-16]
 c105748:	e55b3012 	ldrb	r3, [fp, #-18]	; 0xffffffee
 c10574c:	e2833030 	add	r3, r3, #48	; 0x30
 c105750:	e20320ff 	and	r2, r3, #255	; 0xff
 c105754:	e51b3010 	ldr	r3, [fp, #-16]
 c105758:	e5c32000 	strb	r2, [r3]
		 i/=10;
 c10575c:	e51b3030 	ldr	r3, [fp, #-48]	; 0xffffffd0
 c105760:	e59f206c 	ldr	r2, [pc, #108]	; c1057d4 <lcd_putint_x2+0x130>
 c105764:	e0c21293 	smull	r1, r2, r3, r2
 c105768:	e1a02142 	asr	r2, r2, #2
 c10576c:	e1a03fc3 	asr	r3, r3, #31
 c105770:	e0633002 	rsb	r3, r3, r2
 c105774:	e50b3030 	str	r3, [fp, #-48]	; 0xffffffd0
	 } while(i);
 c105778:	e51b3030 	ldr	r3, [fp, #-48]	; 0xffffffd0
 c10577c:	e3530000 	cmp	r3, #0
 c105780:	1affffe0 	bne	c105708 <lcd_putint_x2+0x64>

	 if (negativo)
 c105784:	e55b3011 	ldrb	r3, [fp, #-17]	; 0xffffffef
 c105788:	e3530000 	cmp	r3, #0
 c10578c:	0a000005 	beq	c1057a8 <lcd_putint_x2+0x104>
	 {
		*--p= '-';
 c105790:	e51b3010 	ldr	r3, [fp, #-16]
 c105794:	e2433001 	sub	r3, r3, #1
 c105798:	e50b3010 	str	r3, [fp, #-16]
 c10579c:	e51b3010 	ldr	r3, [fp, #-16]
 c1057a0:	e3a0202d 	mov	r2, #45	; 0x2d
 c1057a4:	e5c32000 	strb	r2, [r3]
	 }
	 lcd_puts_x2(x, y, color, p);
 c1057a8:	e15b12b6 	ldrh	r1, [fp, #-38]	; 0xffffffda
 c1057ac:	e15b22b8 	ldrh	r2, [fp, #-40]	; 0xffffffd8
 c1057b0:	e55b3029 	ldrb	r3, [fp, #-41]	; 0xffffffd7
 c1057b4:	e1a00001 	mov	r0, r1
 c1057b8:	e1a01002 	mov	r1, r2
 c1057bc:	e1a02003 	mov	r2, r3
 c1057c0:	e51b3010 	ldr	r3, [fp, #-16]
 c1057c4:	ebffff99 	bl	c105630 <lcd_puts_x2>

}
 c1057c8:	e24bd00c 	sub	sp, fp, #12
 c1057cc:	e89d6800 	ldm	sp, {fp, sp, lr}
 c1057d0:	e12fff1e 	bx	lr
 c1057d4:	66666667 	.word	0x66666667

0c1057d8 <lcd_puthex_x2>:


// Escritura de números decimales/hexadecimales como cadenas de caracteres

void lcd_puthex_x2( uint16 x, uint16 y, uint8 color, uint32 i )
{
 c1057d8:	e1a0c00d 	mov	ip, sp
 c1057dc:	e92dd800 	push	{fp, ip, lr, pc}
 c1057e0:	e24cb004 	sub	fp, ip, #4
 c1057e4:	e24dd020 	sub	sp, sp, #32
 c1057e8:	e50b3028 	str	r3, [fp, #-40]	; 0xffffffd8
 c1057ec:	e14b01be 	strh	r0, [fp, #-30]	; 0xffffffe2
 c1057f0:	e14b12b0 	strh	r1, [fp, #-32]	; 0xffffffe0
 c1057f4:	e1a03002 	mov	r3, r2
 c1057f8:	e54b3021 	strb	r3, [fp, #-33]	; 0xffffffdf
	char buf[8 + 1];
		char *p = buf + 8;
 c1057fc:	e24b301c 	sub	r3, fp, #28
 c105800:	e2833008 	add	r3, r3, #8
 c105804:	e50b3010 	str	r3, [fp, #-16]
		uint8 c;

		*p = '\0';
 c105808:	e51b3010 	ldr	r3, [fp, #-16]
 c10580c:	e3a02000 	mov	r2, #0
 c105810:	e5c32000 	strb	r2, [r3]

		do {
			c = i & 0xf;
 c105814:	e51b3028 	ldr	r3, [fp, #-40]	; 0xffffffd8
 c105818:	e20330ff 	and	r3, r3, #255	; 0xff
 c10581c:	e203300f 	and	r3, r3, #15
 c105820:	e54b3011 	strb	r3, [fp, #-17]	; 0xffffffef
			if( c < 10 )
 c105824:	e55b3011 	ldrb	r3, [fp, #-17]	; 0xffffffef
 c105828:	e3530009 	cmp	r3, #9
 c10582c:	8a000008 	bhi	c105854 <lcd_puthex_x2+0x7c>
				*--p = '0' + c;
 c105830:	e51b3010 	ldr	r3, [fp, #-16]
 c105834:	e2433001 	sub	r3, r3, #1
 c105838:	e50b3010 	str	r3, [fp, #-16]
 c10583c:	e55b3011 	ldrb	r3, [fp, #-17]	; 0xffffffef
 c105840:	e2833030 	add	r3, r3, #48	; 0x30
 c105844:	e20320ff 	and	r2, r3, #255	; 0xff
 c105848:	e51b3010 	ldr	r3, [fp, #-16]
 c10584c:	e5c32000 	strb	r2, [r3]
 c105850:	ea000007 	b	c105874 <lcd_puthex_x2+0x9c>
			else
				*--p = 'a' + c - 10;
 c105854:	e51b3010 	ldr	r3, [fp, #-16]
 c105858:	e2433001 	sub	r3, r3, #1
 c10585c:	e50b3010 	str	r3, [fp, #-16]
 c105860:	e55b3011 	ldrb	r3, [fp, #-17]	; 0xffffffef
 c105864:	e2833057 	add	r3, r3, #87	; 0x57
 c105868:	e20320ff 	and	r2, r3, #255	; 0xff
 c10586c:	e51b3010 	ldr	r3, [fp, #-16]
 c105870:	e5c32000 	strb	r2, [r3]
			i = i >> 4;
 c105874:	e51b3028 	ldr	r3, [fp, #-40]	; 0xffffffd8
 c105878:	e1a03223 	lsr	r3, r3, #4
 c10587c:	e50b3028 	str	r3, [fp, #-40]	; 0xffffffd8
		} while( i );
 c105880:	e51b3028 	ldr	r3, [fp, #-40]	; 0xffffffd8
 c105884:	e3530000 	cmp	r3, #0
 c105888:	1affffe1 	bne	c105814 <lcd_puthex_x2+0x3c>

		lcd_puts_x2(x, y, color, p );
 c10588c:	e15b11be 	ldrh	r1, [fp, #-30]	; 0xffffffe2
 c105890:	e15b22b0 	ldrh	r2, [fp, #-32]	; 0xffffffe0
 c105894:	e55b3021 	ldrb	r3, [fp, #-33]	; 0xffffffdf
 c105898:	e1a00001 	mov	r0, r1
 c10589c:	e1a01002 	mov	r1, r2
 c1058a0:	e1a02003 	mov	r2, r3
 c1058a4:	e51b3010 	ldr	r3, [fp, #-16]
 c1058a8:	ebffff60 	bl	c105630 <lcd_puts_x2>
}
 c1058ac:	e24bd00c 	sub	sp, fp, #12
 c1058b0:	e89d6800 	ldm	sp, {fp, sp, lr}
 c1058b4:	e12fff1e 	bx	lr

0c1058b8 <lcd_putWallpaper>:


void lcd_putWallpaper( uint8 *bmp )
{
 c1058b8:	e1a0c00d 	mov	ip, sp
 c1058bc:	e92dd800 	push	{fp, ip, lr, pc}
 c1058c0:	e24cb004 	sub	fp, ip, #4
 c1058c4:	e24dd018 	sub	sp, sp, #24
 c1058c8:	e50b0020 	str	r0, [fp, #-32]	; 0xffffffe0
    uint32 headerSize;

    uint16 x, ySrc, yDst;
    uint16 offsetSrc, offsetDst;

    headerSize = bmp[10] + (bmp[11] << 8) + (bmp[12] << 16) + (bmp[13] << 24);
 c1058cc:	e51b3020 	ldr	r3, [fp, #-32]	; 0xffffffe0
 c1058d0:	e283300a 	add	r3, r3, #10
 c1058d4:	e5d33000 	ldrb	r3, [r3]
 c1058d8:	e1a02003 	mov	r2, r3
 c1058dc:	e51b3020 	ldr	r3, [fp, #-32]	; 0xffffffe0
 c1058e0:	e283300b 	add	r3, r3, #11
 c1058e4:	e5d33000 	ldrb	r3, [r3]
 c1058e8:	e1a03403 	lsl	r3, r3, #8
 c1058ec:	e0822003 	add	r2, r2, r3
 c1058f0:	e51b3020 	ldr	r3, [fp, #-32]	; 0xffffffe0
 c1058f4:	e283300c 	add	r3, r3, #12
 c1058f8:	e5d33000 	ldrb	r3, [r3]
 c1058fc:	e1a03803 	lsl	r3, r3, #16
 c105900:	e0822003 	add	r2, r2, r3
 c105904:	e51b3020 	ldr	r3, [fp, #-32]	; 0xffffffe0
 c105908:	e283300d 	add	r3, r3, #13
 c10590c:	e5d33000 	ldrb	r3, [r3]
 c105910:	e1a03c03 	lsl	r3, r3, #24
 c105914:	e0823003 	add	r3, r2, r3
 c105918:	e50b3018 	str	r3, [fp, #-24]	; 0xffffffe8

    bmp = bmp + headerSize;
 c10591c:	e51b2020 	ldr	r2, [fp, #-32]	; 0xffffffe0
 c105920:	e51b3018 	ldr	r3, [fp, #-24]	; 0xffffffe8
 c105924:	e0823003 	add	r3, r2, r3
 c105928:	e50b3020 	str	r3, [fp, #-32]	; 0xffffffe0
    
    for( ySrc=0, yDst=LCD_HEIGHT-1; ySrc<LCD_HEIGHT; ySrc++, yDst-- )                                                                       
 c10592c:	e3a03000 	mov	r3, #0
 c105930:	e14b31b0 	strh	r3, [fp, #-16]
 c105934:	e3a030ef 	mov	r3, #239	; 0xef
 c105938:	e14b31b2 	strh	r3, [fp, #-18]	; 0xffffffee
 c10593c:	ea00002d 	b	c1059f8 <lcd_putWallpaper+0x140>
    {
        offsetDst = yDst*LCD_WIDTH/2;
 c105940:	e15b21b2 	ldrh	r2, [fp, #-18]	; 0xffffffee
 c105944:	e1a03002 	mov	r3, r2
 c105948:	e1a03103 	lsl	r3, r3, #2
 c10594c:	e0833002 	add	r3, r3, r2
 c105950:	e1a03303 	lsl	r3, r3, #6
 c105954:	e1a02fa3 	lsr	r2, r3, #31
 c105958:	e0823003 	add	r3, r2, r3
 c10595c:	e1a030c3 	asr	r3, r3, #1
 c105960:	e14b31ba 	strh	r3, [fp, #-26]	; 0xffffffe6
        offsetSrc = ySrc*LCD_WIDTH/2;
 c105964:	e15b21b0 	ldrh	r2, [fp, #-16]
 c105968:	e1a03002 	mov	r3, r2
 c10596c:	e1a03103 	lsl	r3, r3, #2
 c105970:	e0833002 	add	r3, r3, r2
 c105974:	e1a03303 	lsl	r3, r3, #6
 c105978:	e1a02fa3 	lsr	r2, r3, #31
 c10597c:	e0823003 	add	r3, r2, r3
 c105980:	e1a030c3 	asr	r3, r3, #1
 c105984:	e14b31bc 	strh	r3, [fp, #-28]	; 0xffffffe4
        for( x=0; x<LCD_WIDTH/2; x++ )
 c105988:	e3a03000 	mov	r3, #0
 c10598c:	e14b30be 	strh	r3, [fp, #-14]
 c105990:	ea00000f 	b	c1059d4 <lcd_putWallpaper+0x11c>
            lcd_buffer[offsetDst+x] = ~bmp[offsetSrc+x];
 c105994:	e15b21ba 	ldrh	r2, [fp, #-26]	; 0xffffffe6
 c105998:	e15b30be 	ldrh	r3, [fp, #-14]
 c10599c:	e0823003 	add	r3, r2, r3
 c1059a0:	e15b11bc 	ldrh	r1, [fp, #-28]	; 0xffffffe4
 c1059a4:	e15b20be 	ldrh	r2, [fp, #-14]
 c1059a8:	e0812002 	add	r2, r1, r2
 c1059ac:	e51b1020 	ldr	r1, [fp, #-32]	; 0xffffffe0
 c1059b0:	e0812002 	add	r2, r1, r2
 c1059b4:	e5d22000 	ldrb	r2, [r2]
 c1059b8:	e1e02002 	mvn	r2, r2
 c1059bc:	e20210ff 	and	r1, r2, #255	; 0xff
 c1059c0:	e59f2048 	ldr	r2, [pc, #72]	; c105a10 <lcd_putWallpaper+0x158>
 c1059c4:	e7c21003 	strb	r1, [r2, r3]
    
    for( ySrc=0, yDst=LCD_HEIGHT-1; ySrc<LCD_HEIGHT; ySrc++, yDst-- )                                                                       
    {
        offsetDst = yDst*LCD_WIDTH/2;
        offsetSrc = ySrc*LCD_WIDTH/2;
        for( x=0; x<LCD_WIDTH/2; x++ )
 c1059c8:	e15b30be 	ldrh	r3, [fp, #-14]
 c1059cc:	e2833001 	add	r3, r3, #1
 c1059d0:	e14b30be 	strh	r3, [fp, #-14]
 c1059d4:	e15b30be 	ldrh	r3, [fp, #-14]
 c1059d8:	e353009f 	cmp	r3, #159	; 0x9f
 c1059dc:	9affffec 	bls	c105994 <lcd_putWallpaper+0xdc>

    headerSize = bmp[10] + (bmp[11] << 8) + (bmp[12] << 16) + (bmp[13] << 24);

    bmp = bmp + headerSize;
    
    for( ySrc=0, yDst=LCD_HEIGHT-1; ySrc<LCD_HEIGHT; ySrc++, yDst-- )                                                                       
 c1059e0:	e15b31b0 	ldrh	r3, [fp, #-16]
 c1059e4:	e2833001 	add	r3, r3, #1
 c1059e8:	e14b31b0 	strh	r3, [fp, #-16]
 c1059ec:	e15b31b2 	ldrh	r3, [fp, #-18]	; 0xffffffee
 c1059f0:	e2433001 	sub	r3, r3, #1
 c1059f4:	e14b31b2 	strh	r3, [fp, #-18]	; 0xffffffee
 c1059f8:	e15b31b0 	ldrh	r3, [fp, #-16]
 c1059fc:	e35300ef 	cmp	r3, #239	; 0xef
 c105a00:	9affffce 	bls	c105940 <lcd_putWallpaper+0x88>
        offsetDst = yDst*LCD_WIDTH/2;
        offsetSrc = ySrc*LCD_WIDTH/2;
        for( x=0; x<LCD_WIDTH/2; x++ )
            lcd_buffer[offsetDst+x] = ~bmp[offsetSrc+x];
    }
}
 c105a04:	e24bd00c 	sub	sp, fp, #12
 c105a08:	e89d6800 	ldm	sp, {fp, sp, lr}
 c105a0c:	e12fff1e 	bx	lr
 c105a10:	0c10bdc8 	.word	0x0c10bdc8

0c105a14 <leds_init>:
#include <s3c44b0x.h>
#include <leds.h>

void leds_init( void )
{
 c105a14:	e1a0c00d 	mov	ip, sp
 c105a18:	e92dd800 	push	{fp, ip, lr, pc}
 c105a1c:	e24cb004 	sub	fp, ip, #4
	PCONB &= ~( (1<<9) | (1<<10) );
 c105a20:	e59f3028 	ldr	r3, [pc, #40]	; c105a50 <leds_init+0x3c>
 c105a24:	e59f2024 	ldr	r2, [pc, #36]	; c105a50 <leds_init+0x3c>
 c105a28:	e5922000 	ldr	r2, [r2]
 c105a2c:	e3c22c06 	bic	r2, r2, #1536	; 0x600
 c105a30:	e5832000 	str	r2, [r3]
	led_off(LEFT_LED);
 c105a34:	e3a00001 	mov	r0, #1
 c105a38:	eb00001d 	bl	c105ab4 <led_off>
	led_off(RIGHT_LED);
 c105a3c:	e3a00002 	mov	r0, #2
 c105a40:	eb00001b 	bl	c105ab4 <led_off>
}
 c105a44:	e24bd00c 	sub	sp, fp, #12
 c105a48:	e89d6800 	ldm	sp, {fp, sp, lr}
 c105a4c:	e12fff1e 	bx	lr
 c105a50:	01d20008 	.word	0x01d20008

0c105a54 <led_on>:

void led_on( uint8 led )
{
 c105a54:	e1a0c00d 	mov	ip, sp
 c105a58:	e92dd800 	push	{fp, ip, lr, pc}
 c105a5c:	e24cb004 	sub	fp, ip, #4
 c105a60:	e24dd008 	sub	sp, sp, #8
 c105a64:	e1a03000 	mov	r3, r0
 c105a68:	e54b300d 	strb	r3, [fp, #-13]
	if(led == LEFT_LED){
 c105a6c:	e55b300d 	ldrb	r3, [fp, #-13]
 c105a70:	e3530001 	cmp	r3, #1
 c105a74:	1a000005 	bne	c105a90 <led_on+0x3c>
		PDATB &= ~(1<<9);
 c105a78:	e59f3030 	ldr	r3, [pc, #48]	; c105ab0 <led_on+0x5c>
 c105a7c:	e59f202c 	ldr	r2, [pc, #44]	; c105ab0 <led_on+0x5c>
 c105a80:	e5922000 	ldr	r2, [r2]
 c105a84:	e3c22c02 	bic	r2, r2, #512	; 0x200
 c105a88:	e5832000 	str	r2, [r3]
 c105a8c:	ea000004 	b	c105aa4 <led_on+0x50>
	} else {
		PDATB &= ~(1<<10);
 c105a90:	e59f3018 	ldr	r3, [pc, #24]	; c105ab0 <led_on+0x5c>
 c105a94:	e59f2014 	ldr	r2, [pc, #20]	; c105ab0 <led_on+0x5c>
 c105a98:	e5922000 	ldr	r2, [r2]
 c105a9c:	e3c22b01 	bic	r2, r2, #1024	; 0x400
 c105aa0:	e5832000 	str	r2, [r3]
	}
}
 c105aa4:	e24bd00c 	sub	sp, fp, #12
 c105aa8:	e89d6800 	ldm	sp, {fp, sp, lr}
 c105aac:	e12fff1e 	bx	lr
 c105ab0:	01d2000c 	.word	0x01d2000c

0c105ab4 <led_off>:

void led_off( uint8 led )
{
 c105ab4:	e1a0c00d 	mov	ip, sp
 c105ab8:	e92dd800 	push	{fp, ip, lr, pc}
 c105abc:	e24cb004 	sub	fp, ip, #4
 c105ac0:	e24dd008 	sub	sp, sp, #8
 c105ac4:	e1a03000 	mov	r3, r0
 c105ac8:	e54b300d 	strb	r3, [fp, #-13]
	if(led == LEFT_LED){
 c105acc:	e55b300d 	ldrb	r3, [fp, #-13]
 c105ad0:	e3530001 	cmp	r3, #1
 c105ad4:	1a000005 	bne	c105af0 <led_off+0x3c>
		PDATB |= (1<<9);
 c105ad8:	e59f3030 	ldr	r3, [pc, #48]	; c105b10 <led_off+0x5c>
 c105adc:	e59f202c 	ldr	r2, [pc, #44]	; c105b10 <led_off+0x5c>
 c105ae0:	e5922000 	ldr	r2, [r2]
 c105ae4:	e3822c02 	orr	r2, r2, #512	; 0x200
 c105ae8:	e5832000 	str	r2, [r3]
 c105aec:	ea000004 	b	c105b04 <led_off+0x50>
	} else {
		PDATB |= (1<<10);
 c105af0:	e59f3018 	ldr	r3, [pc, #24]	; c105b10 <led_off+0x5c>
 c105af4:	e59f2014 	ldr	r2, [pc, #20]	; c105b10 <led_off+0x5c>
 c105af8:	e5922000 	ldr	r2, [r2]
 c105afc:	e3822b01 	orr	r2, r2, #1024	; 0x400
 c105b00:	e5832000 	str	r2, [r3]
	}
}
 c105b04:	e24bd00c 	sub	sp, fp, #12
 c105b08:	e89d6800 	ldm	sp, {fp, sp, lr}
 c105b0c:	e12fff1e 	bx	lr
 c105b10:	01d2000c 	.word	0x01d2000c

0c105b14 <led_toggle>:

void led_toggle( uint8 led )
{
 c105b14:	e1a0c00d 	mov	ip, sp
 c105b18:	e92dd800 	push	{fp, ip, lr, pc}
 c105b1c:	e24cb004 	sub	fp, ip, #4
 c105b20:	e24dd008 	sub	sp, sp, #8
 c105b24:	e1a03000 	mov	r3, r0
 c105b28:	e54b300d 	strb	r3, [fp, #-13]
	if(led == LEFT_LED){
 c105b2c:	e55b300d 	ldrb	r3, [fp, #-13]
 c105b30:	e3530001 	cmp	r3, #1
 c105b34:	1a000005 	bne	c105b50 <led_toggle+0x3c>
			PDATB ^= (1<<9);
 c105b38:	e59f3030 	ldr	r3, [pc, #48]	; c105b70 <led_toggle+0x5c>
 c105b3c:	e59f202c 	ldr	r2, [pc, #44]	; c105b70 <led_toggle+0x5c>
 c105b40:	e5922000 	ldr	r2, [r2]
 c105b44:	e2222c02 	eor	r2, r2, #512	; 0x200
 c105b48:	e5832000 	str	r2, [r3]
 c105b4c:	ea000004 	b	c105b64 <led_toggle+0x50>
		} else {
			PDATB ^= (1<<10);
 c105b50:	e59f3018 	ldr	r3, [pc, #24]	; c105b70 <led_toggle+0x5c>
 c105b54:	e59f2014 	ldr	r2, [pc, #20]	; c105b70 <led_toggle+0x5c>
 c105b58:	e5922000 	ldr	r2, [r2]
 c105b5c:	e2222b01 	eor	r2, r2, #1024	; 0x400
 c105b60:	e5832000 	str	r2, [r3]
		}
}
 c105b64:	e24bd00c 	sub	sp, fp, #12
 c105b68:	e89d6800 	ldm	sp, {fp, sp, lr}
 c105b6c:	e12fff1e 	bx	lr
 c105b70:	01d2000c 	.word	0x01d2000c

0c105b74 <led_status>:

uint8 led_status( uint8 led )
{
 c105b74:	e1a0c00d 	mov	ip, sp
 c105b78:	e92dd800 	push	{fp, ip, lr, pc}
 c105b7c:	e24cb004 	sub	fp, ip, #4
 c105b80:	e24dd008 	sub	sp, sp, #8
 c105b84:	e1a03000 	mov	r3, r0
 c105b88:	e54b300d 	strb	r3, [fp, #-13]
	if(led == LEFT_LED){
 c105b8c:	e55b300d 	ldrb	r3, [fp, #-13]
 c105b90:	e3530001 	cmp	r3, #1
 c105b94:	1a000008 	bne	c105bbc <led_status+0x48>
		if (PDATB & (1<<9))
 c105b98:	e59f304c 	ldr	r3, [pc, #76]	; c105bec <led_status+0x78>
 c105b9c:	e5933000 	ldr	r3, [r3]
 c105ba0:	e2033c02 	and	r3, r3, #512	; 0x200
 c105ba4:	e3530000 	cmp	r3, #0
 c105ba8:	0a000001 	beq	c105bb4 <led_status+0x40>
			return 0;//apagado
 c105bac:	e3a03000 	mov	r3, #0
 c105bb0:	ea000009 	b	c105bdc <led_status+0x68>
		else{
			return 1;//encendido
 c105bb4:	e3a03001 	mov	r3, #1
 c105bb8:	ea000007 	b	c105bdc <led_status+0x68>
		}
	} else {
		if (PDATB & (1<<10))
 c105bbc:	e59f3028 	ldr	r3, [pc, #40]	; c105bec <led_status+0x78>
 c105bc0:	e5933000 	ldr	r3, [r3]
 c105bc4:	e2033b01 	and	r3, r3, #1024	; 0x400
 c105bc8:	e3530000 	cmp	r3, #0
 c105bcc:	0a000001 	beq	c105bd8 <led_status+0x64>
			return 0;//apagado
 c105bd0:	e3a03000 	mov	r3, #0
 c105bd4:	ea000000 	b	c105bdc <led_status+0x68>
		else{
			return 1;//encendido
 c105bd8:	e3a03001 	mov	r3, #1
		}
	}
}
 c105bdc:	e1a00003 	mov	r0, r3
 c105be0:	e24bd00c 	sub	sp, fp, #12
 c105be4:	e89d6800 	ldm	sp, {fp, sp, lr}
 c105be8:	e12fff1e 	bx	lr
 c105bec:	01d2000c 	.word	0x01d2000c

0c105bf0 <pbs_init>:
#include <timers.h>

extern void isr_PB_dummy( void );

void pbs_init( void )
{
 c105bf0:	e1a0c00d 	mov	ip, sp
 c105bf4:	e92dd800 	push	{fp, ip, lr, pc}
 c105bf8:	e24cb004 	sub	fp, ip, #4
    timers_init();
 c105bfc:	eb000671 	bl	c1075c8 <timers_init>
}
 c105c00:	e24bd00c 	sub	sp, fp, #12
 c105c04:	e89d6800 	ldm	sp, {fp, sp, lr}
 c105c08:	e12fff1e 	bx	lr

0c105c0c <pb_scan>:

uint8 pb_scan( void )
{
 c105c0c:	e1a0c00d 	mov	ip, sp
 c105c10:	e92dd800 	push	{fp, ip, lr, pc}
 c105c14:	e24cb004 	sub	fp, ip, #4
    if( !(PDATG&PB_LEFT))
 c105c18:	e59f3044 	ldr	r3, [pc, #68]	; c105c64 <pb_scan+0x58>
 c105c1c:	e5933000 	ldr	r3, [r3]
 c105c20:	e2033040 	and	r3, r3, #64	; 0x40
 c105c24:	e3530000 	cmp	r3, #0
 c105c28:	1a000001 	bne	c105c34 <pb_scan+0x28>
        return PB_LEFT;
 c105c2c:	e3a03040 	mov	r3, #64	; 0x40
 c105c30:	ea000007 	b	c105c54 <pb_scan+0x48>
    else if( !(PDATG&PB_RIGHT))
 c105c34:	e59f3028 	ldr	r3, [pc, #40]	; c105c64 <pb_scan+0x58>
 c105c38:	e5933000 	ldr	r3, [r3]
 c105c3c:	e2033080 	and	r3, r3, #128	; 0x80
 c105c40:	e3530000 	cmp	r3, #0
 c105c44:	1a000001 	bne	c105c50 <pb_scan+0x44>
        return PB_RIGHT;
 c105c48:	e3a03080 	mov	r3, #128	; 0x80
 c105c4c:	ea000000 	b	c105c54 <pb_scan+0x48>
    else
        return PB_FAILURE;
 c105c50:	e3a030ff 	mov	r3, #255	; 0xff
}
 c105c54:	e1a00003 	mov	r0, r3
 c105c58:	e24bd00c 	sub	sp, fp, #12
 c105c5c:	e89d6800 	ldm	sp, {fp, sp, lr}
 c105c60:	e12fff1e 	bx	lr
 c105c64:	01d20044 	.word	0x01d20044

0c105c68 <pb_pressed>:

uint8 pb_pressed( void )
{
 c105c68:	e1a0c00d 	mov	ip, sp
 c105c6c:	e92dd800 	push	{fp, ip, lr, pc}
 c105c70:	e24cb004 	sub	fp, ip, #4
    return (pb_scan()!=PB_FAILURE);
 c105c74:	ebffffe4 	bl	c105c0c <pb_scan>
 c105c78:	e1a03000 	mov	r3, r0
 c105c7c:	e35300ff 	cmp	r3, #255	; 0xff
 c105c80:	03a03000 	moveq	r3, #0
 c105c84:	13a03001 	movne	r3, #1
 c105c88:	e20330ff 	and	r3, r3, #255	; 0xff
}
 c105c8c:	e1a00003 	mov	r0, r3
 c105c90:	e24bd00c 	sub	sp, fp, #12
 c105c94:	e89d6800 	ldm	sp, {fp, sp, lr}
 c105c98:	e12fff1e 	bx	lr

0c105c9c <pb_getchar>:

uint8 pb_getchar( void )
{
 c105c9c:	e1a0c00d 	mov	ip, sp
 c105ca0:	e92dd800 	push	{fp, ip, lr, pc}
 c105ca4:	e24cb004 	sub	fp, ip, #4
 c105ca8:	e24dd008 	sub	sp, sp, #8
    uint8 scancode;
    while(pb_scan()== PB_FAILURE);
 c105cac:	e1a00000 	nop			; (mov r0, r0)
 c105cb0:	ebffffd5 	bl	c105c0c <pb_scan>
 c105cb4:	e1a03000 	mov	r3, r0
 c105cb8:	e35300ff 	cmp	r3, #255	; 0xff
 c105cbc:	0afffffb 	beq	c105cb0 <pb_getchar+0x14>
    sw_delay_ms(PB_KEYDOWN_DELAY);
 c105cc0:	e3a0001e 	mov	r0, #30
 c105cc4:	eb0006e7 	bl	c107868 <sw_delay_ms>
    scancode = pb_scan();
 c105cc8:	ebffffcf 	bl	c105c0c <pb_scan>
 c105ccc:	e1a03000 	mov	r3, r0
 c105cd0:	e54b300d 	strb	r3, [fp, #-13]

    while(pb_scan()!= PB_FAILURE);
 c105cd4:	e1a00000 	nop			; (mov r0, r0)
 c105cd8:	ebffffcb 	bl	c105c0c <pb_scan>
 c105cdc:	e1a03000 	mov	r3, r0
 c105ce0:	e35300ff 	cmp	r3, #255	; 0xff
 c105ce4:	1afffffb 	bne	c105cd8 <pb_getchar+0x3c>
    sw_delay_ms(PB_KEYUP_DELAY);
 c105ce8:	e3a00064 	mov	r0, #100	; 0x64
 c105cec:	eb0006dd 	bl	c107868 <sw_delay_ms>

    return scancode;
 c105cf0:	e55b300d 	ldrb	r3, [fp, #-13]
}
 c105cf4:	e1a00003 	mov	r0, r3
 c105cf8:	e24bd00c 	sub	sp, fp, #12
 c105cfc:	e89d6800 	ldm	sp, {fp, sp, lr}
 c105d00:	e12fff1e 	bx	lr

0c105d04 <pb_getchartime>:

uint8 pb_getchartime( uint16 *ms )
{
 c105d04:	e1a0c00d 	mov	ip, sp
 c105d08:	e92dd800 	push	{fp, ip, lr, pc}
 c105d0c:	e24cb004 	sub	fp, ip, #4
 c105d10:	e24dd010 	sub	sp, sp, #16
 c105d14:	e50b0018 	str	r0, [fp, #-24]	; 0xffffffe8
    uint8 scancode;
    
    while(pb_scan()== PB_FAILURE);
 c105d18:	e1a00000 	nop			; (mov r0, r0)
 c105d1c:	ebffffba 	bl	c105c0c <pb_scan>
 c105d20:	e1a03000 	mov	r3, r0
 c105d24:	e35300ff 	cmp	r3, #255	; 0xff
 c105d28:	0afffffb 	beq	c105d1c <pb_getchartime+0x18>
    timer3_start();
 c105d2c:	eb000734 	bl	c107a04 <timer3_start>
    sw_delay_ms( PB_KEYDOWN_DELAY );
 c105d30:	e3a0001e 	mov	r0, #30
 c105d34:	eb0006cb 	bl	c107868 <sw_delay_ms>
    
    scancode = pb_scan();
 c105d38:	ebffffb3 	bl	c105c0c <pb_scan>
 c105d3c:	e1a03000 	mov	r3, r0
 c105d40:	e54b300d 	strb	r3, [fp, #-13]
    
    while(pb_scan()!= PB_FAILURE);
 c105d44:	e1a00000 	nop			; (mov r0, r0)
 c105d48:	ebffffaf 	bl	c105c0c <pb_scan>
 c105d4c:	e1a03000 	mov	r3, r0
 c105d50:	e35300ff 	cmp	r3, #255	; 0xff
 c105d54:	1afffffb 	bne	c105d48 <pb_getchartime+0x44>
    *ms = timer3_stop() / 10;
 c105d58:	eb000755 	bl	c107ab4 <timer3_stop>
 c105d5c:	e1a03000 	mov	r3, r0
 c105d60:	e1a02003 	mov	r2, r3
 c105d64:	e59f3030 	ldr	r3, [pc, #48]	; c105d9c <pb_getchartime+0x98>
 c105d68:	e0831392 	umull	r1, r3, r2, r3
 c105d6c:	e1a031a3 	lsr	r3, r3, #3
 c105d70:	e1a03803 	lsl	r3, r3, #16
 c105d74:	e1a02823 	lsr	r2, r3, #16
 c105d78:	e51b3018 	ldr	r3, [fp, #-24]	; 0xffffffe8
 c105d7c:	e1c320b0 	strh	r2, [r3]
    sw_delay_ms( PB_KEYUP_DELAY );
 c105d80:	e3a00064 	mov	r0, #100	; 0x64
 c105d84:	eb0006b7 	bl	c107868 <sw_delay_ms>

    return scancode;
 c105d88:	e55b300d 	ldrb	r3, [fp, #-13]
}
 c105d8c:	e1a00003 	mov	r0, r3
 c105d90:	e24bd00c 	sub	sp, fp, #12
 c105d94:	e89d6800 	ldm	sp, {fp, sp, lr}
 c105d98:	e12fff1e 	bx	lr
 c105d9c:	cccccccd 	.word	0xcccccccd

0c105da0 <pb_timeout_getchar>:

uint8 pb_timeout_getchar( uint16 ms )
{
 c105da0:	e1a0c00d 	mov	ip, sp
 c105da4:	e92dd800 	push	{fp, ip, lr, pc}
 c105da8:	e24cb004 	sub	fp, ip, #4
 c105dac:	e24dd010 	sub	sp, sp, #16
 c105db0:	e1a03000 	mov	r3, r0
 c105db4:	e14b31b6 	strh	r3, [fp, #-22]	; 0xffffffea
    uint8 scancode;
    timer3_start_timeout(ms*10);
 c105db8:	e15b31b6 	ldrh	r3, [fp, #-22]	; 0xffffffea
 c105dbc:	e1a02003 	mov	r2, r3
 c105dc0:	e1a02102 	lsl	r2, r2, #2
 c105dc4:	e0823003 	add	r3, r2, r3
 c105dc8:	e1a03083 	lsl	r3, r3, #1
 c105dcc:	e1a03803 	lsl	r3, r3, #16
 c105dd0:	e1a03823 	lsr	r3, r3, #16
 c105dd4:	e1a00003 	mov	r0, r3
 c105dd8:	eb00074a 	bl	c107b08 <timer3_start_timeout>
    while((pb_scan()== PB_FAILURE) && !timer3_timeout());
 c105ddc:	e1a00000 	nop			; (mov r0, r0)
 c105de0:	ebffff89 	bl	c105c0c <pb_scan>
 c105de4:	e1a03000 	mov	r3, r0
 c105de8:	e35300ff 	cmp	r3, #255	; 0xff
 c105dec:	1a000003 	bne	c105e00 <pb_timeout_getchar+0x60>
 c105df0:	eb000772 	bl	c107bc0 <timer3_timeout>
 c105df4:	e1a03000 	mov	r3, r0
 c105df8:	e3530000 	cmp	r3, #0
 c105dfc:	0afffff7 	beq	c105de0 <pb_timeout_getchar+0x40>
    if (timer3_timeout())
 c105e00:	eb00076e 	bl	c107bc0 <timer3_timeout>
 c105e04:	e1a03000 	mov	r3, r0
 c105e08:	e3530000 	cmp	r3, #0
 c105e0c:	0a000001 	beq	c105e18 <pb_timeout_getchar+0x78>
    return PB_TIMEOUT;
 c105e10:	e3a030fe 	mov	r3, #254	; 0xfe
 c105e14:	ea000016 	b	c105e74 <pb_timeout_getchar+0xd4>
    sw_delay_ms (PB_KEYDOWN_DELAY);
 c105e18:	e3a0001e 	mov	r0, #30
 c105e1c:	eb000691 	bl	c107868 <sw_delay_ms>
    scancode = pb_scan();
 c105e20:	ebffff79 	bl	c105c0c <pb_scan>
 c105e24:	e1a03000 	mov	r3, r0
 c105e28:	e54b300d 	strb	r3, [fp, #-13]

    while((pb_scan()!= PB_FAILURE) && !timer3_timeout());
 c105e2c:	e1a00000 	nop			; (mov r0, r0)
 c105e30:	ebffff75 	bl	c105c0c <pb_scan>
 c105e34:	e1a03000 	mov	r3, r0
 c105e38:	e35300ff 	cmp	r3, #255	; 0xff
 c105e3c:	0a000003 	beq	c105e50 <pb_timeout_getchar+0xb0>
 c105e40:	eb00075e 	bl	c107bc0 <timer3_timeout>
 c105e44:	e1a03000 	mov	r3, r0
 c105e48:	e3530000 	cmp	r3, #0
 c105e4c:	0afffff7 	beq	c105e30 <pb_timeout_getchar+0x90>
    if (timer3_timeout())
 c105e50:	eb00075a 	bl	c107bc0 <timer3_timeout>
 c105e54:	e1a03000 	mov	r3, r0
 c105e58:	e3530000 	cmp	r3, #0
 c105e5c:	0a000001 	beq	c105e68 <pb_timeout_getchar+0xc8>
    return PB_TIMEOUT;
 c105e60:	e3a030fe 	mov	r3, #254	; 0xfe
 c105e64:	ea000002 	b	c105e74 <pb_timeout_getchar+0xd4>
    sw_delay_ms (PB_KEYUP_DELAY);
 c105e68:	e3a00064 	mov	r0, #100	; 0x64
 c105e6c:	eb00067d 	bl	c107868 <sw_delay_ms>

    return scancode;
 c105e70:	e55b300d 	ldrb	r3, [fp, #-13]


}
 c105e74:	e1a00003 	mov	r0, r3
 c105e78:	e24bd00c 	sub	sp, fp, #12
 c105e7c:	e89d6800 	ldm	sp, {fp, sp, lr}
 c105e80:	e12fff1e 	bx	lr

0c105e84 <pbs_open>:

void pbs_open( void (*isr)(void) )
{
 c105e84:	e1a0c00d 	mov	ip, sp
 c105e88:	e92dd800 	push	{fp, ip, lr, pc}
 c105e8c:	e24cb004 	sub	fp, ip, #4
 c105e90:	e24dd008 	sub	sp, sp, #8
 c105e94:	e50b0010 	str	r0, [fp, #-16]
    pISR_PB   = isr;
 c105e98:	e59f303c 	ldr	r3, [pc, #60]	; c105edc <pbs_open+0x58>
 c105e9c:	e51b2010 	ldr	r2, [fp, #-16]
 c105ea0:	e5832000 	str	r2, [r3]
    EXTINTPND = 0x0;
 c105ea4:	e59f3034 	ldr	r3, [pc, #52]	; c105ee0 <pbs_open+0x5c>
 c105ea8:	e3a02000 	mov	r2, #0
 c105eac:	e5832000 	str	r2, [r3]
    I_ISPC    = BIT_EINT4567;
 c105eb0:	e59f302c 	ldr	r3, [pc, #44]	; c105ee4 <pbs_open+0x60>
 c105eb4:	e3a02602 	mov	r2, #2097152	; 0x200000
 c105eb8:	e5832000 	str	r2, [r3]
    INTMSK   &= ~( BIT_GLOBAL | BIT_EINT4567);
 c105ebc:	e59f3024 	ldr	r3, [pc, #36]	; c105ee8 <pbs_open+0x64>
 c105ec0:	e59f2020 	ldr	r2, [pc, #32]	; c105ee8 <pbs_open+0x64>
 c105ec4:	e5922000 	ldr	r2, [r2]
 c105ec8:	e3c22642 	bic	r2, r2, #69206016	; 0x4200000
 c105ecc:	e5832000 	str	r2, [r3]
}
 c105ed0:	e24bd00c 	sub	sp, fp, #12
 c105ed4:	e89d6800 	ldm	sp, {fp, sp, lr}
 c105ed8:	e12fff1e 	bx	lr
 c105edc:	0c7fff74 	.word	0x0c7fff74
 c105ee0:	01d20054 	.word	0x01d20054
 c105ee4:	01e00024 	.word	0x01e00024
 c105ee8:	01e0000c 	.word	0x01e0000c

0c105eec <pbs_close>:

void pbs_close( void )
{
 c105eec:	e1a0c00d 	mov	ip, sp
 c105ef0:	e92dd800 	push	{fp, ip, lr, pc}
 c105ef4:	e24cb004 	sub	fp, ip, #4
    INTMSK  |= BIT_EINT4567;
 c105ef8:	e59f3024 	ldr	r3, [pc, #36]	; c105f24 <pbs_close+0x38>
 c105efc:	e59f2020 	ldr	r2, [pc, #32]	; c105f24 <pbs_close+0x38>
 c105f00:	e5922000 	ldr	r2, [r2]
 c105f04:	e3822602 	orr	r2, r2, #2097152	; 0x200000
 c105f08:	e5832000 	str	r2, [r3]
    pISR_PB  = isr_PB_dummy;
 c105f0c:	e59f3014 	ldr	r3, [pc, #20]	; c105f28 <pbs_close+0x3c>
 c105f10:	e59f2014 	ldr	r2, [pc, #20]	; c105f2c <pbs_close+0x40>
 c105f14:	e5832000 	str	r2, [r3]
}
 c105f18:	e24bd00c 	sub	sp, fp, #12
 c105f1c:	e89d6800 	ldm	sp, {fp, sp, lr}
 c105f20:	e12fff1e 	bx	lr
 c105f24:	01e0000c 	.word	0x01e0000c
 c105f28:	0c7fff74 	.word	0x0c7fff74
 c105f2c:	0c107278 	.word	0x0c107278

0c105f30 <rtc_init>:
#include <rtc.h>

extern void isr_TICK_dummy( void );

void rtc_init( void )
{
 c105f30:	e1a0c00d 	mov	ip, sp
 c105f34:	e92dd800 	push	{fp, ip, lr, pc}
 c105f38:	e24cb004 	sub	fp, ip, #4
	TICNT   = 0x80;
 c105f3c:	e59f30ec 	ldr	r3, [pc, #236]	; c106030 <rtc_init+0x100>
 c105f40:	e3a02080 	mov	r2, #128	; 0x80
 c105f44:	e5832000 	str	r2, [r3]
	RTCALM  = 0x0;
 c105f48:	e59f30e4 	ldr	r3, [pc, #228]	; c106034 <rtc_init+0x104>
 c105f4c:	e3a02000 	mov	r2, #0
 c105f50:	e5832000 	str	r2, [r3]
	RTCRST  = 0x0;
 c105f54:	e59f30dc 	ldr	r3, [pc, #220]	; c106038 <rtc_init+0x108>
 c105f58:	e3a02000 	mov	r2, #0
 c105f5c:	e5832000 	str	r2, [r3]
        
	RTCCON  |= (1<<0);
 c105f60:	e59f30d4 	ldr	r3, [pc, #212]	; c10603c <rtc_init+0x10c>
 c105f64:	e59f20d0 	ldr	r2, [pc, #208]	; c10603c <rtc_init+0x10c>
 c105f68:	e5922000 	ldr	r2, [r2]
 c105f6c:	e3822001 	orr	r2, r2, #1
 c105f70:	e5832000 	str	r2, [r3]

	BCDYEAR = 0x13;
 c105f74:	e59f30c4 	ldr	r3, [pc, #196]	; c106040 <rtc_init+0x110>
 c105f78:	e3a02013 	mov	r2, #19
 c105f7c:	e5832000 	str	r2, [r3]
	BCDMON  = 0x01;
 c105f80:	e59f30bc 	ldr	r3, [pc, #188]	; c106044 <rtc_init+0x114>
 c105f84:	e3a02001 	mov	r2, #1
 c105f88:	e5832000 	str	r2, [r3]
	BCDDAY  = 0x01;
 c105f8c:	e59f30b4 	ldr	r3, [pc, #180]	; c106048 <rtc_init+0x118>
 c105f90:	e3a02001 	mov	r2, #1
 c105f94:	e5832000 	str	r2, [r3]
	BCDDATE = 0x02;
 c105f98:	e59f30ac 	ldr	r3, [pc, #172]	; c10604c <rtc_init+0x11c>
 c105f9c:	e3a02002 	mov	r2, #2
 c105fa0:	e5832000 	str	r2, [r3]
	BCDHOUR = 0x00;
 c105fa4:	e59f30a4 	ldr	r3, [pc, #164]	; c106050 <rtc_init+0x120>
 c105fa8:	e3a02000 	mov	r2, #0
 c105fac:	e5832000 	str	r2, [r3]
	BCDMIN  = 0x00;
 c105fb0:	e59f309c 	ldr	r3, [pc, #156]	; c106054 <rtc_init+0x124>
 c105fb4:	e3a02000 	mov	r2, #0
 c105fb8:	e5832000 	str	r2, [r3]
	BCDSEC  = 0x00;
 c105fbc:	e59f3094 	ldr	r3, [pc, #148]	; c106058 <rtc_init+0x128>
 c105fc0:	e3a02000 	mov	r2, #0
 c105fc4:	e5832000 	str	r2, [r3]

	ALMYEAR = 0x00;
 c105fc8:	e59f308c 	ldr	r3, [pc, #140]	; c10605c <rtc_init+0x12c>
 c105fcc:	e3a02000 	mov	r2, #0
 c105fd0:	e5832000 	str	r2, [r3]
	ALMMON  = 0x00;
 c105fd4:	e59f3084 	ldr	r3, [pc, #132]	; c106060 <rtc_init+0x130>
 c105fd8:	e3a02000 	mov	r2, #0
 c105fdc:	e5832000 	str	r2, [r3]
	ALMDAY  = 0x00;
 c105fe0:	e59f307c 	ldr	r3, [pc, #124]	; c106064 <rtc_init+0x134>
 c105fe4:	e3a02000 	mov	r2, #0
 c105fe8:	e5832000 	str	r2, [r3]
	ALMHOUR = 0x00;
 c105fec:	e59f3074 	ldr	r3, [pc, #116]	; c106068 <rtc_init+0x138>
 c105ff0:	e3a02000 	mov	r2, #0
 c105ff4:	e5832000 	str	r2, [r3]
	ALMMIN  = 0x00;
 c105ff8:	e59f306c 	ldr	r3, [pc, #108]	; c10606c <rtc_init+0x13c>
 c105ffc:	e3a02000 	mov	r2, #0
 c106000:	e5832000 	str	r2, [r3]
	ALMSEC  = 0x00;
 c106004:	e59f3064 	ldr	r3, [pc, #100]	; c106070 <rtc_init+0x140>
 c106008:	e3a02000 	mov	r2, #0
 c10600c:	e5832000 	str	r2, [r3]

	RTCCON &= ~(1<<0);
 c106010:	e59f3024 	ldr	r3, [pc, #36]	; c10603c <rtc_init+0x10c>
 c106014:	e59f2020 	ldr	r2, [pc, #32]	; c10603c <rtc_init+0x10c>
 c106018:	e5922000 	ldr	r2, [r2]
 c10601c:	e3c22001 	bic	r2, r2, #1
 c106020:	e5832000 	str	r2, [r3]
}
 c106024:	e24bd00c 	sub	sp, fp, #12
 c106028:	e89d6800 	ldm	sp, {fp, sp, lr}
 c10602c:	e12fff1e 	bx	lr
 c106030:	01d7008c 	.word	0x01d7008c
 c106034:	01d70050 	.word	0x01d70050
 c106038:	01d7006c 	.word	0x01d7006c
 c10603c:	01d70040 	.word	0x01d70040
 c106040:	01d70088 	.word	0x01d70088
 c106044:	01d70084 	.word	0x01d70084
 c106048:	01d7007c 	.word	0x01d7007c
 c10604c:	01d70080 	.word	0x01d70080
 c106050:	01d70078 	.word	0x01d70078
 c106054:	01d70074 	.word	0x01d70074
 c106058:	01d70070 	.word	0x01d70070
 c10605c:	01d70068 	.word	0x01d70068
 c106060:	01d70064 	.word	0x01d70064
 c106064:	01d70060 	.word	0x01d70060
 c106068:	01d7005c 	.word	0x01d7005c
 c10606c:	01d70058 	.word	0x01d70058
 c106070:	01d70054 	.word	0x01d70054

0c106074 <rtc_puttime>:

void rtc_puttime( rtc_time_t *rtc_time )
{
 c106074:	e1a0c00d 	mov	ip, sp
 c106078:	e92dd800 	push	{fp, ip, lr, pc}
 c10607c:	e24cb004 	sub	fp, ip, #4
 c106080:	e24dd008 	sub	sp, sp, #8
 c106084:	e50b0010 	str	r0, [fp, #-16]
	RTCCON |= (1<<0);
 c106088:	e59f3278 	ldr	r3, [pc, #632]	; c106308 <rtc_puttime+0x294>
 c10608c:	e59f2274 	ldr	r2, [pc, #628]	; c106308 <rtc_puttime+0x294>
 c106090:	e5922000 	ldr	r2, [r2]
 c106094:	e3822001 	orr	r2, r2, #1
 c106098:	e5832000 	str	r2, [r3]

	BCDYEAR = 	((rtc_time->year/10)<<4)|(rtc_time->year%10);
 c10609c:	e59f0268 	ldr	r0, [pc, #616]	; c10630c <rtc_puttime+0x298>
 c1060a0:	e51b3010 	ldr	r3, [fp, #-16]
 c1060a4:	e5d32006 	ldrb	r2, [r3, #6]
 c1060a8:	e59f3260 	ldr	r3, [pc, #608]	; c106310 <rtc_puttime+0x29c>
 c1060ac:	e0831392 	umull	r1, r3, r2, r3
 c1060b0:	e1a031a3 	lsr	r3, r3, #3
 c1060b4:	e20330ff 	and	r3, r3, #255	; 0xff
 c1060b8:	e1a0c203 	lsl	ip, r3, #4
 c1060bc:	e51b3010 	ldr	r3, [fp, #-16]
 c1060c0:	e5d32006 	ldrb	r2, [r3, #6]
 c1060c4:	e59f3244 	ldr	r3, [pc, #580]	; c106310 <rtc_puttime+0x29c>
 c1060c8:	e0831392 	umull	r1, r3, r2, r3
 c1060cc:	e1a011a3 	lsr	r1, r3, #3
 c1060d0:	e1a03001 	mov	r3, r1
 c1060d4:	e1a03103 	lsl	r3, r3, #2
 c1060d8:	e0833001 	add	r3, r3, r1
 c1060dc:	e1a03083 	lsl	r3, r3, #1
 c1060e0:	e0633002 	rsb	r3, r3, r2
 c1060e4:	e20330ff 	and	r3, r3, #255	; 0xff
 c1060e8:	e18c3003 	orr	r3, ip, r3
 c1060ec:	e5803000 	str	r3, [r0]
	BCDMON  = 	((rtc_time->mon/10)<<4)|(rtc_time->mon%10);
 c1060f0:	e59f021c 	ldr	r0, [pc, #540]	; c106314 <rtc_puttime+0x2a0>
 c1060f4:	e51b3010 	ldr	r3, [fp, #-16]
 c1060f8:	e5d32005 	ldrb	r2, [r3, #5]
 c1060fc:	e59f320c 	ldr	r3, [pc, #524]	; c106310 <rtc_puttime+0x29c>
 c106100:	e0831392 	umull	r1, r3, r2, r3
 c106104:	e1a031a3 	lsr	r3, r3, #3
 c106108:	e20330ff 	and	r3, r3, #255	; 0xff
 c10610c:	e1a0c203 	lsl	ip, r3, #4
 c106110:	e51b3010 	ldr	r3, [fp, #-16]
 c106114:	e5d32005 	ldrb	r2, [r3, #5]
 c106118:	e59f31f0 	ldr	r3, [pc, #496]	; c106310 <rtc_puttime+0x29c>
 c10611c:	e0831392 	umull	r1, r3, r2, r3
 c106120:	e1a011a3 	lsr	r1, r3, #3
 c106124:	e1a03001 	mov	r3, r1
 c106128:	e1a03103 	lsl	r3, r3, #2
 c10612c:	e0833001 	add	r3, r3, r1
 c106130:	e1a03083 	lsl	r3, r3, #1
 c106134:	e0633002 	rsb	r3, r3, r2
 c106138:	e20330ff 	and	r3, r3, #255	; 0xff
 c10613c:	e18c3003 	orr	r3, ip, r3
 c106140:	e5803000 	str	r3, [r0]
	BCDDAY  = 	((rtc_time->mday/10)<<4)|(rtc_time->mday%10);
 c106144:	e59f01cc 	ldr	r0, [pc, #460]	; c106318 <rtc_puttime+0x2a4>
 c106148:	e51b3010 	ldr	r3, [fp, #-16]
 c10614c:	e5d32003 	ldrb	r2, [r3, #3]
 c106150:	e59f31b8 	ldr	r3, [pc, #440]	; c106310 <rtc_puttime+0x29c>
 c106154:	e0831392 	umull	r1, r3, r2, r3
 c106158:	e1a031a3 	lsr	r3, r3, #3
 c10615c:	e20330ff 	and	r3, r3, #255	; 0xff
 c106160:	e1a0c203 	lsl	ip, r3, #4
 c106164:	e51b3010 	ldr	r3, [fp, #-16]
 c106168:	e5d32003 	ldrb	r2, [r3, #3]
 c10616c:	e59f319c 	ldr	r3, [pc, #412]	; c106310 <rtc_puttime+0x29c>
 c106170:	e0831392 	umull	r1, r3, r2, r3
 c106174:	e1a011a3 	lsr	r1, r3, #3
 c106178:	e1a03001 	mov	r3, r1
 c10617c:	e1a03103 	lsl	r3, r3, #2
 c106180:	e0833001 	add	r3, r3, r1
 c106184:	e1a03083 	lsl	r3, r3, #1
 c106188:	e0633002 	rsb	r3, r3, r2
 c10618c:	e20330ff 	and	r3, r3, #255	; 0xff
 c106190:	e18c3003 	orr	r3, ip, r3
 c106194:	e5803000 	str	r3, [r0]
	BCDDATE = 	((rtc_time->wday/10)<<4)|(rtc_time->wday%10);
 c106198:	e59f017c 	ldr	r0, [pc, #380]	; c10631c <rtc_puttime+0x2a8>
 c10619c:	e51b3010 	ldr	r3, [fp, #-16]
 c1061a0:	e5d32004 	ldrb	r2, [r3, #4]
 c1061a4:	e59f3164 	ldr	r3, [pc, #356]	; c106310 <rtc_puttime+0x29c>
 c1061a8:	e0831392 	umull	r1, r3, r2, r3
 c1061ac:	e1a031a3 	lsr	r3, r3, #3
 c1061b0:	e20330ff 	and	r3, r3, #255	; 0xff
 c1061b4:	e1a0c203 	lsl	ip, r3, #4
 c1061b8:	e51b3010 	ldr	r3, [fp, #-16]
 c1061bc:	e5d32004 	ldrb	r2, [r3, #4]
 c1061c0:	e59f3148 	ldr	r3, [pc, #328]	; c106310 <rtc_puttime+0x29c>
 c1061c4:	e0831392 	umull	r1, r3, r2, r3
 c1061c8:	e1a011a3 	lsr	r1, r3, #3
 c1061cc:	e1a03001 	mov	r3, r1
 c1061d0:	e1a03103 	lsl	r3, r3, #2
 c1061d4:	e0833001 	add	r3, r3, r1
 c1061d8:	e1a03083 	lsl	r3, r3, #1
 c1061dc:	e0633002 	rsb	r3, r3, r2
 c1061e0:	e20330ff 	and	r3, r3, #255	; 0xff
 c1061e4:	e18c3003 	orr	r3, ip, r3
 c1061e8:	e5803000 	str	r3, [r0]
	BCDHOUR =	((rtc_time->hour/10)<<4)|(rtc_time->hour%10);
 c1061ec:	e59f012c 	ldr	r0, [pc, #300]	; c106320 <rtc_puttime+0x2ac>
 c1061f0:	e51b3010 	ldr	r3, [fp, #-16]
 c1061f4:	e5d32002 	ldrb	r2, [r3, #2]
 c1061f8:	e59f3110 	ldr	r3, [pc, #272]	; c106310 <rtc_puttime+0x29c>
 c1061fc:	e0831392 	umull	r1, r3, r2, r3
 c106200:	e1a031a3 	lsr	r3, r3, #3
 c106204:	e20330ff 	and	r3, r3, #255	; 0xff
 c106208:	e1a0c203 	lsl	ip, r3, #4
 c10620c:	e51b3010 	ldr	r3, [fp, #-16]
 c106210:	e5d32002 	ldrb	r2, [r3, #2]
 c106214:	e59f30f4 	ldr	r3, [pc, #244]	; c106310 <rtc_puttime+0x29c>
 c106218:	e0831392 	umull	r1, r3, r2, r3
 c10621c:	e1a011a3 	lsr	r1, r3, #3
 c106220:	e1a03001 	mov	r3, r1
 c106224:	e1a03103 	lsl	r3, r3, #2
 c106228:	e0833001 	add	r3, r3, r1
 c10622c:	e1a03083 	lsl	r3, r3, #1
 c106230:	e0633002 	rsb	r3, r3, r2
 c106234:	e20330ff 	and	r3, r3, #255	; 0xff
 c106238:	e18c3003 	orr	r3, ip, r3
 c10623c:	e5803000 	str	r3, [r0]
	BCDMIN  =	((rtc_time->min/10)<<4)|(rtc_time->min%10);
 c106240:	e59f00dc 	ldr	r0, [pc, #220]	; c106324 <rtc_puttime+0x2b0>
 c106244:	e51b3010 	ldr	r3, [fp, #-16]
 c106248:	e5d32001 	ldrb	r2, [r3, #1]
 c10624c:	e59f30bc 	ldr	r3, [pc, #188]	; c106310 <rtc_puttime+0x29c>
 c106250:	e0831392 	umull	r1, r3, r2, r3
 c106254:	e1a031a3 	lsr	r3, r3, #3
 c106258:	e20330ff 	and	r3, r3, #255	; 0xff
 c10625c:	e1a0c203 	lsl	ip, r3, #4
 c106260:	e51b3010 	ldr	r3, [fp, #-16]
 c106264:	e5d32001 	ldrb	r2, [r3, #1]
 c106268:	e59f30a0 	ldr	r3, [pc, #160]	; c106310 <rtc_puttime+0x29c>
 c10626c:	e0831392 	umull	r1, r3, r2, r3
 c106270:	e1a011a3 	lsr	r1, r3, #3
 c106274:	e1a03001 	mov	r3, r1
 c106278:	e1a03103 	lsl	r3, r3, #2
 c10627c:	e0833001 	add	r3, r3, r1
 c106280:	e1a03083 	lsl	r3, r3, #1
 c106284:	e0633002 	rsb	r3, r3, r2
 c106288:	e20330ff 	and	r3, r3, #255	; 0xff
 c10628c:	e18c3003 	orr	r3, ip, r3
 c106290:	e5803000 	str	r3, [r0]
	BCDSEC  =	((rtc_time->sec/10)<<4)|(rtc_time->sec%10);
 c106294:	e59f008c 	ldr	r0, [pc, #140]	; c106328 <rtc_puttime+0x2b4>
 c106298:	e51b3010 	ldr	r3, [fp, #-16]
 c10629c:	e5d32000 	ldrb	r2, [r3]
 c1062a0:	e59f3068 	ldr	r3, [pc, #104]	; c106310 <rtc_puttime+0x29c>
 c1062a4:	e0831392 	umull	r1, r3, r2, r3
 c1062a8:	e1a031a3 	lsr	r3, r3, #3
 c1062ac:	e20330ff 	and	r3, r3, #255	; 0xff
 c1062b0:	e1a0c203 	lsl	ip, r3, #4
 c1062b4:	e51b3010 	ldr	r3, [fp, #-16]
 c1062b8:	e5d32000 	ldrb	r2, [r3]
 c1062bc:	e59f304c 	ldr	r3, [pc, #76]	; c106310 <rtc_puttime+0x29c>
 c1062c0:	e0831392 	umull	r1, r3, r2, r3
 c1062c4:	e1a011a3 	lsr	r1, r3, #3
 c1062c8:	e1a03001 	mov	r3, r1
 c1062cc:	e1a03103 	lsl	r3, r3, #2
 c1062d0:	e0833001 	add	r3, r3, r1
 c1062d4:	e1a03083 	lsl	r3, r3, #1
 c1062d8:	e0633002 	rsb	r3, r3, r2
 c1062dc:	e20330ff 	and	r3, r3, #255	; 0xff
 c1062e0:	e18c3003 	orr	r3, ip, r3
 c1062e4:	e5803000 	str	r3, [r0]

	RTCCON &= ~(1<<0);
 c1062e8:	e59f3018 	ldr	r3, [pc, #24]	; c106308 <rtc_puttime+0x294>
 c1062ec:	e59f2014 	ldr	r2, [pc, #20]	; c106308 <rtc_puttime+0x294>
 c1062f0:	e5922000 	ldr	r2, [r2]
 c1062f4:	e3c22001 	bic	r2, r2, #1
 c1062f8:	e5832000 	str	r2, [r3]
}
 c1062fc:	e24bd00c 	sub	sp, fp, #12
 c106300:	e89d6800 	ldm	sp, {fp, sp, lr}
 c106304:	e12fff1e 	bx	lr
 c106308:	01d70040 	.word	0x01d70040
 c10630c:	01d70088 	.word	0x01d70088
 c106310:	cccccccd 	.word	0xcccccccd
 c106314:	01d70084 	.word	0x01d70084
 c106318:	01d7007c 	.word	0x01d7007c
 c10631c:	01d70080 	.word	0x01d70080
 c106320:	01d70078 	.word	0x01d70078
 c106324:	01d70074 	.word	0x01d70074
 c106328:	01d70070 	.word	0x01d70070

0c10632c <rtc_gettime>:

void rtc_gettime( rtc_time_t *rtc_time )
{
 c10632c:	e1a0c00d 	mov	ip, sp
 c106330:	e92dd800 	push	{fp, ip, lr, pc}
 c106334:	e24cb004 	sub	fp, ip, #4
 c106338:	e24dd008 	sub	sp, sp, #8
 c10633c:	e50b0010 	str	r0, [fp, #-16]
    RTCCON |= (1<<0);
 c106340:	e59f342c 	ldr	r3, [pc, #1068]	; c106774 <rtc_gettime+0x448>
 c106344:	e59f2428 	ldr	r2, [pc, #1064]	; c106774 <rtc_gettime+0x448>
 c106348:	e5922000 	ldr	r2, [r2]
 c10634c:	e3822001 	orr	r2, r2, #1
 c106350:	e5832000 	str	r2, [r3]

      rtc_time->year = (BCDYEAR & 15) + (BCDYEAR >> 4)*10;
 c106354:	e59f341c 	ldr	r3, [pc, #1052]	; c106778 <rtc_gettime+0x44c>
 c106358:	e5933000 	ldr	r3, [r3]
 c10635c:	e20330ff 	and	r3, r3, #255	; 0xff
 c106360:	e203300f 	and	r3, r3, #15
 c106364:	e20320ff 	and	r2, r3, #255	; 0xff
 c106368:	e59f3408 	ldr	r3, [pc, #1032]	; c106778 <rtc_gettime+0x44c>
 c10636c:	e5933000 	ldr	r3, [r3]
 c106370:	e1a03223 	lsr	r3, r3, #4
 c106374:	e20330ff 	and	r3, r3, #255	; 0xff
 c106378:	e1a01003 	mov	r1, r3
 c10637c:	e1a01101 	lsl	r1, r1, #2
 c106380:	e0813003 	add	r3, r1, r3
 c106384:	e1a03083 	lsl	r3, r3, #1
 c106388:	e20330ff 	and	r3, r3, #255	; 0xff
 c10638c:	e0823003 	add	r3, r2, r3
 c106390:	e20320ff 	and	r2, r3, #255	; 0xff
 c106394:	e51b3010 	ldr	r3, [fp, #-16]
 c106398:	e5c32006 	strb	r2, [r3, #6]
      rtc_time->mon  =  (BCDMON & 15) + (BCDMON>> 4)*10;
 c10639c:	e59f33d8 	ldr	r3, [pc, #984]	; c10677c <rtc_gettime+0x450>
 c1063a0:	e5933000 	ldr	r3, [r3]
 c1063a4:	e20330ff 	and	r3, r3, #255	; 0xff
 c1063a8:	e203300f 	and	r3, r3, #15
 c1063ac:	e20320ff 	and	r2, r3, #255	; 0xff
 c1063b0:	e59f33c4 	ldr	r3, [pc, #964]	; c10677c <rtc_gettime+0x450>
 c1063b4:	e5933000 	ldr	r3, [r3]
 c1063b8:	e1a03223 	lsr	r3, r3, #4
 c1063bc:	e20330ff 	and	r3, r3, #255	; 0xff
 c1063c0:	e1a01003 	mov	r1, r3
 c1063c4:	e1a01101 	lsl	r1, r1, #2
 c1063c8:	e0813003 	add	r3, r1, r3
 c1063cc:	e1a03083 	lsl	r3, r3, #1
 c1063d0:	e20330ff 	and	r3, r3, #255	; 0xff
 c1063d4:	e0823003 	add	r3, r2, r3
 c1063d8:	e20320ff 	and	r2, r3, #255	; 0xff
 c1063dc:	e51b3010 	ldr	r3, [fp, #-16]
 c1063e0:	e5c32005 	strb	r2, [r3, #5]
      rtc_time->mday = (BCDDAY & 15) + (BCDDAY >> 4)*10;
 c1063e4:	e59f3394 	ldr	r3, [pc, #916]	; c106780 <rtc_gettime+0x454>
 c1063e8:	e5933000 	ldr	r3, [r3]
 c1063ec:	e20330ff 	and	r3, r3, #255	; 0xff
 c1063f0:	e203300f 	and	r3, r3, #15
 c1063f4:	e20320ff 	and	r2, r3, #255	; 0xff
 c1063f8:	e59f3380 	ldr	r3, [pc, #896]	; c106780 <rtc_gettime+0x454>
 c1063fc:	e5933000 	ldr	r3, [r3]
 c106400:	e1a03223 	lsr	r3, r3, #4
 c106404:	e20330ff 	and	r3, r3, #255	; 0xff
 c106408:	e1a01003 	mov	r1, r3
 c10640c:	e1a01101 	lsl	r1, r1, #2
 c106410:	e0813003 	add	r3, r1, r3
 c106414:	e1a03083 	lsl	r3, r3, #1
 c106418:	e20330ff 	and	r3, r3, #255	; 0xff
 c10641c:	e0823003 	add	r3, r2, r3
 c106420:	e20320ff 	and	r2, r3, #255	; 0xff
 c106424:	e51b3010 	ldr	r3, [fp, #-16]
 c106428:	e5c32003 	strb	r2, [r3, #3]
      rtc_time->wday = (BCDDATE & 15) + (BCDDATE >> 4)*10;
 c10642c:	e59f3350 	ldr	r3, [pc, #848]	; c106784 <rtc_gettime+0x458>
 c106430:	e5933000 	ldr	r3, [r3]
 c106434:	e20330ff 	and	r3, r3, #255	; 0xff
 c106438:	e203300f 	and	r3, r3, #15
 c10643c:	e20320ff 	and	r2, r3, #255	; 0xff
 c106440:	e59f333c 	ldr	r3, [pc, #828]	; c106784 <rtc_gettime+0x458>
 c106444:	e5933000 	ldr	r3, [r3]
 c106448:	e1a03223 	lsr	r3, r3, #4
 c10644c:	e20330ff 	and	r3, r3, #255	; 0xff
 c106450:	e1a01003 	mov	r1, r3
 c106454:	e1a01101 	lsl	r1, r1, #2
 c106458:	e0813003 	add	r3, r1, r3
 c10645c:	e1a03083 	lsl	r3, r3, #1
 c106460:	e20330ff 	and	r3, r3, #255	; 0xff
 c106464:	e0823003 	add	r3, r2, r3
 c106468:	e20320ff 	and	r2, r3, #255	; 0xff
 c10646c:	e51b3010 	ldr	r3, [fp, #-16]
 c106470:	e5c32004 	strb	r2, [r3, #4]
      rtc_time->hour = (BCDHOUR & 15) + (BCDHOUR >> 4)*10;
 c106474:	e59f330c 	ldr	r3, [pc, #780]	; c106788 <rtc_gettime+0x45c>
 c106478:	e5933000 	ldr	r3, [r3]
 c10647c:	e20330ff 	and	r3, r3, #255	; 0xff
 c106480:	e203300f 	and	r3, r3, #15
 c106484:	e20320ff 	and	r2, r3, #255	; 0xff
 c106488:	e59f32f8 	ldr	r3, [pc, #760]	; c106788 <rtc_gettime+0x45c>
 c10648c:	e5933000 	ldr	r3, [r3]
 c106490:	e1a03223 	lsr	r3, r3, #4
 c106494:	e20330ff 	and	r3, r3, #255	; 0xff
 c106498:	e1a01003 	mov	r1, r3
 c10649c:	e1a01101 	lsl	r1, r1, #2
 c1064a0:	e0813003 	add	r3, r1, r3
 c1064a4:	e1a03083 	lsl	r3, r3, #1
 c1064a8:	e20330ff 	and	r3, r3, #255	; 0xff
 c1064ac:	e0823003 	add	r3, r2, r3
 c1064b0:	e20320ff 	and	r2, r3, #255	; 0xff
 c1064b4:	e51b3010 	ldr	r3, [fp, #-16]
 c1064b8:	e5c32002 	strb	r2, [r3, #2]
      rtc_time->min  = (BCDMIN & 15) + (BCDMIN >> 4)*10;
 c1064bc:	e59f32c8 	ldr	r3, [pc, #712]	; c10678c <rtc_gettime+0x460>
 c1064c0:	e5933000 	ldr	r3, [r3]
 c1064c4:	e20330ff 	and	r3, r3, #255	; 0xff
 c1064c8:	e203300f 	and	r3, r3, #15
 c1064cc:	e20320ff 	and	r2, r3, #255	; 0xff
 c1064d0:	e59f32b4 	ldr	r3, [pc, #692]	; c10678c <rtc_gettime+0x460>
 c1064d4:	e5933000 	ldr	r3, [r3]
 c1064d8:	e1a03223 	lsr	r3, r3, #4
 c1064dc:	e20330ff 	and	r3, r3, #255	; 0xff
 c1064e0:	e1a01003 	mov	r1, r3
 c1064e4:	e1a01101 	lsl	r1, r1, #2
 c1064e8:	e0813003 	add	r3, r1, r3
 c1064ec:	e1a03083 	lsl	r3, r3, #1
 c1064f0:	e20330ff 	and	r3, r3, #255	; 0xff
 c1064f4:	e0823003 	add	r3, r2, r3
 c1064f8:	e20320ff 	and	r2, r3, #255	; 0xff
 c1064fc:	e51b3010 	ldr	r3, [fp, #-16]
 c106500:	e5c32001 	strb	r2, [r3, #1]
      rtc_time->sec  = (BCDSEC & 15) + (BCDSEC >> 4)*10;
 c106504:	e59f3284 	ldr	r3, [pc, #644]	; c106790 <rtc_gettime+0x464>
 c106508:	e5933000 	ldr	r3, [r3]
 c10650c:	e20330ff 	and	r3, r3, #255	; 0xff
 c106510:	e203300f 	and	r3, r3, #15
 c106514:	e20320ff 	and	r2, r3, #255	; 0xff
 c106518:	e59f3270 	ldr	r3, [pc, #624]	; c106790 <rtc_gettime+0x464>
 c10651c:	e5933000 	ldr	r3, [r3]
 c106520:	e1a03223 	lsr	r3, r3, #4
 c106524:	e20330ff 	and	r3, r3, #255	; 0xff
 c106528:	e1a01003 	mov	r1, r3
 c10652c:	e1a01101 	lsl	r1, r1, #2
 c106530:	e0813003 	add	r3, r1, r3
 c106534:	e1a03083 	lsl	r3, r3, #1
 c106538:	e20330ff 	and	r3, r3, #255	; 0xff
 c10653c:	e0823003 	add	r3, r2, r3
 c106540:	e20320ff 	and	r2, r3, #255	; 0xff
 c106544:	e51b3010 	ldr	r3, [fp, #-16]
 c106548:	e5c32000 	strb	r2, [r3]
      if( ! rtc_time->sec ){
 c10654c:	e51b3010 	ldr	r3, [fp, #-16]
 c106550:	e5d33000 	ldrb	r3, [r3]
 c106554:	e3530000 	cmp	r3, #0
 c106558:	1a00007d 	bne	c106754 <rtc_gettime+0x428>
          rtc_time->year = (BCDYEAR & 15) + (BCDYEAR >> 4)*10;
 c10655c:	e59f3214 	ldr	r3, [pc, #532]	; c106778 <rtc_gettime+0x44c>
 c106560:	e5933000 	ldr	r3, [r3]
 c106564:	e20330ff 	and	r3, r3, #255	; 0xff
 c106568:	e203300f 	and	r3, r3, #15
 c10656c:	e20320ff 	and	r2, r3, #255	; 0xff
 c106570:	e59f3200 	ldr	r3, [pc, #512]	; c106778 <rtc_gettime+0x44c>
 c106574:	e5933000 	ldr	r3, [r3]
 c106578:	e1a03223 	lsr	r3, r3, #4
 c10657c:	e20330ff 	and	r3, r3, #255	; 0xff
 c106580:	e1a01003 	mov	r1, r3
 c106584:	e1a01101 	lsl	r1, r1, #2
 c106588:	e0813003 	add	r3, r1, r3
 c10658c:	e1a03083 	lsl	r3, r3, #1
 c106590:	e20330ff 	and	r3, r3, #255	; 0xff
 c106594:	e0823003 	add	r3, r2, r3
 c106598:	e20320ff 	and	r2, r3, #255	; 0xff
 c10659c:	e51b3010 	ldr	r3, [fp, #-16]
 c1065a0:	e5c32006 	strb	r2, [r3, #6]
          rtc_time->mon  =  (BCDMON & 15) + (BCDMON>> 4)*10;
 c1065a4:	e59f31d0 	ldr	r3, [pc, #464]	; c10677c <rtc_gettime+0x450>
 c1065a8:	e5933000 	ldr	r3, [r3]
 c1065ac:	e20330ff 	and	r3, r3, #255	; 0xff
 c1065b0:	e203300f 	and	r3, r3, #15
 c1065b4:	e20320ff 	and	r2, r3, #255	; 0xff
 c1065b8:	e59f31bc 	ldr	r3, [pc, #444]	; c10677c <rtc_gettime+0x450>
 c1065bc:	e5933000 	ldr	r3, [r3]
 c1065c0:	e1a03223 	lsr	r3, r3, #4
 c1065c4:	e20330ff 	and	r3, r3, #255	; 0xff
 c1065c8:	e1a01003 	mov	r1, r3
 c1065cc:	e1a01101 	lsl	r1, r1, #2
 c1065d0:	e0813003 	add	r3, r1, r3
 c1065d4:	e1a03083 	lsl	r3, r3, #1
 c1065d8:	e20330ff 	and	r3, r3, #255	; 0xff
 c1065dc:	e0823003 	add	r3, r2, r3
 c1065e0:	e20320ff 	and	r2, r3, #255	; 0xff
 c1065e4:	e51b3010 	ldr	r3, [fp, #-16]
 c1065e8:	e5c32005 	strb	r2, [r3, #5]
          rtc_time->mday = (BCDDAY & 15) + (BCDDAY >> 4)*10;
 c1065ec:	e59f318c 	ldr	r3, [pc, #396]	; c106780 <rtc_gettime+0x454>
 c1065f0:	e5933000 	ldr	r3, [r3]
 c1065f4:	e20330ff 	and	r3, r3, #255	; 0xff
 c1065f8:	e203300f 	and	r3, r3, #15
 c1065fc:	e20320ff 	and	r2, r3, #255	; 0xff
 c106600:	e59f3178 	ldr	r3, [pc, #376]	; c106780 <rtc_gettime+0x454>
 c106604:	e5933000 	ldr	r3, [r3]
 c106608:	e1a03223 	lsr	r3, r3, #4
 c10660c:	e20330ff 	and	r3, r3, #255	; 0xff
 c106610:	e1a01003 	mov	r1, r3
 c106614:	e1a01101 	lsl	r1, r1, #2
 c106618:	e0813003 	add	r3, r1, r3
 c10661c:	e1a03083 	lsl	r3, r3, #1
 c106620:	e20330ff 	and	r3, r3, #255	; 0xff
 c106624:	e0823003 	add	r3, r2, r3
 c106628:	e20320ff 	and	r2, r3, #255	; 0xff
 c10662c:	e51b3010 	ldr	r3, [fp, #-16]
 c106630:	e5c32003 	strb	r2, [r3, #3]
          rtc_time->wday = (BCDDATE & 15) + (BCDDATE >> 4)*10;
 c106634:	e59f3148 	ldr	r3, [pc, #328]	; c106784 <rtc_gettime+0x458>
 c106638:	e5933000 	ldr	r3, [r3]
 c10663c:	e20330ff 	and	r3, r3, #255	; 0xff
 c106640:	e203300f 	and	r3, r3, #15
 c106644:	e20320ff 	and	r2, r3, #255	; 0xff
 c106648:	e59f3134 	ldr	r3, [pc, #308]	; c106784 <rtc_gettime+0x458>
 c10664c:	e5933000 	ldr	r3, [r3]
 c106650:	e1a03223 	lsr	r3, r3, #4
 c106654:	e20330ff 	and	r3, r3, #255	; 0xff
 c106658:	e1a01003 	mov	r1, r3
 c10665c:	e1a01101 	lsl	r1, r1, #2
 c106660:	e0813003 	add	r3, r1, r3
 c106664:	e1a03083 	lsl	r3, r3, #1
 c106668:	e20330ff 	and	r3, r3, #255	; 0xff
 c10666c:	e0823003 	add	r3, r2, r3
 c106670:	e20320ff 	and	r2, r3, #255	; 0xff
 c106674:	e51b3010 	ldr	r3, [fp, #-16]
 c106678:	e5c32004 	strb	r2, [r3, #4]
          rtc_time->hour = (BCDHOUR & 15) + (BCDHOUR >> 4)*10;
 c10667c:	e59f3104 	ldr	r3, [pc, #260]	; c106788 <rtc_gettime+0x45c>
 c106680:	e5933000 	ldr	r3, [r3]
 c106684:	e20330ff 	and	r3, r3, #255	; 0xff
 c106688:	e203300f 	and	r3, r3, #15
 c10668c:	e20320ff 	and	r2, r3, #255	; 0xff
 c106690:	e59f30f0 	ldr	r3, [pc, #240]	; c106788 <rtc_gettime+0x45c>
 c106694:	e5933000 	ldr	r3, [r3]
 c106698:	e1a03223 	lsr	r3, r3, #4
 c10669c:	e20330ff 	and	r3, r3, #255	; 0xff
 c1066a0:	e1a01003 	mov	r1, r3
 c1066a4:	e1a01101 	lsl	r1, r1, #2
 c1066a8:	e0813003 	add	r3, r1, r3
 c1066ac:	e1a03083 	lsl	r3, r3, #1
 c1066b0:	e20330ff 	and	r3, r3, #255	; 0xff
 c1066b4:	e0823003 	add	r3, r2, r3
 c1066b8:	e20320ff 	and	r2, r3, #255	; 0xff
 c1066bc:	e51b3010 	ldr	r3, [fp, #-16]
 c1066c0:	e5c32002 	strb	r2, [r3, #2]
          rtc_time->min  = (BCDMIN & 15) + (BCDMIN >> 4)*10;
 c1066c4:	e59f30c0 	ldr	r3, [pc, #192]	; c10678c <rtc_gettime+0x460>
 c1066c8:	e5933000 	ldr	r3, [r3]
 c1066cc:	e20330ff 	and	r3, r3, #255	; 0xff
 c1066d0:	e203300f 	and	r3, r3, #15
 c1066d4:	e20320ff 	and	r2, r3, #255	; 0xff
 c1066d8:	e59f30ac 	ldr	r3, [pc, #172]	; c10678c <rtc_gettime+0x460>
 c1066dc:	e5933000 	ldr	r3, [r3]
 c1066e0:	e1a03223 	lsr	r3, r3, #4
 c1066e4:	e20330ff 	and	r3, r3, #255	; 0xff
 c1066e8:	e1a01003 	mov	r1, r3
 c1066ec:	e1a01101 	lsl	r1, r1, #2
 c1066f0:	e0813003 	add	r3, r1, r3
 c1066f4:	e1a03083 	lsl	r3, r3, #1
 c1066f8:	e20330ff 	and	r3, r3, #255	; 0xff
 c1066fc:	e0823003 	add	r3, r2, r3
 c106700:	e20320ff 	and	r2, r3, #255	; 0xff
 c106704:	e51b3010 	ldr	r3, [fp, #-16]
 c106708:	e5c32001 	strb	r2, [r3, #1]
          rtc_time->sec  = (BCDSEC & 15) + (BCDSEC >> 4)*10;
 c10670c:	e59f307c 	ldr	r3, [pc, #124]	; c106790 <rtc_gettime+0x464>
 c106710:	e5933000 	ldr	r3, [r3]
 c106714:	e20330ff 	and	r3, r3, #255	; 0xff
 c106718:	e203300f 	and	r3, r3, #15
 c10671c:	e20320ff 	and	r2, r3, #255	; 0xff
 c106720:	e59f3068 	ldr	r3, [pc, #104]	; c106790 <rtc_gettime+0x464>
 c106724:	e5933000 	ldr	r3, [r3]
 c106728:	e1a03223 	lsr	r3, r3, #4
 c10672c:	e20330ff 	and	r3, r3, #255	; 0xff
 c106730:	e1a01003 	mov	r1, r3
 c106734:	e1a01101 	lsl	r1, r1, #2
 c106738:	e0813003 	add	r3, r1, r3
 c10673c:	e1a03083 	lsl	r3, r3, #1
 c106740:	e20330ff 	and	r3, r3, #255	; 0xff
 c106744:	e0823003 	add	r3, r2, r3
 c106748:	e20320ff 	and	r2, r3, #255	; 0xff
 c10674c:	e51b3010 	ldr	r3, [fp, #-16]
 c106750:	e5c32000 	strb	r2, [r3]
      }
    RTCCON &= ~(1<<0);
 c106754:	e59f3018 	ldr	r3, [pc, #24]	; c106774 <rtc_gettime+0x448>
 c106758:	e59f2014 	ldr	r2, [pc, #20]	; c106774 <rtc_gettime+0x448>
 c10675c:	e5922000 	ldr	r2, [r2]
 c106760:	e3c22001 	bic	r2, r2, #1
 c106764:	e5832000 	str	r2, [r3]
}
 c106768:	e24bd00c 	sub	sp, fp, #12
 c10676c:	e89d6800 	ldm	sp, {fp, sp, lr}
 c106770:	e12fff1e 	bx	lr
 c106774:	01d70040 	.word	0x01d70040
 c106778:	01d70088 	.word	0x01d70088
 c10677c:	01d70084 	.word	0x01d70084
 c106780:	01d7007c 	.word	0x01d7007c
 c106784:	01d70080 	.word	0x01d70080
 c106788:	01d70078 	.word	0x01d70078
 c10678c:	01d70074 	.word	0x01d70074
 c106790:	01d70070 	.word	0x01d70070

0c106794 <rtc_open>:


void rtc_open( void (*isr)(void), uint8 tick_count )
{
 c106794:	e1a0c00d 	mov	ip, sp
 c106798:	e92dd800 	push	{fp, ip, lr, pc}
 c10679c:	e24cb004 	sub	fp, ip, #4
 c1067a0:	e24dd008 	sub	sp, sp, #8
 c1067a4:	e50b0010 	str	r0, [fp, #-16]
 c1067a8:	e1a03001 	mov	r3, r1
 c1067ac:	e54b3011 	strb	r3, [fp, #-17]	; 0xffffffef
    pISR_TICK = (uint32) isr;
 c1067b0:	e59f3048 	ldr	r3, [pc, #72]	; c106800 <rtc_open+0x6c>
 c1067b4:	e51b2010 	ldr	r2, [fp, #-16]
 c1067b8:	e5832000 	str	r2, [r3]
    I_ISPC    = BIT_TICK;
 c1067bc:	e59f3040 	ldr	r3, [pc, #64]	; c106804 <rtc_open+0x70>
 c1067c0:	e3a02601 	mov	r2, #1048576	; 0x100000
 c1067c4:	e5832000 	str	r2, [r3]
    INTMSK   &= ~(BIT_TICK | BIT_GLOBAL);
 c1067c8:	e59f3038 	ldr	r3, [pc, #56]	; c106808 <rtc_open+0x74>
 c1067cc:	e59f2034 	ldr	r2, [pc, #52]	; c106808 <rtc_open+0x74>
 c1067d0:	e5922000 	ldr	r2, [r2]
 c1067d4:	e3c22641 	bic	r2, r2, #68157440	; 0x4100000
 c1067d8:	e5832000 	str	r2, [r3]
    TICNT     = (1<<7)|(tick_count);
 c1067dc:	e59f2028 	ldr	r2, [pc, #40]	; c10680c <rtc_open+0x78>
 c1067e0:	e55b3011 	ldrb	r3, [fp, #-17]	; 0xffffffef
 c1067e4:	e1e03c83 	mvn	r3, r3, lsl #25
 c1067e8:	e1e03ca3 	mvn	r3, r3, lsr #25
 c1067ec:	e20330ff 	and	r3, r3, #255	; 0xff
 c1067f0:	e5823000 	str	r3, [r2]
}
 c1067f4:	e24bd00c 	sub	sp, fp, #12
 c1067f8:	e89d6800 	ldm	sp, {fp, sp, lr}
 c1067fc:	e12fff1e 	bx	lr
 c106800:	0c7fff70 	.word	0x0c7fff70
 c106804:	01e00024 	.word	0x01e00024
 c106808:	01e0000c 	.word	0x01e0000c
 c10680c:	01d7008c 	.word	0x01d7008c

0c106810 <rtc_close>:

void rtc_close( void )
{
 c106810:	e1a0c00d 	mov	ip, sp
 c106814:	e92dd800 	push	{fp, ip, lr, pc}
 c106818:	e24cb004 	sub	fp, ip, #4
    TICNT     = 0x00;
 c10681c:	e59f3030 	ldr	r3, [pc, #48]	; c106854 <rtc_close+0x44>
 c106820:	e3a02000 	mov	r2, #0
 c106824:	e5832000 	str	r2, [r3]
    INTMSK   |= BIT_TICK;
 c106828:	e59f3028 	ldr	r3, [pc, #40]	; c106858 <rtc_close+0x48>
 c10682c:	e59f2024 	ldr	r2, [pc, #36]	; c106858 <rtc_close+0x48>
 c106830:	e5922000 	ldr	r2, [r2]
 c106834:	e3822601 	orr	r2, r2, #1048576	; 0x100000
 c106838:	e5832000 	str	r2, [r3]
    pISR_TICK = (uint32) isr_TICK_dummy;
 c10683c:	e59f3018 	ldr	r3, [pc, #24]	; c10685c <rtc_close+0x4c>
 c106840:	e59f2018 	ldr	r2, [pc, #24]	; c106860 <rtc_close+0x50>
 c106844:	e5832000 	str	r2, [r3]

}
 c106848:	e24bd00c 	sub	sp, fp, #12
 c10684c:	e89d6800 	ldm	sp, {fp, sp, lr}
 c106850:	e12fff1e 	bx	lr
 c106854:	01d7008c 	.word	0x01d7008c
 c106858:	01e0000c 	.word	0x01e0000c
 c10685c:	0c7fff70 	.word	0x0c7fff70
 c106860:	0c10724c 	.word	0x0c10724c

0c106864 <sys_init>:
void isr_TS_dummy( void )		 __attribute__ ((interrupt ("IRQ")));
void isr_KEYPAD_dummy( void )	 __attribute__ ((interrupt ("IRQ")));
void isr_USB_dummy( void )       __attribute__ ((interrupt ("IRQ")));

void sys_init( void )
{
 c106864:	e1a0c00d 	mov	ip, sp
 c106868:	e92dd800 	push	{fp, ip, lr, pc}
 c10686c:	e24cb004 	sub	fp, ip, #4
 c106870:	e24dd008 	sub	sp, sp, #8
    uint8 mode;

    WTCON  = 0;             // deshabilita el watchdog
 c106874:	e59f30fc 	ldr	r3, [pc, #252]	; c106978 <sys_init+0x114>
 c106878:	e3a02000 	mov	r2, #0
 c10687c:	e5832000 	str	r2, [r3]
    INTMSK = ~0;            // enmascara todas las interrupciones
 c106880:	e59f30f4 	ldr	r3, [pc, #244]	; c10697c <sys_init+0x118>
 c106884:	e3e02000 	mvn	r2, #0
 c106888:	e5832000 	str	r2, [r3]
    
    GET_OPMODE( &mode );    // lee el modo de ejecución del procesador
 c10688c:	e10f0000 	mrs	r0, CPSR
 c106890:	e200001f 	and	r0, r0, #31
 c106894:	e54b000d 	strb	r0, [fp, #-13]
    if( mode != SVCMODE )
 c106898:	e55b300d 	ldrb	r3, [fp, #-13]
 c10689c:	e3530013 	cmp	r3, #19
 c1068a0:	0a000000 	beq	c1068a8 <sys_init+0x44>
        sys_recovery();     // si no es SVC (por una reejecución de la aplicación tras una excepción sin reset HW previo) recupera el modo SVC y restaura las pilas del sistema
 c1068a4:	eb0002bf 	bl	c1073a8 <sys_recovery>

    // Configuracion del gestor de reloj
    LOCKTIME = 0xFFF;            // estabilizacion del PLL = 512 us
 c1068a8:	e59f30d0 	ldr	r3, [pc, #208]	; c106980 <sys_init+0x11c>
 c1068ac:	e59f20d0 	ldr	r2, [pc, #208]	; c106984 <sys_init+0x120>
 c1068b0:	e5832000 	str	r2, [r3]
    PLLCON   = 0x38021;         // MCLK = 64MHz
 c1068b4:	e3a03776 	mov	r3, #30932992	; 0x1d80000
 c1068b8:	e59f20c8 	ldr	r2, [pc, #200]	; c106988 <sys_init+0x124>
 c1068bc:	e5832000 	str	r2, [r3]
    CLKSLOW  = 0x8;        	   // MCLK_SLOW = 500 KHz
 c1068c0:	e59f30c4 	ldr	r3, [pc, #196]	; c10698c <sys_init+0x128>
 c1068c4:	e3a02008 	mov	r2, #8
 c1068c8:	e5832000 	str	r2, [r3]
    CLKCON   = 0x7FF8;        // modo NORMAL y reloj distribuido a todos los controladores
 c1068cc:	e59f30bc 	ldr	r3, [pc, #188]	; c106990 <sys_init+0x12c>
 c1068d0:	e59f20bc 	ldr	r2, [pc, #188]	; c106994 <sys_init+0x130>
 c1068d4:	e5832000 	str	r2, [r3]

    // Configuracion del arbitro de bus
    SBUSCON = 0x8000001B;          // prioridad fija por defecto LCD > ZDMA > BDMA > IRQ
 c1068d8:	e3a03771 	mov	r3, #29622272	; 0x1c40000
 c1068dc:	e3a0216e 	mov	r2, #-2147483621	; 0x8000001b
 c1068e0:	e5832000 	str	r2, [r3]
    
    // Configuracion de cache
    SYSCFG = 0x0;         // deshabilitada
 c1068e4:	e3a03507 	mov	r3, #29360128	; 0x1c00000
 c1068e8:	e3a02000 	mov	r2, #0
 c1068ec:	e5832000 	str	r2, [r3]

    // Configuacion del controlador de interrupciones
    I_PMST = 0x1F1B;          // prioridades fijas por defecto
 c1068f0:	e59f30a0 	ldr	r3, [pc, #160]	; c106998 <sys_init+0x134>
 c1068f4:	e59f20a0 	ldr	r2, [pc, #160]	; c10699c <sys_init+0x138>
 c1068f8:	e5832000 	str	r2, [r3]
    I_PSLV = 0x1B1B1B1B;
 c1068fc:	e59f309c 	ldr	r3, [pc, #156]	; c1069a0 <sys_init+0x13c>
 c106900:	e59f209c 	ldr	r2, [pc, #156]	; c1069a4 <sys_init+0x140>
 c106904:	e5832000 	str	r2, [r3]
    INTMOD = 0x0;           // todas las interrupciones en modo IRQ
 c106908:	e59f3098 	ldr	r3, [pc, #152]	; c1069a8 <sys_init+0x144>
 c10690c:	e3a02000 	mov	r2, #0
 c106910:	e5832000 	str	r2, [r3]
    install_dummy_isr();    // instala rutinas de tratamiento por defecto para todas las interrupciones
 c106914:	eb000088 	bl	c106b3c <install_dummy_isr>
    EXTINTPND = 0x01D20054;       // borra las interrupciones externas pendientes por linea EINT7..4
 c106918:	e59f308c 	ldr	r3, [pc, #140]	; c1069ac <sys_init+0x148>
 c10691c:	e59f2088 	ldr	r2, [pc, #136]	; c1069ac <sys_init+0x148>
 c106920:	e5832000 	str	r2, [r3]
    I_ISPC = 0x01e00024;          // borra todas las interrupciones pendientes
 c106924:	e59f3084 	ldr	r3, [pc, #132]	; c1069b0 <sys_init+0x14c>
 c106928:	e59f2080 	ldr	r2, [pc, #128]	; c1069b0 <sys_init+0x14c>
 c10692c:	e5832000 	str	r2, [r3]
    INTCON = 0x01;          // IRQ vectorizadas, linea IRQ activada, linea FIQ desactivada
 c106930:	e3a0361e 	mov	r3, #31457280	; 0x1e00000
 c106934:	e3a02001 	mov	r2, #1
 c106938:	e5832000 	str	r2, [r3]
    SET_IRQFLAG( 0 );       // Habilita IRQ en el procesador
 c10693c:	e10f0000 	mrs	r0, CPSR
 c106940:	e3c00080 	bic	r0, r0, #128	; 0x80
 c106944:	e3800000 	orr	r0, r0, #0
 c106948:	e121f000 	msr	CPSR_c, r0
    SET_FIQFLAG( 1 );       // Deshabilita FIQ en el procesador
 c10694c:	e10f0000 	mrs	r0, CPSR
 c106950:	e3c00040 	bic	r0, r0, #64	; 0x40
 c106954:	e3800040 	orr	r0, r0, #64	; 0x40
 c106958:	e121f000 	msr	CPSR_c, r0

    // Configuracion de puertos
    port_init();
 c10695c:	eb000014 	bl	c1069b4 <port_init>

    // Configuracion de dispositivos
    segs_init();
 c106960:	eb000997 	bl	c108fc4 <segs_init>
    uart0_init();
 c106964:	eb00079a 	bl	c1087d4 <uart0_init>

    show_sys_info();
 c106968:	eb000279 	bl	c107354 <show_sys_info>
}
 c10696c:	e24bd00c 	sub	sp, fp, #12
 c106970:	e89d6800 	ldm	sp, {fp, sp, lr}
 c106974:	e12fff1e 	bx	lr
 c106978:	01d30000 	.word	0x01d30000
 c10697c:	01e0000c 	.word	0x01e0000c
 c106980:	01d8000c 	.word	0x01d8000c
 c106984:	00000fff 	.word	0x00000fff
 c106988:	00038021 	.word	0x00038021
 c10698c:	01d80008 	.word	0x01d80008
 c106990:	01d80004 	.word	0x01d80004
 c106994:	00007ff8 	.word	0x00007ff8
 c106998:	01e00014 	.word	0x01e00014
 c10699c:	00001f1b 	.word	0x00001f1b
 c1069a0:	01e00010 	.word	0x01e00010
 c1069a4:	1b1b1b1b 	.word	0x1b1b1b1b
 c1069a8:	01e00008 	.word	0x01e00008
 c1069ac:	01d20054 	.word	0x01d20054
 c1069b0:	01e00024 	.word	0x01e00024

0c1069b4 <port_init>:

static inline void port_init( void )
{
 c1069b4:	e1a0c00d 	mov	ip, sp
 c1069b8:	e92dd800 	push	{fp, ip, lr, pc}
 c1069bc:	e24cb004 	sub	fp, ip, #4
    PDATA = ~0;
 c1069c0:	e59f3100 	ldr	r3, [pc, #256]	; c106ac8 <port_init+0x114>
 c1069c4:	e3e02000 	mvn	r2, #0
 c1069c8:	e5832000 	str	r2, [r3]
    PCONA = 0xFE;
 c1069cc:	e59f30f8 	ldr	r3, [pc, #248]	; c106acc <port_init+0x118>
 c1069d0:	e3a020fe 	mov	r2, #254	; 0xfe
 c1069d4:	e5832000 	str	r2, [r3]

    PDATB = ~0;
 c1069d8:	e59f30f0 	ldr	r3, [pc, #240]	; c106ad0 <port_init+0x11c>
 c1069dc:	e3e02000 	mvn	r2, #0
 c1069e0:	e5832000 	str	r2, [r3]
    PCONB = 0x14F;
 c1069e4:	e59f30e8 	ldr	r3, [pc, #232]	; c106ad4 <port_init+0x120>
 c1069e8:	e59f20e8 	ldr	r2, [pc, #232]	; c106ad8 <port_init+0x124>
 c1069ec:	e5832000 	str	r2, [r3]

    PDATC = ~0;
 c1069f0:	e59f30e4 	ldr	r3, [pc, #228]	; c106adc <port_init+0x128>
 c1069f4:	e3e02000 	mvn	r2, #0
 c1069f8:	e5832000 	str	r2, [r3]
    PCONC = 0x5FF555FF;
 c1069fc:	e59f30dc 	ldr	r3, [pc, #220]	; c106ae0 <port_init+0x12c>
 c106a00:	e59f20dc 	ldr	r2, [pc, #220]	; c106ae4 <port_init+0x130>
 c106a04:	e5832000 	str	r2, [r3]
    PUPC  = 0x94FB;
 c106a08:	e59f30d8 	ldr	r3, [pc, #216]	; c106ae8 <port_init+0x134>
 c106a0c:	e59f20d8 	ldr	r2, [pc, #216]	; c106aec <port_init+0x138>
 c106a10:	e5832000 	str	r2, [r3]

    PDATD = ~0;
 c106a14:	e59f30d4 	ldr	r3, [pc, #212]	; c106af0 <port_init+0x13c>
 c106a18:	e3e02000 	mvn	r2, #0
 c106a1c:	e5832000 	str	r2, [r3]
    PCOND = 0xAAAA;
 c106a20:	e59f30cc 	ldr	r3, [pc, #204]	; c106af4 <port_init+0x140>
 c106a24:	e59f20cc 	ldr	r2, [pc, #204]	; c106af8 <port_init+0x144>
 c106a28:	e5832000 	str	r2, [r3]
    PUPD  = 0xFF;
 c106a2c:	e59f30c8 	ldr	r3, [pc, #200]	; c106afc <port_init+0x148>
 c106a30:	e3a020ff 	mov	r2, #255	; 0xff
 c106a34:	e5832000 	str	r2, [r3]
    
    PDATE = ~0;
 c106a38:	e59f30c0 	ldr	r3, [pc, #192]	; c106b00 <port_init+0x14c>
 c106a3c:	e3e02000 	mvn	r2, #0
 c106a40:	e5832000 	str	r2, [r3]
    PCONE = 0x255A9;
 c106a44:	e59f30b8 	ldr	r3, [pc, #184]	; c106b04 <port_init+0x150>
 c106a48:	e59f20b8 	ldr	r2, [pc, #184]	; c106b08 <port_init+0x154>
 c106a4c:	e5832000 	str	r2, [r3]
    PUPE  = 0xFB;
 c106a50:	e59f30b4 	ldr	r3, [pc, #180]	; c106b0c <port_init+0x158>
 c106a54:	e3a020fb 	mov	r2, #251	; 0xfb
 c106a58:	e5832000 	str	r2, [r3]

    PDATF = ~0;
 c106a5c:	e59f30ac 	ldr	r3, [pc, #172]	; c106b10 <port_init+0x15c>
 c106a60:	e3e02000 	mvn	r2, #0
 c106a64:	e5832000 	str	r2, [r3]
    PCONF = 0x251A;
 c106a68:	e59f30a4 	ldr	r3, [pc, #164]	; c106b14 <port_init+0x160>
 c106a6c:	e59f20a4 	ldr	r2, [pc, #164]	; c106b18 <port_init+0x164>
 c106a70:	e5832000 	str	r2, [r3]
    PUPF  = 0x74;
 c106a74:	e59f30a0 	ldr	r3, [pc, #160]	; c106b1c <port_init+0x168>
 c106a78:	e3a02074 	mov	r2, #116	; 0x74
 c106a7c:	e5832000 	str	r2, [r3]
    
    PDATG = ~0;
 c106a80:	e59f3098 	ldr	r3, [pc, #152]	; c106b20 <port_init+0x16c>
 c106a84:	e3e02000 	mvn	r2, #0
 c106a88:	e5832000 	str	r2, [r3]
    PCONG = 0xF5FF;
 c106a8c:	e59f3090 	ldr	r3, [pc, #144]	; c106b24 <port_init+0x170>
 c106a90:	e59f2090 	ldr	r2, [pc, #144]	; c106b28 <port_init+0x174>
 c106a94:	e5832000 	str	r2, [r3]
    PUPG  = 0x30;
 c106a98:	e59f308c 	ldr	r3, [pc, #140]	; c106b2c <port_init+0x178>
 c106a9c:	e3a02030 	mov	r2, #48	; 0x30
 c106aa0:	e5832000 	str	r2, [r3]

    SPUCR = 0x7;
 c106aa4:	e59f3084 	ldr	r3, [pc, #132]	; c106b30 <port_init+0x17c>
 c106aa8:	e3a02007 	mov	r2, #7
 c106aac:	e5832000 	str	r2, [r3]
    
    EXTINT = 0x22000220;
 c106ab0:	e59f307c 	ldr	r3, [pc, #124]	; c106b34 <port_init+0x180>
 c106ab4:	e59f207c 	ldr	r2, [pc, #124]	; c106b38 <port_init+0x184>
 c106ab8:	e5832000 	str	r2, [r3]
}
 c106abc:	e24bd00c 	sub	sp, fp, #12
 c106ac0:	e89d6800 	ldm	sp, {fp, sp, lr}
 c106ac4:	e12fff1e 	bx	lr
 c106ac8:	01d20004 	.word	0x01d20004
 c106acc:	01d20000 	.word	0x01d20000
 c106ad0:	01d2000c 	.word	0x01d2000c
 c106ad4:	01d20008 	.word	0x01d20008
 c106ad8:	0000014f 	.word	0x0000014f
 c106adc:	01d20014 	.word	0x01d20014
 c106ae0:	01d20010 	.word	0x01d20010
 c106ae4:	5ff555ff 	.word	0x5ff555ff
 c106ae8:	01d20018 	.word	0x01d20018
 c106aec:	000094fb 	.word	0x000094fb
 c106af0:	01d20020 	.word	0x01d20020
 c106af4:	01d2001c 	.word	0x01d2001c
 c106af8:	0000aaaa 	.word	0x0000aaaa
 c106afc:	01d20024 	.word	0x01d20024
 c106b00:	01d2002c 	.word	0x01d2002c
 c106b04:	01d20028 	.word	0x01d20028
 c106b08:	000255a9 	.word	0x000255a9
 c106b0c:	01d20030 	.word	0x01d20030
 c106b10:	01d20038 	.word	0x01d20038
 c106b14:	01d20034 	.word	0x01d20034
 c106b18:	0000251a 	.word	0x0000251a
 c106b1c:	01d2003c 	.word	0x01d2003c
 c106b20:	01d20044 	.word	0x01d20044
 c106b24:	01d20040 	.word	0x01d20040
 c106b28:	0000f5ff 	.word	0x0000f5ff
 c106b2c:	01d20048 	.word	0x01d20048
 c106b30:	01d2004c 	.word	0x01d2004c
 c106b34:	01d20050 	.word	0x01d20050
 c106b38:	22000220 	.word	0x22000220

0c106b3c <install_dummy_isr>:

static inline void install_dummy_isr( void )
{ 
 c106b3c:	e1a0c00d 	mov	ip, sp
 c106b40:	e92dd800 	push	{fp, ip, lr, pc}
 c106b44:	e24cb004 	sub	fp, ip, #4
    pISR_TICK = (uint32) isr_TICK_dummy;
 c106b48:	e59f3184 	ldr	r3, [pc, #388]	; c106cd4 <install_dummy_isr+0x198>
 c106b4c:	e59f2184 	ldr	r2, [pc, #388]	; c106cd8 <install_dummy_isr+0x19c>
 c106b50:	e5832000 	str	r2, [r3]
    pISR_SWI = (uint32) isr_SWI_dummy;
 c106b54:	e59f3180 	ldr	r3, [pc, #384]	; c106cdc <install_dummy_isr+0x1a0>
 c106b58:	e59f2180 	ldr	r2, [pc, #384]	; c106ce0 <install_dummy_isr+0x1a4>
 c106b5c:	e5832000 	str	r2, [r3]
    pISR_UNDEF = (uint32) isr_UNDEF_dummy;
 c106b60:	e59f317c 	ldr	r3, [pc, #380]	; c106ce4 <install_dummy_isr+0x1a8>
 c106b64:	e59f217c 	ldr	r2, [pc, #380]	; c106ce8 <install_dummy_isr+0x1ac>
 c106b68:	e5832000 	str	r2, [r3]
    pISR_IRQ = (uint32) isr_IRQ_dummy;
 c106b6c:	e59f3178 	ldr	r3, [pc, #376]	; c106cec <install_dummy_isr+0x1b0>
 c106b70:	e59f2178 	ldr	r2, [pc, #376]	; c106cf0 <install_dummy_isr+0x1b4>
 c106b74:	e5832000 	str	r2, [r3]
    pISR_FIQ = (uint32) isr_FIQ_dummy;
 c106b78:	e59f3174 	ldr	r3, [pc, #372]	; c106cf4 <install_dummy_isr+0x1b8>
 c106b7c:	e59f2174 	ldr	r2, [pc, #372]	; c106cf8 <install_dummy_isr+0x1bc>
 c106b80:	e5832000 	str	r2, [r3]
    pISR_PABORT = (uint32) isr_PABORT_dummy;
 c106b84:	e59f3170 	ldr	r3, [pc, #368]	; c106cfc <install_dummy_isr+0x1c0>
 c106b88:	e59f2170 	ldr	r2, [pc, #368]	; c106d00 <install_dummy_isr+0x1c4>
 c106b8c:	e5832000 	str	r2, [r3]
    pISR_DABORT = (uint32) isr_DABORT_dummy;
 c106b90:	e59f316c 	ldr	r3, [pc, #364]	; c106d04 <install_dummy_isr+0x1c8>
 c106b94:	e59f216c 	ldr	r2, [pc, #364]	; c106d08 <install_dummy_isr+0x1cc>
 c106b98:	e5832000 	str	r2, [r3]
    pISR_ADC = (uint32) isr_ADC_dummy;
 c106b9c:	e59f3168 	ldr	r3, [pc, #360]	; c106d0c <install_dummy_isr+0x1d0>
 c106ba0:	e59f2168 	ldr	r2, [pc, #360]	; c106d10 <install_dummy_isr+0x1d4>
 c106ba4:	e5832000 	str	r2, [r3]
    pISR_RTC = (uint32) isr_RTC_dummy;
 c106ba8:	e59f3164 	ldr	r3, [pc, #356]	; c106d14 <install_dummy_isr+0x1d8>
 c106bac:	e59f2164 	ldr	r2, [pc, #356]	; c106d18 <install_dummy_isr+0x1dc>
 c106bb0:	e5832000 	str	r2, [r3]
    pISR_UTXD1 = (uint32) isr_UTXD1_dummy;
 c106bb4:	e59f3160 	ldr	r3, [pc, #352]	; c106d1c <install_dummy_isr+0x1e0>
 c106bb8:	e59f2160 	ldr	r2, [pc, #352]	; c106d20 <install_dummy_isr+0x1e4>
 c106bbc:	e5832000 	str	r2, [r3]
    pISR_UTXD0 = (uint32) isr_UTXD0_dummy;
 c106bc0:	e59f315c 	ldr	r3, [pc, #348]	; c106d24 <install_dummy_isr+0x1e8>
 c106bc4:	e59f215c 	ldr	r2, [pc, #348]	; c106d28 <install_dummy_isr+0x1ec>
 c106bc8:	e5832000 	str	r2, [r3]
    pISR_SIO = (uint32) isr_SIO_dummy;
 c106bcc:	e59f3158 	ldr	r3, [pc, #344]	; c106d2c <install_dummy_isr+0x1f0>
 c106bd0:	e59f2158 	ldr	r2, [pc, #344]	; c106d30 <install_dummy_isr+0x1f4>
 c106bd4:	e5832000 	str	r2, [r3]
    pISR_IIC = (uint32) isr_IIC_dummy;
 c106bd8:	e59f3154 	ldr	r3, [pc, #340]	; c106d34 <install_dummy_isr+0x1f8>
 c106bdc:	e59f2154 	ldr	r2, [pc, #340]	; c106d38 <install_dummy_isr+0x1fc>
 c106be0:	e5832000 	str	r2, [r3]
    pISR_URXD1 = (uint32) isr_URXD1_dummy;
 c106be4:	e59f3150 	ldr	r3, [pc, #336]	; c106d3c <install_dummy_isr+0x200>
 c106be8:	e59f2150 	ldr	r2, [pc, #336]	; c106d40 <install_dummy_isr+0x204>
 c106bec:	e5832000 	str	r2, [r3]
    pISR_URXD0 = (uint32) isr_URXD0_dummy;
 c106bf0:	e59f314c 	ldr	r3, [pc, #332]	; c106d44 <install_dummy_isr+0x208>
 c106bf4:	e59f214c 	ldr	r2, [pc, #332]	; c106d48 <install_dummy_isr+0x20c>
 c106bf8:	e5832000 	str	r2, [r3]
    pISR_TIMER5 = (uint32) isr_TIMER5_dummy;
 c106bfc:	e59f3148 	ldr	r3, [pc, #328]	; c106d4c <install_dummy_isr+0x210>
 c106c00:	e59f2148 	ldr	r2, [pc, #328]	; c106d50 <install_dummy_isr+0x214>
 c106c04:	e5832000 	str	r2, [r3]
    pISR_TIMER4 = (uint32) isr_TIMER4_dummy;
 c106c08:	e59f3144 	ldr	r3, [pc, #324]	; c106d54 <install_dummy_isr+0x218>
 c106c0c:	e59f2144 	ldr	r2, [pc, #324]	; c106d58 <install_dummy_isr+0x21c>
 c106c10:	e5832000 	str	r2, [r3]
    pISR_TIMER3 = (uint32) isr_TIMER3_dummy;
 c106c14:	e59f3140 	ldr	r3, [pc, #320]	; c106d5c <install_dummy_isr+0x220>
 c106c18:	e59f2140 	ldr	r2, [pc, #320]	; c106d60 <install_dummy_isr+0x224>
 c106c1c:	e5832000 	str	r2, [r3]
    pISR_TIMER2 = (uint32) isr_TIMER2_dummy;
 c106c20:	e59f313c 	ldr	r3, [pc, #316]	; c106d64 <install_dummy_isr+0x228>
 c106c24:	e59f213c 	ldr	r2, [pc, #316]	; c106d68 <install_dummy_isr+0x22c>
 c106c28:	e5832000 	str	r2, [r3]
    pISR_TIMER1 = (uint32) isr_TIMER1_dummy;
 c106c2c:	e59f3138 	ldr	r3, [pc, #312]	; c106d6c <install_dummy_isr+0x230>
 c106c30:	e59f2138 	ldr	r2, [pc, #312]	; c106d70 <install_dummy_isr+0x234>
 c106c34:	e5832000 	str	r2, [r3]
    pISR_TIMER0 = (uint32) isr_TIMER0_dummy;
 c106c38:	e59f3134 	ldr	r3, [pc, #308]	; c106d74 <install_dummy_isr+0x238>
 c106c3c:	e59f2134 	ldr	r2, [pc, #308]	; c106d78 <install_dummy_isr+0x23c>
 c106c40:	e5832000 	str	r2, [r3]
    pISR_UERR01 = (uint32) isr_UERR01_dummy;
 c106c44:	e59f3130 	ldr	r3, [pc, #304]	; c106d7c <install_dummy_isr+0x240>
 c106c48:	e59f2130 	ldr	r2, [pc, #304]	; c106d80 <install_dummy_isr+0x244>
 c106c4c:	e5832000 	str	r2, [r3]
    pISR_WDT = (uint32) isr_WDT_dummy;
 c106c50:	e59f312c 	ldr	r3, [pc, #300]	; c106d84 <install_dummy_isr+0x248>
 c106c54:	e59f212c 	ldr	r2, [pc, #300]	; c106d88 <install_dummy_isr+0x24c>
 c106c58:	e5832000 	str	r2, [r3]
    pISR_BDMA1 = (uint32) isr_BDMA1_dummy;
 c106c5c:	e59f3128 	ldr	r3, [pc, #296]	; c106d8c <install_dummy_isr+0x250>
 c106c60:	e59f2128 	ldr	r2, [pc, #296]	; c106d90 <install_dummy_isr+0x254>
 c106c64:	e5832000 	str	r2, [r3]
    pISR_BDMA0 = (uint32) isr_BDMA0_dummy;
 c106c68:	e59f3124 	ldr	r3, [pc, #292]	; c106d94 <install_dummy_isr+0x258>
 c106c6c:	e59f2124 	ldr	r2, [pc, #292]	; c106d98 <install_dummy_isr+0x25c>
 c106c70:	e5832000 	str	r2, [r3]
    pISR_ZDMA1 = (uint32) isr_ZDMA1_dummy;
 c106c74:	e59f3120 	ldr	r3, [pc, #288]	; c106d9c <install_dummy_isr+0x260>
 c106c78:	e59f2120 	ldr	r2, [pc, #288]	; c106da0 <install_dummy_isr+0x264>
 c106c7c:	e5832000 	str	r2, [r3]
    pISR_ZDMA0 = (uint32) isr_ZDMA0_dummy;
 c106c80:	e59f311c 	ldr	r3, [pc, #284]	; c106da4 <install_dummy_isr+0x268>
 c106c84:	e59f211c 	ldr	r2, [pc, #284]	; c106da8 <install_dummy_isr+0x26c>
 c106c88:	e5832000 	str	r2, [r3]
    pISR_PB = (uint32) isr_PB_dummy;
 c106c8c:	e59f3118 	ldr	r3, [pc, #280]	; c106dac <install_dummy_isr+0x270>
 c106c90:	e59f2118 	ldr	r2, [pc, #280]	; c106db0 <install_dummy_isr+0x274>
 c106c94:	e5832000 	str	r2, [r3]
    pISR_ETHERNET = (uint32) isr_ETHERNET_dummy;
 c106c98:	e59f3114 	ldr	r3, [pc, #276]	; c106db4 <install_dummy_isr+0x278>
 c106c9c:	e59f2114 	ldr	r2, [pc, #276]	; c106db8 <install_dummy_isr+0x27c>
 c106ca0:	e5832000 	str	r2, [r3]
    pISR_TS = (uint32) isr_TS_dummy;
 c106ca4:	e59f3110 	ldr	r3, [pc, #272]	; c106dbc <install_dummy_isr+0x280>
 c106ca8:	e59f2110 	ldr	r2, [pc, #272]	; c106dc0 <install_dummy_isr+0x284>
 c106cac:	e5832000 	str	r2, [r3]
    pISR_KEYPAD = (uint32) isr_KEYPAD_dummy;
 c106cb0:	e59f310c 	ldr	r3, [pc, #268]	; c106dc4 <install_dummy_isr+0x288>
 c106cb4:	e59f210c 	ldr	r2, [pc, #268]	; c106dc8 <install_dummy_isr+0x28c>
 c106cb8:	e5832000 	str	r2, [r3]
    pISR_USB = (uint32) isr_USB_dummy;
 c106cbc:	e59f3108 	ldr	r3, [pc, #264]	; c106dcc <install_dummy_isr+0x290>
 c106cc0:	e59f2108 	ldr	r2, [pc, #264]	; c106dd0 <install_dummy_isr+0x294>
 c106cc4:	e5832000 	str	r2, [r3]
}        
 c106cc8:	e24bd00c 	sub	sp, fp, #12
 c106ccc:	e89d6800 	ldm	sp, {fp, sp, lr}
 c106cd0:	e12fff1e 	bx	lr
 c106cd4:	0c7fff70 	.word	0x0c7fff70
 c106cd8:	0c10724c 	.word	0x0c10724c
 c106cdc:	0c7fff08 	.word	0x0c7fff08
 c106ce0:	0c106dd4 	.word	0x0c106dd4
 c106ce4:	0c7fff04 	.word	0x0c7fff04
 c106ce8:	0c106e00 	.word	0x0c106e00
 c106cec:	0c7fff18 	.word	0x0c7fff18
 c106cf0:	0c106e2c 	.word	0x0c106e2c
 c106cf4:	0c7fff1c 	.word	0x0c7fff1c
 c106cf8:	0c106e58 	.word	0x0c106e58
 c106cfc:	0c7fff0c 	.word	0x0c7fff0c
 c106d00:	0c106e84 	.word	0x0c106e84
 c106d04:	0c7fff10 	.word	0x0c7fff10
 c106d08:	0c106eb0 	.word	0x0c106eb0
 c106d0c:	0c7fff20 	.word	0x0c7fff20
 c106d10:	0c106edc 	.word	0x0c106edc
 c106d14:	0c7fff24 	.word	0x0c7fff24
 c106d18:	0c106f08 	.word	0x0c106f08
 c106d1c:	0c7fff28 	.word	0x0c7fff28
 c106d20:	0c106f34 	.word	0x0c106f34
 c106d24:	0c7fff2c 	.word	0x0c7fff2c
 c106d28:	0c106f60 	.word	0x0c106f60
 c106d2c:	0c7fff30 	.word	0x0c7fff30
 c106d30:	0c106f8c 	.word	0x0c106f8c
 c106d34:	0c7fff34 	.word	0x0c7fff34
 c106d38:	0c106fb8 	.word	0x0c106fb8
 c106d3c:	0c7fff38 	.word	0x0c7fff38
 c106d40:	0c106fe4 	.word	0x0c106fe4
 c106d44:	0c7fff3c 	.word	0x0c7fff3c
 c106d48:	0c107010 	.word	0x0c107010
 c106d4c:	0c7fff40 	.word	0x0c7fff40
 c106d50:	0c10703c 	.word	0x0c10703c
 c106d54:	0c7fff44 	.word	0x0c7fff44
 c106d58:	0c107068 	.word	0x0c107068
 c106d5c:	0c7fff48 	.word	0x0c7fff48
 c106d60:	0c107094 	.word	0x0c107094
 c106d64:	0c7fff4c 	.word	0x0c7fff4c
 c106d68:	0c1070c0 	.word	0x0c1070c0
 c106d6c:	0c7fff50 	.word	0x0c7fff50
 c106d70:	0c1070ec 	.word	0x0c1070ec
 c106d74:	0c7fff54 	.word	0x0c7fff54
 c106d78:	0c107118 	.word	0x0c107118
 c106d7c:	0c7fff58 	.word	0x0c7fff58
 c106d80:	0c107144 	.word	0x0c107144
 c106d84:	0c7fff5c 	.word	0x0c7fff5c
 c106d88:	0c107170 	.word	0x0c107170
 c106d8c:	0c7fff60 	.word	0x0c7fff60
 c106d90:	0c10719c 	.word	0x0c10719c
 c106d94:	0c7fff64 	.word	0x0c7fff64
 c106d98:	0c1071c8 	.word	0x0c1071c8
 c106d9c:	0c7fff68 	.word	0x0c7fff68
 c106da0:	0c1071f4 	.word	0x0c1071f4
 c106da4:	0c7fff6c 	.word	0x0c7fff6c
 c106da8:	0c107220 	.word	0x0c107220
 c106dac:	0c7fff74 	.word	0x0c7fff74
 c106db0:	0c107278 	.word	0x0c107278
 c106db4:	0c7fff78 	.word	0x0c7fff78
 c106db8:	0c1072a4 	.word	0x0c1072a4
 c106dbc:	0c7fff7c 	.word	0x0c7fff7c
 c106dc0:	0c1072d0 	.word	0x0c1072d0
 c106dc4:	0c7fff80 	.word	0x0c7fff80
 c106dc8:	0c1072fc 	.word	0x0c1072fc
 c106dcc:	0c7fff84 	.word	0x0c7fff84
 c106dd0:	0c107328 	.word	0x0c107328

0c106dd4 <isr_SWI_dummy>:

void isr_SWI_dummy( void )
{
 c106dd4:	e52dc004 	push	{ip}		; (str ip, [sp, #-4]!)
 c106dd8:	e1a0c00d 	mov	ip, sp
 c106ddc:	e92dd80f 	push	{r0, r1, r2, r3, fp, ip, lr, pc}
 c106de0:	e24cb004 	sub	fp, ip, #4
	uart0_puts( "\n\n*** ERROR FATAL: ejecutando isr_SWI_dummy" );
 c106de4:	e59f0010 	ldr	r0, [pc, #16]	; c106dfc <isr_SWI_dummy+0x28>
 c106de8:	eb0006b8 	bl	c1088d0 <uart0_puts>
	SEGS = 0x75;
 c106dec:	e3a03785 	mov	r3, #34865152	; 0x2140000
 c106df0:	e3a02075 	mov	r2, #117	; 0x75
 c106df4:	e5c32000 	strb	r2, [r3]
	while( 1 );
 c106df8:	eafffffe 	b	c106df8 <isr_SWI_dummy+0x24>
 c106dfc:	0c10a348 	.word	0x0c10a348

0c106e00 <isr_UNDEF_dummy>:

}

void isr_UNDEF_dummy( void )
{
 c106e00:	e52dc004 	push	{ip}		; (str ip, [sp, #-4]!)
 c106e04:	e1a0c00d 	mov	ip, sp
 c106e08:	e92dd80f 	push	{r0, r1, r2, r3, fp, ip, lr, pc}
 c106e0c:	e24cb004 	sub	fp, ip, #4
    uart0_puts( "\n\n*** ERROR FATAL: ejecutando isr_UNDEF_dummy" );
 c106e10:	e59f0010 	ldr	r0, [pc, #16]	; c106e28 <isr_UNDEF_dummy+0x28>
 c106e14:	eb0006ad 	bl	c1088d0 <uart0_puts>
	SEGS = 0x75;
 c106e18:	e3a03785 	mov	r3, #34865152	; 0x2140000
 c106e1c:	e3a02075 	mov	r2, #117	; 0x75
 c106e20:	e5c32000 	strb	r2, [r3]
	while( 1 );
 c106e24:	eafffffe 	b	c106e24 <isr_UNDEF_dummy+0x24>
 c106e28:	0c10a374 	.word	0x0c10a374

0c106e2c <isr_IRQ_dummy>:
}

void isr_IRQ_dummy( void )
{
 c106e2c:	e52dc004 	push	{ip}		; (str ip, [sp, #-4]!)
 c106e30:	e1a0c00d 	mov	ip, sp
 c106e34:	e92dd80f 	push	{r0, r1, r2, r3, fp, ip, lr, pc}
 c106e38:	e24cb004 	sub	fp, ip, #4
    uart0_puts( "\n\n*** ERROR FATAL: ejecutando isr_IRQ_dummy" );
 c106e3c:	e59f0010 	ldr	r0, [pc, #16]	; c106e54 <isr_IRQ_dummy+0x28>
 c106e40:	eb0006a2 	bl	c1088d0 <uart0_puts>
	SEGS = 0x75;
 c106e44:	e3a03785 	mov	r3, #34865152	; 0x2140000
 c106e48:	e3a02075 	mov	r2, #117	; 0x75
 c106e4c:	e5c32000 	strb	r2, [r3]
	while( 1 );
 c106e50:	eafffffe 	b	c106e50 <isr_IRQ_dummy+0x24>
 c106e54:	0c10a3a4 	.word	0x0c10a3a4

0c106e58 <isr_FIQ_dummy>:
}

void isr_FIQ_dummy( void )
{
 c106e58:	e52dc004 	push	{ip}		; (str ip, [sp, #-4]!)
 c106e5c:	e1a0c00d 	mov	ip, sp
 c106e60:	e92dd80f 	push	{r0, r1, r2, r3, fp, ip, lr, pc}
 c106e64:	e24cb004 	sub	fp, ip, #4
    uart0_puts( "\n\n*** ERROR FATAL: ejecutando isr_FIQ_dummy" );
 c106e68:	e59f0010 	ldr	r0, [pc, #16]	; c106e80 <isr_FIQ_dummy+0x28>
 c106e6c:	eb000697 	bl	c1088d0 <uart0_puts>
	SEGS = 0x75;
 c106e70:	e3a03785 	mov	r3, #34865152	; 0x2140000
 c106e74:	e3a02075 	mov	r2, #117	; 0x75
 c106e78:	e5c32000 	strb	r2, [r3]
    while( 1 );
 c106e7c:	eafffffe 	b	c106e7c <isr_FIQ_dummy+0x24>
 c106e80:	0c10a3d0 	.word	0x0c10a3d0

0c106e84 <isr_PABORT_dummy>:
}

void isr_PABORT_dummy( void )
{
 c106e84:	e52dc004 	push	{ip}		; (str ip, [sp, #-4]!)
 c106e88:	e1a0c00d 	mov	ip, sp
 c106e8c:	e92dd80f 	push	{r0, r1, r2, r3, fp, ip, lr, pc}
 c106e90:	e24cb004 	sub	fp, ip, #4
    uart0_puts( "\n\n*** ERROR FATAL: ejecutando isr_PABORT_dummy" );
 c106e94:	e59f0010 	ldr	r0, [pc, #16]	; c106eac <isr_PABORT_dummy+0x28>
 c106e98:	eb00068c 	bl	c1088d0 <uart0_puts>
    SEGS = 0x75;
 c106e9c:	e3a03785 	mov	r3, #34865152	; 0x2140000
 c106ea0:	e3a02075 	mov	r2, #117	; 0x75
 c106ea4:	e5c32000 	strb	r2, [r3]
    while( 1 );
 c106ea8:	eafffffe 	b	c106ea8 <isr_PABORT_dummy+0x24>
 c106eac:	0c10a3fc 	.word	0x0c10a3fc

0c106eb0 <isr_DABORT_dummy>:
}

void isr_DABORT_dummy( void )
{
 c106eb0:	e52dc004 	push	{ip}		; (str ip, [sp, #-4]!)
 c106eb4:	e1a0c00d 	mov	ip, sp
 c106eb8:	e92dd80f 	push	{r0, r1, r2, r3, fp, ip, lr, pc}
 c106ebc:	e24cb004 	sub	fp, ip, #4
    uart0_puts( "\n\n*** ERROR FATAL: ejecutando isr_DABORT_dummy" );
 c106ec0:	e59f0010 	ldr	r0, [pc, #16]	; c106ed8 <isr_DABORT_dummy+0x28>
 c106ec4:	eb000681 	bl	c1088d0 <uart0_puts>
    SEGS = 0x75;
 c106ec8:	e3a03785 	mov	r3, #34865152	; 0x2140000
 c106ecc:	e3a02075 	mov	r2, #117	; 0x75
 c106ed0:	e5c32000 	strb	r2, [r3]
    while( 1 );
 c106ed4:	eafffffe 	b	c106ed4 <isr_DABORT_dummy+0x24>
 c106ed8:	0c10a42c 	.word	0x0c10a42c

0c106edc <isr_ADC_dummy>:
}

void isr_ADC_dummy( void )
{
 c106edc:	e52dc004 	push	{ip}		; (str ip, [sp, #-4]!)
 c106ee0:	e1a0c00d 	mov	ip, sp
 c106ee4:	e92dd80f 	push	{r0, r1, r2, r3, fp, ip, lr, pc}
 c106ee8:	e24cb004 	sub	fp, ip, #4
    uart0_puts( "\n\n*** ERROR FATAL: ejecutando isr_ADC_dummy" );
 c106eec:	e59f0010 	ldr	r0, [pc, #16]	; c106f04 <isr_ADC_dummy+0x28>
 c106ef0:	eb000676 	bl	c1088d0 <uart0_puts>
    SEGS = 0x75;
 c106ef4:	e3a03785 	mov	r3, #34865152	; 0x2140000
 c106ef8:	e3a02075 	mov	r2, #117	; 0x75
 c106efc:	e5c32000 	strb	r2, [r3]
    while( 1 );
 c106f00:	eafffffe 	b	c106f00 <isr_ADC_dummy+0x24>
 c106f04:	0c10a45c 	.word	0x0c10a45c

0c106f08 <isr_RTC_dummy>:
}

void isr_RTC_dummy( void )
{
 c106f08:	e52dc004 	push	{ip}		; (str ip, [sp, #-4]!)
 c106f0c:	e1a0c00d 	mov	ip, sp
 c106f10:	e92dd80f 	push	{r0, r1, r2, r3, fp, ip, lr, pc}
 c106f14:	e24cb004 	sub	fp, ip, #4
    uart0_puts( "\n\n*** ERROR FATAL: ejecutando isr_RTC_dummy" );
 c106f18:	e59f0010 	ldr	r0, [pc, #16]	; c106f30 <isr_RTC_dummy+0x28>
 c106f1c:	eb00066b 	bl	c1088d0 <uart0_puts>
    SEGS = 0x75;
 c106f20:	e3a03785 	mov	r3, #34865152	; 0x2140000
 c106f24:	e3a02075 	mov	r2, #117	; 0x75
 c106f28:	e5c32000 	strb	r2, [r3]
    while( 1 );
 c106f2c:	eafffffe 	b	c106f2c <isr_RTC_dummy+0x24>
 c106f30:	0c10a488 	.word	0x0c10a488

0c106f34 <isr_UTXD1_dummy>:
}

void isr_UTXD1_dummy( void )
{
 c106f34:	e52dc004 	push	{ip}		; (str ip, [sp, #-4]!)
 c106f38:	e1a0c00d 	mov	ip, sp
 c106f3c:	e92dd80f 	push	{r0, r1, r2, r3, fp, ip, lr, pc}
 c106f40:	e24cb004 	sub	fp, ip, #4
    uart0_puts( "\n\n*** ERROR FATAL: ejecutando isr_UTXD1_dummy" );
 c106f44:	e59f0010 	ldr	r0, [pc, #16]	; c106f5c <isr_UTXD1_dummy+0x28>
 c106f48:	eb000660 	bl	c1088d0 <uart0_puts>
    SEGS = 0x75;
 c106f4c:	e3a03785 	mov	r3, #34865152	; 0x2140000
 c106f50:	e3a02075 	mov	r2, #117	; 0x75
 c106f54:	e5c32000 	strb	r2, [r3]
    while( 1 );
 c106f58:	eafffffe 	b	c106f58 <isr_UTXD1_dummy+0x24>
 c106f5c:	0c10a4b4 	.word	0x0c10a4b4

0c106f60 <isr_UTXD0_dummy>:
}

void isr_UTXD0_dummy( void )
{
 c106f60:	e52dc004 	push	{ip}		; (str ip, [sp, #-4]!)
 c106f64:	e1a0c00d 	mov	ip, sp
 c106f68:	e92dd80f 	push	{r0, r1, r2, r3, fp, ip, lr, pc}
 c106f6c:	e24cb004 	sub	fp, ip, #4
   	uart0_puts( "\n\n*** ERROR FATAL: ejecutando isr_UTXD0_dummy" );
 c106f70:	e59f0010 	ldr	r0, [pc, #16]	; c106f88 <isr_UTXD0_dummy+0x28>
 c106f74:	eb000655 	bl	c1088d0 <uart0_puts>
    SEGS = 0x75;
 c106f78:	e3a03785 	mov	r3, #34865152	; 0x2140000
 c106f7c:	e3a02075 	mov	r2, #117	; 0x75
 c106f80:	e5c32000 	strb	r2, [r3]
    while( 1 );
 c106f84:	eafffffe 	b	c106f84 <isr_UTXD0_dummy+0x24>
 c106f88:	0c10a4e4 	.word	0x0c10a4e4

0c106f8c <isr_SIO_dummy>:
}

void isr_SIO_dummy( void )
{
 c106f8c:	e52dc004 	push	{ip}		; (str ip, [sp, #-4]!)
 c106f90:	e1a0c00d 	mov	ip, sp
 c106f94:	e92dd80f 	push	{r0, r1, r2, r3, fp, ip, lr, pc}
 c106f98:	e24cb004 	sub	fp, ip, #4
    uart0_puts( "\n\n*** ERROR FATAL: ejecutando isr_SIO_dummy" );
 c106f9c:	e59f0010 	ldr	r0, [pc, #16]	; c106fb4 <isr_SIO_dummy+0x28>
 c106fa0:	eb00064a 	bl	c1088d0 <uart0_puts>
    SEGS = 0x75;
 c106fa4:	e3a03785 	mov	r3, #34865152	; 0x2140000
 c106fa8:	e3a02075 	mov	r2, #117	; 0x75
 c106fac:	e5c32000 	strb	r2, [r3]
    while( 1 );
 c106fb0:	eafffffe 	b	c106fb0 <isr_SIO_dummy+0x24>
 c106fb4:	0c10a514 	.word	0x0c10a514

0c106fb8 <isr_IIC_dummy>:
}

void isr_IIC_dummy( void )
{
 c106fb8:	e52dc004 	push	{ip}		; (str ip, [sp, #-4]!)
 c106fbc:	e1a0c00d 	mov	ip, sp
 c106fc0:	e92dd80f 	push	{r0, r1, r2, r3, fp, ip, lr, pc}
 c106fc4:	e24cb004 	sub	fp, ip, #4
    uart0_puts( "\n\n*** ERROR FATAL: ejecutando isr_IIC_dummy" );
 c106fc8:	e59f0010 	ldr	r0, [pc, #16]	; c106fe0 <isr_IIC_dummy+0x28>
 c106fcc:	eb00063f 	bl	c1088d0 <uart0_puts>
    SEGS = 0x75;
 c106fd0:	e3a03785 	mov	r3, #34865152	; 0x2140000
 c106fd4:	e3a02075 	mov	r2, #117	; 0x75
 c106fd8:	e5c32000 	strb	r2, [r3]
    while( 1 );
 c106fdc:	eafffffe 	b	c106fdc <isr_IIC_dummy+0x24>
 c106fe0:	0c10a540 	.word	0x0c10a540

0c106fe4 <isr_URXD1_dummy>:
}

void isr_URXD1_dummy( void )
{
 c106fe4:	e52dc004 	push	{ip}		; (str ip, [sp, #-4]!)
 c106fe8:	e1a0c00d 	mov	ip, sp
 c106fec:	e92dd80f 	push	{r0, r1, r2, r3, fp, ip, lr, pc}
 c106ff0:	e24cb004 	sub	fp, ip, #4
    uart0_puts( "\n\n*** ERROR FATAL: ejecutando isr_URXD1_dummy" );
 c106ff4:	e59f0010 	ldr	r0, [pc, #16]	; c10700c <isr_URXD1_dummy+0x28>
 c106ff8:	eb000634 	bl	c1088d0 <uart0_puts>
    SEGS = 0x75;
 c106ffc:	e3a03785 	mov	r3, #34865152	; 0x2140000
 c107000:	e3a02075 	mov	r2, #117	; 0x75
 c107004:	e5c32000 	strb	r2, [r3]
    while( 1 );
 c107008:	eafffffe 	b	c107008 <isr_URXD1_dummy+0x24>
 c10700c:	0c10a56c 	.word	0x0c10a56c

0c107010 <isr_URXD0_dummy>:
}

void isr_URXD0_dummy( void )
{
 c107010:	e52dc004 	push	{ip}		; (str ip, [sp, #-4]!)
 c107014:	e1a0c00d 	mov	ip, sp
 c107018:	e92dd80f 	push	{r0, r1, r2, r3, fp, ip, lr, pc}
 c10701c:	e24cb004 	sub	fp, ip, #4
    uart0_puts( "\n\n*** ERROR FATAL: ejecutando isr_URXD0_dummy" );
 c107020:	e59f0010 	ldr	r0, [pc, #16]	; c107038 <isr_URXD0_dummy+0x28>
 c107024:	eb000629 	bl	c1088d0 <uart0_puts>
    SEGS = 0x75;
 c107028:	e3a03785 	mov	r3, #34865152	; 0x2140000
 c10702c:	e3a02075 	mov	r2, #117	; 0x75
 c107030:	e5c32000 	strb	r2, [r3]
    while( 1 );
 c107034:	eafffffe 	b	c107034 <isr_URXD0_dummy+0x24>
 c107038:	0c10a59c 	.word	0x0c10a59c

0c10703c <isr_TIMER5_dummy>:
}

void isr_TIMER5_dummy( void )
{
 c10703c:	e52dc004 	push	{ip}		; (str ip, [sp, #-4]!)
 c107040:	e1a0c00d 	mov	ip, sp
 c107044:	e92dd80f 	push	{r0, r1, r2, r3, fp, ip, lr, pc}
 c107048:	e24cb004 	sub	fp, ip, #4
    uart0_puts( "\n\n*** ERROR FATAL: ejecutando isr_TIMER5_dummy" );
 c10704c:	e59f0010 	ldr	r0, [pc, #16]	; c107064 <isr_TIMER5_dummy+0x28>
 c107050:	eb00061e 	bl	c1088d0 <uart0_puts>
    SEGS = 0x75;
 c107054:	e3a03785 	mov	r3, #34865152	; 0x2140000
 c107058:	e3a02075 	mov	r2, #117	; 0x75
 c10705c:	e5c32000 	strb	r2, [r3]
    while( 1 );
 c107060:	eafffffe 	b	c107060 <isr_TIMER5_dummy+0x24>
 c107064:	0c10a5cc 	.word	0x0c10a5cc

0c107068 <isr_TIMER4_dummy>:
}

void isr_TIMER4_dummy( void )
{
 c107068:	e52dc004 	push	{ip}		; (str ip, [sp, #-4]!)
 c10706c:	e1a0c00d 	mov	ip, sp
 c107070:	e92dd80f 	push	{r0, r1, r2, r3, fp, ip, lr, pc}
 c107074:	e24cb004 	sub	fp, ip, #4
    uart0_puts( "\n\n*** ERROR FATAL: ejecutando isr_TIMER4_dummy" );
 c107078:	e59f0010 	ldr	r0, [pc, #16]	; c107090 <isr_TIMER4_dummy+0x28>
 c10707c:	eb000613 	bl	c1088d0 <uart0_puts>
    SEGS = 0x75;
 c107080:	e3a03785 	mov	r3, #34865152	; 0x2140000
 c107084:	e3a02075 	mov	r2, #117	; 0x75
 c107088:	e5c32000 	strb	r2, [r3]
    while( 1 );
 c10708c:	eafffffe 	b	c10708c <isr_TIMER4_dummy+0x24>
 c107090:	0c10a5fc 	.word	0x0c10a5fc

0c107094 <isr_TIMER3_dummy>:
}

void isr_TIMER3_dummy( void )
{
 c107094:	e52dc004 	push	{ip}		; (str ip, [sp, #-4]!)
 c107098:	e1a0c00d 	mov	ip, sp
 c10709c:	e92dd80f 	push	{r0, r1, r2, r3, fp, ip, lr, pc}
 c1070a0:	e24cb004 	sub	fp, ip, #4
    uart0_puts( "\n\n*** ERROR FATAL: ejecutando isr_TIMER3_dummy" );
 c1070a4:	e59f0010 	ldr	r0, [pc, #16]	; c1070bc <isr_TIMER3_dummy+0x28>
 c1070a8:	eb000608 	bl	c1088d0 <uart0_puts>
    SEGS = 0x75;
 c1070ac:	e3a03785 	mov	r3, #34865152	; 0x2140000
 c1070b0:	e3a02075 	mov	r2, #117	; 0x75
 c1070b4:	e5c32000 	strb	r2, [r3]
    while( 1 );
 c1070b8:	eafffffe 	b	c1070b8 <isr_TIMER3_dummy+0x24>
 c1070bc:	0c10a62c 	.word	0x0c10a62c

0c1070c0 <isr_TIMER2_dummy>:
}

void isr_TIMER2_dummy( void )
{
 c1070c0:	e52dc004 	push	{ip}		; (str ip, [sp, #-4]!)
 c1070c4:	e1a0c00d 	mov	ip, sp
 c1070c8:	e92dd80f 	push	{r0, r1, r2, r3, fp, ip, lr, pc}
 c1070cc:	e24cb004 	sub	fp, ip, #4
    uart0_puts( "\n\n*** ERROR FATAL: ejecutando isr_TIMER2_dummy" );
 c1070d0:	e59f0010 	ldr	r0, [pc, #16]	; c1070e8 <isr_TIMER2_dummy+0x28>
 c1070d4:	eb0005fd 	bl	c1088d0 <uart0_puts>
    SEGS = 0x75;
 c1070d8:	e3a03785 	mov	r3, #34865152	; 0x2140000
 c1070dc:	e3a02075 	mov	r2, #117	; 0x75
 c1070e0:	e5c32000 	strb	r2, [r3]
    while( 1 );
 c1070e4:	eafffffe 	b	c1070e4 <isr_TIMER2_dummy+0x24>
 c1070e8:	0c10a65c 	.word	0x0c10a65c

0c1070ec <isr_TIMER1_dummy>:
}

void isr_TIMER1_dummy( void )
{
 c1070ec:	e52dc004 	push	{ip}		; (str ip, [sp, #-4]!)
 c1070f0:	e1a0c00d 	mov	ip, sp
 c1070f4:	e92dd80f 	push	{r0, r1, r2, r3, fp, ip, lr, pc}
 c1070f8:	e24cb004 	sub	fp, ip, #4
    uart0_puts( "\n\n*** ERROR FATAL: ejecutando isr_TIMER1_dummy" );
 c1070fc:	e59f0010 	ldr	r0, [pc, #16]	; c107114 <isr_TIMER1_dummy+0x28>
 c107100:	eb0005f2 	bl	c1088d0 <uart0_puts>
	SEGS = 0x75;
 c107104:	e3a03785 	mov	r3, #34865152	; 0x2140000
 c107108:	e3a02075 	mov	r2, #117	; 0x75
 c10710c:	e5c32000 	strb	r2, [r3]
    while( 1 );
 c107110:	eafffffe 	b	c107110 <isr_TIMER1_dummy+0x24>
 c107114:	0c10a68c 	.word	0x0c10a68c

0c107118 <isr_TIMER0_dummy>:
}

void isr_TIMER0_dummy( void )
{
 c107118:	e52dc004 	push	{ip}		; (str ip, [sp, #-4]!)
 c10711c:	e1a0c00d 	mov	ip, sp
 c107120:	e92dd80f 	push	{r0, r1, r2, r3, fp, ip, lr, pc}
 c107124:	e24cb004 	sub	fp, ip, #4
    uart0_puts( "\n\n*** ERROR FATAL: ejecutando isr_TIMER0_dummy" );
 c107128:	e59f0010 	ldr	r0, [pc, #16]	; c107140 <isr_TIMER0_dummy+0x28>
 c10712c:	eb0005e7 	bl	c1088d0 <uart0_puts>
    SEGS = 0x75;
 c107130:	e3a03785 	mov	r3, #34865152	; 0x2140000
 c107134:	e3a02075 	mov	r2, #117	; 0x75
 c107138:	e5c32000 	strb	r2, [r3]
    while( 1 );
 c10713c:	eafffffe 	b	c10713c <isr_TIMER0_dummy+0x24>
 c107140:	0c10a6bc 	.word	0x0c10a6bc

0c107144 <isr_UERR01_dummy>:
}

void isr_UERR01_dummy( void )
{
 c107144:	e52dc004 	push	{ip}		; (str ip, [sp, #-4]!)
 c107148:	e1a0c00d 	mov	ip, sp
 c10714c:	e92dd80f 	push	{r0, r1, r2, r3, fp, ip, lr, pc}
 c107150:	e24cb004 	sub	fp, ip, #4
    uart0_puts( "\n\n*** ERROR FATAL: ejecutando isr_UERR01_dummy" );
 c107154:	e59f0010 	ldr	r0, [pc, #16]	; c10716c <isr_UERR01_dummy+0x28>
 c107158:	eb0005dc 	bl	c1088d0 <uart0_puts>
    SEGS = 0x75;
 c10715c:	e3a03785 	mov	r3, #34865152	; 0x2140000
 c107160:	e3a02075 	mov	r2, #117	; 0x75
 c107164:	e5c32000 	strb	r2, [r3]
    while( 1 );
 c107168:	eafffffe 	b	c107168 <isr_UERR01_dummy+0x24>
 c10716c:	0c10a6ec 	.word	0x0c10a6ec

0c107170 <isr_WDT_dummy>:
}

void isr_WDT_dummy( void )
{
 c107170:	e52dc004 	push	{ip}		; (str ip, [sp, #-4]!)
 c107174:	e1a0c00d 	mov	ip, sp
 c107178:	e92dd80f 	push	{r0, r1, r2, r3, fp, ip, lr, pc}
 c10717c:	e24cb004 	sub	fp, ip, #4
    uart0_puts( "\n\n*** ERROR FATAL: ejecutando isr_WDT_dummy" );
 c107180:	e59f0010 	ldr	r0, [pc, #16]	; c107198 <isr_WDT_dummy+0x28>
 c107184:	eb0005d1 	bl	c1088d0 <uart0_puts>
    SEGS = 0x75;
 c107188:	e3a03785 	mov	r3, #34865152	; 0x2140000
 c10718c:	e3a02075 	mov	r2, #117	; 0x75
 c107190:	e5c32000 	strb	r2, [r3]
	while( 1 );
 c107194:	eafffffe 	b	c107194 <isr_WDT_dummy+0x24>
 c107198:	0c10a71c 	.word	0x0c10a71c

0c10719c <isr_BDMA1_dummy>:
}

void isr_BDMA1_dummy( void )
{
 c10719c:	e52dc004 	push	{ip}		; (str ip, [sp, #-4]!)
 c1071a0:	e1a0c00d 	mov	ip, sp
 c1071a4:	e92dd80f 	push	{r0, r1, r2, r3, fp, ip, lr, pc}
 c1071a8:	e24cb004 	sub	fp, ip, #4
    uart0_puts( "\n\n*** ERROR FATAL: ejecutando isr_BDMA1_dummy" );
 c1071ac:	e59f0010 	ldr	r0, [pc, #16]	; c1071c4 <isr_BDMA1_dummy+0x28>
 c1071b0:	eb0005c6 	bl	c1088d0 <uart0_puts>
    SEGS = 0x75;
 c1071b4:	e3a03785 	mov	r3, #34865152	; 0x2140000
 c1071b8:	e3a02075 	mov	r2, #117	; 0x75
 c1071bc:	e5c32000 	strb	r2, [r3]
    while( 1 );
 c1071c0:	eafffffe 	b	c1071c0 <isr_BDMA1_dummy+0x24>
 c1071c4:	0c10a748 	.word	0x0c10a748

0c1071c8 <isr_BDMA0_dummy>:
}

void isr_BDMA0_dummy( void )
{
 c1071c8:	e52dc004 	push	{ip}		; (str ip, [sp, #-4]!)
 c1071cc:	e1a0c00d 	mov	ip, sp
 c1071d0:	e92dd80f 	push	{r0, r1, r2, r3, fp, ip, lr, pc}
 c1071d4:	e24cb004 	sub	fp, ip, #4
    uart0_puts( "\n\n*** ERROR FATAL: ejecutando isr_BDMA0_dummy" );
 c1071d8:	e59f0010 	ldr	r0, [pc, #16]	; c1071f0 <isr_BDMA0_dummy+0x28>
 c1071dc:	eb0005bb 	bl	c1088d0 <uart0_puts>
    SEGS = 0x75;
 c1071e0:	e3a03785 	mov	r3, #34865152	; 0x2140000
 c1071e4:	e3a02075 	mov	r2, #117	; 0x75
 c1071e8:	e5c32000 	strb	r2, [r3]
    while( 1 );
 c1071ec:	eafffffe 	b	c1071ec <isr_BDMA0_dummy+0x24>
 c1071f0:	0c10a778 	.word	0x0c10a778

0c1071f4 <isr_ZDMA1_dummy>:
}

void isr_ZDMA1_dummy( void )
{
 c1071f4:	e52dc004 	push	{ip}		; (str ip, [sp, #-4]!)
 c1071f8:	e1a0c00d 	mov	ip, sp
 c1071fc:	e92dd80f 	push	{r0, r1, r2, r3, fp, ip, lr, pc}
 c107200:	e24cb004 	sub	fp, ip, #4
    uart0_puts( "\n\n*** ERROR FATAL: ejecutando isr_ZDMA1_dummy" );
 c107204:	e59f0010 	ldr	r0, [pc, #16]	; c10721c <isr_ZDMA1_dummy+0x28>
 c107208:	eb0005b0 	bl	c1088d0 <uart0_puts>
    SEGS = 0x75;
 c10720c:	e3a03785 	mov	r3, #34865152	; 0x2140000
 c107210:	e3a02075 	mov	r2, #117	; 0x75
 c107214:	e5c32000 	strb	r2, [r3]
    while( 1 );
 c107218:	eafffffe 	b	c107218 <isr_ZDMA1_dummy+0x24>
 c10721c:	0c10a7a8 	.word	0x0c10a7a8

0c107220 <isr_ZDMA0_dummy>:
}

void isr_ZDMA0_dummy( void )
{
 c107220:	e52dc004 	push	{ip}		; (str ip, [sp, #-4]!)
 c107224:	e1a0c00d 	mov	ip, sp
 c107228:	e92dd80f 	push	{r0, r1, r2, r3, fp, ip, lr, pc}
 c10722c:	e24cb004 	sub	fp, ip, #4
    uart0_puts( "\n\n*** ERROR FATAL: ejecutando isr_ZDMA0_dummy" );
 c107230:	e59f0010 	ldr	r0, [pc, #16]	; c107248 <isr_ZDMA0_dummy+0x28>
 c107234:	eb0005a5 	bl	c1088d0 <uart0_puts>
    SEGS = 0x75;
 c107238:	e3a03785 	mov	r3, #34865152	; 0x2140000
 c10723c:	e3a02075 	mov	r2, #117	; 0x75
 c107240:	e5c32000 	strb	r2, [r3]
    while( 1 );
 c107244:	eafffffe 	b	c107244 <isr_ZDMA0_dummy+0x24>
 c107248:	0c10a7d8 	.word	0x0c10a7d8

0c10724c <isr_TICK_dummy>:
}

void isr_TICK_dummy( void )
{
 c10724c:	e52dc004 	push	{ip}		; (str ip, [sp, #-4]!)
 c107250:	e1a0c00d 	mov	ip, sp
 c107254:	e92dd80f 	push	{r0, r1, r2, r3, fp, ip, lr, pc}
 c107258:	e24cb004 	sub	fp, ip, #4
    uart0_puts( "\n\n*** ERROR FATAL: ejecutando isr_TICK_dummy" );
 c10725c:	e59f0010 	ldr	r0, [pc, #16]	; c107274 <isr_TICK_dummy+0x28>
 c107260:	eb00059a 	bl	c1088d0 <uart0_puts>
    SEGS = 0x75;
 c107264:	e3a03785 	mov	r3, #34865152	; 0x2140000
 c107268:	e3a02075 	mov	r2, #117	; 0x75
 c10726c:	e5c32000 	strb	r2, [r3]
    while( 1 );
 c107270:	eafffffe 	b	c107270 <isr_TICK_dummy+0x24>
 c107274:	0c10a808 	.word	0x0c10a808

0c107278 <isr_PB_dummy>:
}

void isr_PB_dummy( void )
{
 c107278:	e52dc004 	push	{ip}		; (str ip, [sp, #-4]!)
 c10727c:	e1a0c00d 	mov	ip, sp
 c107280:	e92dd80f 	push	{r0, r1, r2, r3, fp, ip, lr, pc}
 c107284:	e24cb004 	sub	fp, ip, #4
    uart0_puts( "\n\n*** ERROR FATAL: ejecutando isr_PB_dummy" );
 c107288:	e59f0010 	ldr	r0, [pc, #16]	; c1072a0 <isr_PB_dummy+0x28>
 c10728c:	eb00058f 	bl	c1088d0 <uart0_puts>
    SEGS = 0x75;
 c107290:	e3a03785 	mov	r3, #34865152	; 0x2140000
 c107294:	e3a02075 	mov	r2, #117	; 0x75
 c107298:	e5c32000 	strb	r2, [r3]
    while( 1 );
 c10729c:	eafffffe 	b	c10729c <isr_PB_dummy+0x24>
 c1072a0:	0c10a838 	.word	0x0c10a838

0c1072a4 <isr_ETHERNET_dummy>:
}

void isr_ETHERNET_dummy( void )
{
 c1072a4:	e52dc004 	push	{ip}		; (str ip, [sp, #-4]!)
 c1072a8:	e1a0c00d 	mov	ip, sp
 c1072ac:	e92dd80f 	push	{r0, r1, r2, r3, fp, ip, lr, pc}
 c1072b0:	e24cb004 	sub	fp, ip, #4
    uart0_puts( "\n\n*** ERROR FATAL: ejecutando isr_ETHERNET_dummy" );
 c1072b4:	e59f0010 	ldr	r0, [pc, #16]	; c1072cc <isr_ETHERNET_dummy+0x28>
 c1072b8:	eb000584 	bl	c1088d0 <uart0_puts>
    SEGS = 0x75;
 c1072bc:	e3a03785 	mov	r3, #34865152	; 0x2140000
 c1072c0:	e3a02075 	mov	r2, #117	; 0x75
 c1072c4:	e5c32000 	strb	r2, [r3]
    while( 1 );
 c1072c8:	eafffffe 	b	c1072c8 <isr_ETHERNET_dummy+0x24>
 c1072cc:	0c10a864 	.word	0x0c10a864

0c1072d0 <isr_TS_dummy>:
}

void isr_TS_dummy( void )
{
 c1072d0:	e52dc004 	push	{ip}		; (str ip, [sp, #-4]!)
 c1072d4:	e1a0c00d 	mov	ip, sp
 c1072d8:	e92dd80f 	push	{r0, r1, r2, r3, fp, ip, lr, pc}
 c1072dc:	e24cb004 	sub	fp, ip, #4
    uart0_puts( "\n\n*** ERROR FATAL: ejecutando isr_TS_dummy" );
 c1072e0:	e59f0010 	ldr	r0, [pc, #16]	; c1072f8 <isr_TS_dummy+0x28>
 c1072e4:	eb000579 	bl	c1088d0 <uart0_puts>
    SEGS = 0x75;
 c1072e8:	e3a03785 	mov	r3, #34865152	; 0x2140000
 c1072ec:	e3a02075 	mov	r2, #117	; 0x75
 c1072f0:	e5c32000 	strb	r2, [r3]
    while( 1 );
 c1072f4:	eafffffe 	b	c1072f4 <isr_TS_dummy+0x24>
 c1072f8:	0c10a898 	.word	0x0c10a898

0c1072fc <isr_KEYPAD_dummy>:
}

void isr_KEYPAD_dummy( void )
{
 c1072fc:	e52dc004 	push	{ip}		; (str ip, [sp, #-4]!)
 c107300:	e1a0c00d 	mov	ip, sp
 c107304:	e92dd80f 	push	{r0, r1, r2, r3, fp, ip, lr, pc}
 c107308:	e24cb004 	sub	fp, ip, #4
    uart0_puts( "\n\n*** ERROR FATAL: ejecutando isr_KEYPAD_dummy" );
 c10730c:	e59f0010 	ldr	r0, [pc, #16]	; c107324 <isr_KEYPAD_dummy+0x28>
 c107310:	eb00056e 	bl	c1088d0 <uart0_puts>
    SEGS = 0x75;
 c107314:	e3a03785 	mov	r3, #34865152	; 0x2140000
 c107318:	e3a02075 	mov	r2, #117	; 0x75
 c10731c:	e5c32000 	strb	r2, [r3]
    while( 1 );
 c107320:	eafffffe 	b	c107320 <isr_KEYPAD_dummy+0x24>
 c107324:	0c10a8c4 	.word	0x0c10a8c4

0c107328 <isr_USB_dummy>:
}

void isr_USB_dummy( void )
{
 c107328:	e52dc004 	push	{ip}		; (str ip, [sp, #-4]!)
 c10732c:	e1a0c00d 	mov	ip, sp
 c107330:	e92dd80f 	push	{r0, r1, r2, r3, fp, ip, lr, pc}
 c107334:	e24cb004 	sub	fp, ip, #4
    uart0_puts( "\n\n*** ERROR FATAL: ejecutando isr_USB_dummy" );
 c107338:	e59f0010 	ldr	r0, [pc, #16]	; c107350 <isr_USB_dummy+0x28>
 c10733c:	eb000563 	bl	c1088d0 <uart0_puts>
    SEGS = 0x75;
 c107340:	e3a03785 	mov	r3, #34865152	; 0x2140000
 c107344:	e3a02075 	mov	r2, #117	; 0x75
 c107348:	e5c32000 	strb	r2, [r3]
    while( 1 );
 c10734c:	eafffffe 	b	c10734c <isr_USB_dummy+0x24>
 c107350:	0c10a8f4 	.word	0x0c10a8f4

0c107354 <show_sys_info>:
}

static inline void show_sys_info( void )
{
 c107354:	e1a0c00d 	mov	ip, sp
 c107358:	e92dd800 	push	{fp, ip, lr, pc}
 c10735c:	e24cb004 	sub	fp, ip, #4
    uart0_puts( "Realizado por: Sergio Dominguez");
 c107360:	e59f000c 	ldr	r0, [pc, #12]	; c107374 <show_sys_info+0x20>
 c107364:	eb000559 	bl	c1088d0 <uart0_puts>
}
 c107368:	e24bd00c 	sub	sp, fp, #12
 c10736c:	e89d6800 	ldm	sp, {fp, sp, lr}
 c107370:	e12fff1e 	bx	lr
 c107374:	0c10a920 	.word	0x0c10a920

0c107378 <sleep>:


inline void sleep( void )
{
 c107378:	e1a0c00d 	mov	ip, sp
 c10737c:	e92dd800 	push	{fp, ip, lr, pc}
 c107380:	e24cb004 	sub	fp, ip, #4
    CLKCON |= (1 << 2);    // Pone a la CPU en estado IDLE
 c107384:	e59f3018 	ldr	r3, [pc, #24]	; c1073a4 <sleep+0x2c>
 c107388:	e59f2014 	ldr	r2, [pc, #20]	; c1073a4 <sleep+0x2c>
 c10738c:	e5922000 	ldr	r2, [r2]
 c107390:	e3822004 	orr	r2, r2, #4
 c107394:	e5832000 	str	r2, [r3]
}
 c107398:	e24bd00c 	sub	sp, fp, #12
 c10739c:	e89d6800 	ldm	sp, {fp, sp, lr}
 c1073a0:	e12fff1e 	bx	lr
 c1073a4:	01d80004 	.word	0x01d80004

0c1073a8 <sys_recovery>:

static void sys_recovery( void ) // NO TOCAR
{
 c1073a8:	e1a0c00d 	mov	ip, sp
 c1073ac:	e92dd800 	push	{fp, ip, lr, pc}
 c1073b0:	e24cb004 	sub	fp, ip, #4
 c1073b4:	e24dd018 	sub	sp, sp, #24
    uint8 mode;
    uint32 sp, fp;
    uint32 *addrSrc, *addrDst;
    uint32 diffStacks;
    
    asm volatile ( "str sp, %0" : "=m" (sp) : : );    // lee el puntero a la cima de la pila de excepción (SP) 
 c1073b8:	e50bd01c 	str	sp, [fp, #-28]	; 0xffffffe4
    asm volatile ( "str fp, %0" : "=m" (fp) : : );    // lee el puntero al marco de activación (FP) de sys_recovery() en la pila de excepción
 c1073bc:	e50bb020 	str	fp, [fp, #-32]	; 0xffffffe0
    
    GET_OPMODE( &mode );    // lee el modo de ejecución del procesador
 c1073c0:	e10f0000 	mrs	r0, CPSR
 c1073c4:	e200001f 	and	r0, r0, #31
 c1073c8:	e54b0015 	strb	r0, [fp, #-21]	; 0xffffffeb
    switch( mode )
 c1073cc:	e55b3015 	ldrb	r3, [fp, #-21]	; 0xffffffeb
 c1073d0:	e2433011 	sub	r3, r3, #17
 c1073d4:	e353000a 	cmp	r3, #10
 c1073d8:	979ff103 	ldrls	pc, [pc, r3, lsl #2]
 c1073dc:	ea00001e 	b	c10745c <sys_recovery+0xb4>
 c1073e0:	0c107420 	.word	0x0c107420
 c1073e4:	0c10740c 	.word	0x0c10740c
 c1073e8:	0c10745c 	.word	0x0c10745c
 c1073ec:	0c10745c 	.word	0x0c10745c
 c1073f0:	0c10745c 	.word	0x0c10745c
 c1073f4:	0c10745c 	.word	0x0c10745c
 c1073f8:	0c107434 	.word	0x0c107434
 c1073fc:	0c10745c 	.word	0x0c10745c
 c107400:	0c10745c 	.word	0x0c10745c
 c107404:	0c10745c 	.word	0x0c10745c
 c107408:	0c107448 	.word	0x0c107448
    {
        case IRQMODE:
            diffStacks = IRQSTACK - SVCSTACK;     // calcula la distancia entre la bases de la pila IRQ y la SVC
 c10740c:	e3a03c03 	mov	r3, #768	; 0x300
 c107410:	e50b3014 	str	r3, [fp, #-20]	; 0xffffffec
            addrSrc = (uint32 *)IRQSTACK;         // base de la pila IRQ
 c107414:	e59f3198 	ldr	r3, [pc, #408]	; c1075b4 <sys_recovery+0x20c>
 c107418:	e50b3024 	str	r3, [fp, #-36]	; 0xffffffdc
            break;
 c10741c:	ea00000f 	b	c107460 <sys_recovery+0xb8>
        case FIQMODE:
            diffStacks = FIQSTACK - SVCSTACK;     // calcula la distancia entre la bases de la pila FIQ y la SVC
 c107420:	e3a03b01 	mov	r3, #1024	; 0x400
 c107424:	e50b3014 	str	r3, [fp, #-20]	; 0xffffffec
            addrSrc = (uint32 *)FIQSTACK;         // base de la pila FIQ
 c107428:	e59f3188 	ldr	r3, [pc, #392]	; c1075b8 <sys_recovery+0x210>
 c10742c:	e50b3024 	str	r3, [fp, #-36]	; 0xffffffdc
            break;
 c107430:	ea00000a 	b	c107460 <sys_recovery+0xb8>
        case ABTMODE:
            diffStacks = ABTSTACK - SVCSTACK;     // calcula la distancia entre la bases de la pila ABT y la SVC
 c107434:	e3a03c02 	mov	r3, #512	; 0x200
 c107438:	e50b3014 	str	r3, [fp, #-20]	; 0xffffffec
            addrSrc = (uint32 *)ABTSTACK;         // base de la pila ABT
 c10743c:	e59f3178 	ldr	r3, [pc, #376]	; c1075bc <sys_recovery+0x214>
 c107440:	e50b3024 	str	r3, [fp, #-36]	; 0xffffffdc
            break;
 c107444:	ea000005 	b	c107460 <sys_recovery+0xb8>
        case UNDMODE:
            diffStacks = UNDSTACK - SVCSTACK;     // calcula la distancia entre la bases de la pila UND y la SVC
 c107448:	e3a03c01 	mov	r3, #256	; 0x100
 c10744c:	e50b3014 	str	r3, [fp, #-20]	; 0xffffffec
            addrSrc = (uint32 *)UNDSTACK;         // base de la pila UND
 c107450:	e59f3168 	ldr	r3, [pc, #360]	; c1075c0 <sys_recovery+0x218>
 c107454:	e50b3024 	str	r3, [fp, #-36]	; 0xffffffdc
            break;         
 c107458:	ea000000 	b	c107460 <sys_recovery+0xb8>
        case USRMODE:
            // Habría que hacer algo análogo a lo anterior y además para volver a modo SVC dado que no es válido SET_OPMODE( SVCMODE ), es necesario esto:
            // pISR_SWI = (uint32) isr_SWI;
            // SWI( 0 );  
        default:
            while( 1 );                           // aquí no debería llegarse
 c10745c:	eafffffe 	b	c10745c <sys_recovery+0xb4>
            break;
    }    
        
    asm volatile ( "ldr sp, %0" : "=m" (addrSrc) : : );    // restaura el SP de excepción a su base para desechar su contenido y evitar su desbordamiento     
 c107460:	e51bd024 	ldr	sp, [fp, #-36]	; 0xffffffdc
        
    for( addrDst = (uint32 *)SVCSTACK; addrSrc > (uint32 *)sp; )    // copia el contenido completo de la pila excepción en la pila SVC
 c107464:	e59f3158 	ldr	r3, [pc, #344]	; c1075c4 <sys_recovery+0x21c>
 c107468:	e50b3010 	str	r3, [fp, #-16]
 c10746c:	ea000009 	b	c107498 <sys_recovery+0xf0>
        *(--addrDst) = *(--addrSrc);
 c107470:	e51b3010 	ldr	r3, [fp, #-16]
 c107474:	e2433004 	sub	r3, r3, #4
 c107478:	e50b3010 	str	r3, [fp, #-16]
 c10747c:	e51b3024 	ldr	r3, [fp, #-36]	; 0xffffffdc
 c107480:	e2433004 	sub	r3, r3, #4
 c107484:	e50b3024 	str	r3, [fp, #-36]	; 0xffffffdc
 c107488:	e51b3024 	ldr	r3, [fp, #-36]	; 0xffffffdc
 c10748c:	e5932000 	ldr	r2, [r3]
 c107490:	e51b3010 	ldr	r3, [fp, #-16]
 c107494:	e5832000 	str	r2, [r3]
            break;
    }    
        
    asm volatile ( "ldr sp, %0" : "=m" (addrSrc) : : );    // restaura el SP de excepción a su base para desechar su contenido y evitar su desbordamiento     
        
    for( addrDst = (uint32 *)SVCSTACK; addrSrc > (uint32 *)sp; )    // copia el contenido completo de la pila excepción en la pila SVC
 c107498:	e51b301c 	ldr	r3, [fp, #-28]	; 0xffffffe4
 c10749c:	e1a02003 	mov	r2, r3
 c1074a0:	e51b3024 	ldr	r3, [fp, #-36]	; 0xffffffdc
 c1074a4:	e1520003 	cmp	r2, r3
 c1074a8:	3afffff0 	bcc	c107470 <sys_recovery+0xc8>
        *(--addrDst) = *(--addrSrc);

    addrDst = (uint32 *)(fp-diffStacks);   // carga el puntero al marco de activación de sys_recovery() en la pila SVC
 c1074ac:	e51b2020 	ldr	r2, [fp, #-32]	; 0xffffffe0
 c1074b0:	e51b3014 	ldr	r3, [fp, #-20]	; 0xffffffec
 c1074b4:	e0633002 	rsb	r3, r3, r2
 c1074b8:	e50b3010 	str	r3, [fp, #-16]
    addrDst--;                             // salta el PC apilado
 c1074bc:	e51b3010 	ldr	r3, [fp, #-16]
 c1074c0:	e2433004 	sub	r3, r3, #4
 c1074c4:	e50b3010 	str	r3, [fp, #-16]
    addrDst--;                             // salta el LR apilado
 c1074c8:	e51b3010 	ldr	r3, [fp, #-16]
 c1074cc:	e2433004 	sub	r3, r3, #4
 c1074d0:	e50b3010 	str	r3, [fp, #-16]
    *addrDst -= diffStacks;                // actualiza SP apilado para que apunte a la pila SVC
 c1074d4:	e51b3010 	ldr	r3, [fp, #-16]
 c1074d8:	e5932000 	ldr	r2, [r3]
 c1074dc:	e51b3014 	ldr	r3, [fp, #-20]	; 0xffffffec
 c1074e0:	e0632002 	rsb	r2, r3, r2
 c1074e4:	e51b3010 	ldr	r3, [fp, #-16]
 c1074e8:	e5832000 	str	r2, [r3]
    addrDst--;                             // salta el SP apilado
 c1074ec:	e51b3010 	ldr	r3, [fp, #-16]
 c1074f0:	e2433004 	sub	r3, r3, #4
 c1074f4:	e50b3010 	str	r3, [fp, #-16]
    *addrDst -= diffStacks;                // actualiza el FP apilado para que apunte a la pila SVC
 c1074f8:	e51b3010 	ldr	r3, [fp, #-16]
 c1074fc:	e5932000 	ldr	r2, [r3]
 c107500:	e51b3014 	ldr	r3, [fp, #-20]	; 0xffffffec
 c107504:	e0632002 	rsb	r2, r3, r2
 c107508:	e51b3010 	ldr	r3, [fp, #-16]
 c10750c:	e5832000 	str	r2, [r3]
    
    addrDst = (uint32 *)(*addrDst);        // carga el puntero al marco de activación de sys_init()
 c107510:	e51b3010 	ldr	r3, [fp, #-16]
 c107514:	e5933000 	ldr	r3, [r3]
 c107518:	e50b3010 	str	r3, [fp, #-16]
    addrDst--;                             // salta el PC apilado
 c10751c:	e51b3010 	ldr	r3, [fp, #-16]
 c107520:	e2433004 	sub	r3, r3, #4
 c107524:	e50b3010 	str	r3, [fp, #-16]
    addrDst--;                             // salta el LR apilado
 c107528:	e51b3010 	ldr	r3, [fp, #-16]
 c10752c:	e2433004 	sub	r3, r3, #4
 c107530:	e50b3010 	str	r3, [fp, #-16]
    *addrDst -= diffStacks;                // actualiza SP apilado para que apunte a la pila SVC
 c107534:	e51b3010 	ldr	r3, [fp, #-16]
 c107538:	e5932000 	ldr	r2, [r3]
 c10753c:	e51b3014 	ldr	r3, [fp, #-20]	; 0xffffffec
 c107540:	e0632002 	rsb	r2, r3, r2
 c107544:	e51b3010 	ldr	r3, [fp, #-16]
 c107548:	e5832000 	str	r2, [r3]
    addrDst--;                             // salta el SP apilado
 c10754c:	e51b3010 	ldr	r3, [fp, #-16]
 c107550:	e2433004 	sub	r3, r3, #4
 c107554:	e50b3010 	str	r3, [fp, #-16]
    *addrDst -= diffStacks;                // actualiza el FP apilado para que apunte a la pila SVC
 c107558:	e51b3010 	ldr	r3, [fp, #-16]
 c10755c:	e5932000 	ldr	r2, [r3]
 c107560:	e51b3014 	ldr	r3, [fp, #-20]	; 0xffffffec
 c107564:	e0632002 	rsb	r2, r3, r2
 c107568:	e51b3010 	ldr	r3, [fp, #-16]
 c10756c:	e5832000 	str	r2, [r3]
   
    SET_OPMODE( SVCMODE );                           // cambia a modo SVC
 c107570:	e10f0000 	mrs	r0, CPSR
 c107574:	e3c0001f 	bic	r0, r0, #31
 c107578:	e3800013 	orr	r0, r0, #19
 c10757c:	e121f000 	msr	CPSR_c, r0

    sp -= diffStacks;
 c107580:	e51b201c 	ldr	r2, [fp, #-28]	; 0xffffffe4
 c107584:	e51b3014 	ldr	r3, [fp, #-20]	; 0xffffffec
 c107588:	e0633002 	rsb	r3, r3, r2
 c10758c:	e50b301c 	str	r3, [fp, #-28]	; 0xffffffe4
    asm volatile ( "ldr sp, %0" : : "m" (sp) : );    // actualiza SP_svc para que apunte a la cima de la pila SVC
 c107590:	e51bd01c 	ldr	sp, [fp, #-28]	; 0xffffffe4
    
    fp -= diffStacks;                 
 c107594:	e51b2020 	ldr	r2, [fp, #-32]	; 0xffffffe0
 c107598:	e51b3014 	ldr	r3, [fp, #-20]	; 0xffffffec
 c10759c:	e0633002 	rsb	r3, r3, r2
 c1075a0:	e50b3020 	str	r3, [fp, #-32]	; 0xffffffe0
    asm volatile ( "ldr fp, %0" : : "m" (fp) : );    // actualiza FP para que apunte al marco de la pila SVC, debe ser siempre la última sentencia
 c1075a4:	e51bb020 	ldr	fp, [fp, #-32]	; 0xffffffe0
}
 c1075a8:	e24bd00c 	sub	sp, fp, #12
 c1075ac:	e89d6800 	ldm	sp, {fp, sp, lr}
 c1075b0:	e12fff1e 	bx	lr
 c1075b4:	0c7ff400 	.word	0x0c7ff400
 c1075b8:	0c7ff500 	.word	0x0c7ff500
 c1075bc:	0c7ff300 	.word	0x0c7ff300
 c1075c0:	0c7ff200 	.word	0x0c7ff200
 c1075c4:	0c7ff100 	.word	0x0c7ff100

0c1075c8 <timers_init>:
static uint32 loop_s = 0;

static void sw_delay_init( void );

void timers_init( void )
{
 c1075c8:	e1a0c00d 	mov	ip, sp
 c1075cc:	e92dd800 	push	{fp, ip, lr, pc}
 c1075d0:	e24cb004 	sub	fp, ip, #4
    TCFG0 = 0x00000000;
 c1075d4:	e59f30bc 	ldr	r3, [pc, #188]	; c107698 <timers_init+0xd0>
 c1075d8:	e3a02000 	mov	r2, #0
 c1075dc:	e5832000 	str	r2, [r3]
    TCFG1 = 0x00000000;
 c1075e0:	e59f30b4 	ldr	r3, [pc, #180]	; c10769c <timers_init+0xd4>
 c1075e4:	e3a02000 	mov	r2, #0
 c1075e8:	e5832000 	str	r2, [r3]

    TCNTB0 = 0x00000000;
 c1075ec:	e59f30ac 	ldr	r3, [pc, #172]	; c1076a0 <timers_init+0xd8>
 c1075f0:	e3a02000 	mov	r2, #0
 c1075f4:	e5832000 	str	r2, [r3]
    TCMPB0 = 0x00000000;
 c1075f8:	e59f30a4 	ldr	r3, [pc, #164]	; c1076a4 <timers_init+0xdc>
 c1075fc:	e3a02000 	mov	r2, #0
 c107600:	e5832000 	str	r2, [r3]
    TCNTB1 = 0x00000000;
 c107604:	e59f309c 	ldr	r3, [pc, #156]	; c1076a8 <timers_init+0xe0>
 c107608:	e3a02000 	mov	r2, #0
 c10760c:	e5832000 	str	r2, [r3]
    TCMPB1 = 0x00000000;
 c107610:	e59f3094 	ldr	r3, [pc, #148]	; c1076ac <timers_init+0xe4>
 c107614:	e3a02000 	mov	r2, #0
 c107618:	e5832000 	str	r2, [r3]
    TCNTB2 = 0x00000000;
 c10761c:	e59f308c 	ldr	r3, [pc, #140]	; c1076b0 <timers_init+0xe8>
 c107620:	e3a02000 	mov	r2, #0
 c107624:	e5832000 	str	r2, [r3]
    TCMPB2 = 0x00000000;
 c107628:	e59f3084 	ldr	r3, [pc, #132]	; c1076b4 <timers_init+0xec>
 c10762c:	e3a02000 	mov	r2, #0
 c107630:	e5832000 	str	r2, [r3]
    TCNTB3 = 0x00000000;
 c107634:	e59f307c 	ldr	r3, [pc, #124]	; c1076b8 <timers_init+0xf0>
 c107638:	e3a02000 	mov	r2, #0
 c10763c:	e5832000 	str	r2, [r3]
    TCMPB3 = 0x00000000;
 c107640:	e59f3074 	ldr	r3, [pc, #116]	; c1076bc <timers_init+0xf4>
 c107644:	e3a02000 	mov	r2, #0
 c107648:	e5832000 	str	r2, [r3]
    TCNTB4 = 0x00000000;
 c10764c:	e59f306c 	ldr	r3, [pc, #108]	; c1076c0 <timers_init+0xf8>
 c107650:	e3a02000 	mov	r2, #0
 c107654:	e5832000 	str	r2, [r3]
    TCMPB4 = 0x00000000;
 c107658:	e59f3064 	ldr	r3, [pc, #100]	; c1076c4 <timers_init+0xfc>
 c10765c:	e3a02000 	mov	r2, #0
 c107660:	e5832000 	str	r2, [r3]
    TCNTB5 = 0x00000000;
 c107664:	e59f305c 	ldr	r3, [pc, #92]	; c1076c8 <timers_init+0x100>
 c107668:	e3a02000 	mov	r2, #0
 c10766c:	e5832000 	str	r2, [r3]

    TCON = (1<<1) | (1<<9) | (1<<13) | (1<<17) | (1<<21) | (1<<25);
 c107670:	e59f3054 	ldr	r3, [pc, #84]	; c1076cc <timers_init+0x104>
 c107674:	e59f2054 	ldr	r2, [pc, #84]	; c1076d0 <timers_init+0x108>
 c107678:	e5832000 	str	r2, [r3]
    TCON = (0<<1) | (0<<9) | (0<<13) | (0<<17) | (0<<21) | (0<<25);
 c10767c:	e59f3048 	ldr	r3, [pc, #72]	; c1076cc <timers_init+0x104>
 c107680:	e3a02000 	mov	r2, #0
 c107684:	e5832000 	str	r2, [r3]

    sw_delay_init();
 c107688:	eb000011 	bl	c1076d4 <sw_delay_init>
}
 c10768c:	e24bd00c 	sub	sp, fp, #12
 c107690:	e89d6800 	ldm	sp, {fp, sp, lr}
 c107694:	e12fff1e 	bx	lr
 c107698:	01d50000 	.word	0x01d50000
 c10769c:	01d50004 	.word	0x01d50004
 c1076a0:	01d5000c 	.word	0x01d5000c
 c1076a4:	01d50010 	.word	0x01d50010
 c1076a8:	01d50018 	.word	0x01d50018
 c1076ac:	01d5001c 	.word	0x01d5001c
 c1076b0:	01d50024 	.word	0x01d50024
 c1076b4:	01d50028 	.word	0x01d50028
 c1076b8:	01d50030 	.word	0x01d50030
 c1076bc:	01d50034 	.word	0x01d50034
 c1076c0:	01d5003c 	.word	0x01d5003c
 c1076c4:	01d50040 	.word	0x01d50040
 c1076c8:	01d50048 	.word	0x01d50048
 c1076cc:	01d50008 	.word	0x01d50008
 c1076d0:	02222202 	.word	0x02222202

0c1076d4 <sw_delay_init>:

static void sw_delay_init( void )
{
 c1076d4:	e1a0c00d 	mov	ip, sp
 c1076d8:	e92dd810 	push	{r4, fp, ip, lr, pc}
 c1076dc:	e24cb004 	sub	fp, ip, #4
 c1076e0:	e24dd00c 	sub	sp, sp, #12
    uint32 i;
    
    timer3_start();
 c1076e4:	eb0000c6 	bl	c107a04 <timer3_start>
    for( i=1000000; i; i--);
 c1076e8:	e59f3088 	ldr	r3, [pc, #136]	; c107778 <sw_delay_init+0xa4>
 c1076ec:	e50b3018 	str	r3, [fp, #-24]	; 0xffffffe8
 c1076f0:	ea000002 	b	c107700 <sw_delay_init+0x2c>
 c1076f4:	e51b3018 	ldr	r3, [fp, #-24]	; 0xffffffe8
 c1076f8:	e2433001 	sub	r3, r3, #1
 c1076fc:	e50b3018 	str	r3, [fp, #-24]	; 0xffffffe8
 c107700:	e51b3018 	ldr	r3, [fp, #-24]	; 0xffffffe8
 c107704:	e3530000 	cmp	r3, #0
 c107708:	1afffff9 	bne	c1076f4 <sw_delay_init+0x20>
    loop_s = ((uint64)1000000*10000)/timer3_stop();
 c10770c:	eb0000e8 	bl	c107ab4 <timer3_stop>
 c107710:	e1a03000 	mov	r3, r0
 c107714:	e1a02003 	mov	r2, r3
 c107718:	e1a03002 	mov	r3, r2
 c10771c:	e3a04000 	mov	r4, #0
 c107720:	e3a00315 	mov	r0, #1409286144	; 0x54000000
 c107724:	e2800abe 	add	r0, r0, #778240	; 0xbe000
 c107728:	e2800b01 	add	r0, r0, #1024	; 0x400
 c10772c:	e3a01002 	mov	r1, #2
 c107730:	e1a02003 	mov	r2, r3
 c107734:	e1a03004 	mov	r3, r4
 c107738:	eb0006ee 	bl	c1092f8 <__aeabi_uldivmod>
 c10773c:	e1a03000 	mov	r3, r0
 c107740:	e1a04001 	mov	r4, r1
 c107744:	e1a02003 	mov	r2, r3
 c107748:	e59f302c 	ldr	r3, [pc, #44]	; c10777c <sw_delay_init+0xa8>
 c10774c:	e5832000 	str	r2, [r3]
    loop_ms = loop_s / 1000;
 c107750:	e59f3024 	ldr	r3, [pc, #36]	; c10777c <sw_delay_init+0xa8>
 c107754:	e5932000 	ldr	r2, [r3]
 c107758:	e59f3020 	ldr	r3, [pc, #32]	; c107780 <sw_delay_init+0xac>
 c10775c:	e0831392 	umull	r1, r3, r2, r3
 c107760:	e1a02323 	lsr	r2, r3, #6
 c107764:	e59f3018 	ldr	r3, [pc, #24]	; c107784 <sw_delay_init+0xb0>
 c107768:	e5832000 	str	r2, [r3]
};
 c10776c:	e24bd010 	sub	sp, fp, #16
 c107770:	e89d6810 	ldm	sp, {r4, fp, sp, lr}
 c107774:	e12fff1e 	bx	lr
 c107778:	000f4240 	.word	0x000f4240
 c10777c:	0c10bd8c 	.word	0x0c10bd8c
 c107780:	10624dd3 	.word	0x10624dd3
 c107784:	0c10bd88 	.word	0x0c10bd88

0c107788 <timer3_delay_ms>:

void timer3_delay_ms( uint16 n )
{
 c107788:	e1a0c00d 	mov	ip, sp
 c10778c:	e92dd800 	push	{fp, ip, lr, pc}
 c107790:	e24cb004 	sub	fp, ip, #4
 c107794:	e24dd008 	sub	sp, sp, #8
 c107798:	e1a03000 	mov	r3, r0
 c10779c:	e14b30be 	strh	r3, [fp, #-14]
    for( ; n; n-- )
 c1077a0:	ea000025 	b	c10783c <timer3_delay_ms+0xb4>
        N=0
        D=2
        C=32000
        */

	TCFG0 = (TCFG0 & ~(0xff << 8)); // PRESCALER =0
 c1077a4:	e59f30a8 	ldr	r3, [pc, #168]	; c107854 <timer3_delay_ms+0xcc>
 c1077a8:	e59f20a4 	ldr	r2, [pc, #164]	; c107854 <timer3_delay_ms+0xcc>
 c1077ac:	e5922000 	ldr	r2, [r2]
 c1077b0:	e3c22cff 	bic	r2, r2, #65280	; 0xff00
 c1077b4:	e5832000 	str	r2, [r3]
	TCFG1 = (TCFG1 & ~(0xf << 12)); // DIVISOR=2
 c1077b8:	e59f3098 	ldr	r3, [pc, #152]	; c107858 <timer3_delay_ms+0xd0>
 c1077bc:	e59f2094 	ldr	r2, [pc, #148]	; c107858 <timer3_delay_ms+0xd0>
 c1077c0:	e5922000 	ldr	r2, [r2]
 c1077c4:	e3c22a0f 	bic	r2, r2, #61440	; 0xf000
 c1077c8:	e5832000 	str	r2, [r3]
	TCNTB3 = 32000; //C
 c1077cc:	e59f3088 	ldr	r3, [pc, #136]	; c10785c <timer3_delay_ms+0xd4>
 c1077d0:	e3a02c7d 	mov	r2, #32000	; 0x7d00
 c1077d4:	e5832000 	str	r2, [r3]

	TCON = (TCON & ~(0xf << 16)) | (1 << 17);
 c1077d8:	e59f3080 	ldr	r3, [pc, #128]	; c107860 <timer3_delay_ms+0xd8>
 c1077dc:	e59f207c 	ldr	r2, [pc, #124]	; c107860 <timer3_delay_ms+0xd8>
 c1077e0:	e5922000 	ldr	r2, [r2]
 c1077e4:	e3c2280f 	bic	r2, r2, #983040	; 0xf0000
 c1077e8:	e3822802 	orr	r2, r2, #131072	; 0x20000
 c1077ec:	e5832000 	str	r2, [r3]
	TCON = (TCON & ~(0xf << 16)) | (1 << 16);
 c1077f0:	e59f3068 	ldr	r3, [pc, #104]	; c107860 <timer3_delay_ms+0xd8>
 c1077f4:	e59f2064 	ldr	r2, [pc, #100]	; c107860 <timer3_delay_ms+0xd8>
 c1077f8:	e5922000 	ldr	r2, [r2]
 c1077fc:	e3c2280f 	bic	r2, r2, #983040	; 0xf0000
 c107800:	e3822801 	orr	r2, r2, #65536	; 0x10000
 c107804:	e5832000 	str	r2, [r3]

	while( !TCNTO3 );
 c107808:	e1a00000 	nop			; (mov r0, r0)
 c10780c:	e59f3050 	ldr	r3, [pc, #80]	; c107864 <timer3_delay_ms+0xdc>
 c107810:	e5933000 	ldr	r3, [r3]
 c107814:	e3530000 	cmp	r3, #0
 c107818:	0afffffb 	beq	c10780c <timer3_delay_ms+0x84>
	while( TCNTO3 );
 c10781c:	e1a00000 	nop			; (mov r0, r0)
 c107820:	e59f303c 	ldr	r3, [pc, #60]	; c107864 <timer3_delay_ms+0xdc>
 c107824:	e5933000 	ldr	r3, [r3]
 c107828:	e3530000 	cmp	r3, #0
 c10782c:	1afffffb 	bne	c107820 <timer3_delay_ms+0x98>
    loop_ms = loop_s / 1000;
};

void timer3_delay_ms( uint16 n )
{
    for( ; n; n-- )
 c107830:	e15b30be 	ldrh	r3, [fp, #-14]
 c107834:	e2433001 	sub	r3, r3, #1
 c107838:	e14b30be 	strh	r3, [fp, #-14]
 c10783c:	e15b30be 	ldrh	r3, [fp, #-14]
 c107840:	e3530000 	cmp	r3, #0
 c107844:	1affffd6 	bne	c1077a4 <timer3_delay_ms+0x1c>

	while( !TCNTO3 );
	while( TCNTO3 );

    }
}
 c107848:	e24bd00c 	sub	sp, fp, #12
 c10784c:	e89d6800 	ldm	sp, {fp, sp, lr}
 c107850:	e12fff1e 	bx	lr
 c107854:	01d50000 	.word	0x01d50000
 c107858:	01d50004 	.word	0x01d50004
 c10785c:	01d50030 	.word	0x01d50030
 c107860:	01d50008 	.word	0x01d50008
 c107864:	01d50038 	.word	0x01d50038

0c107868 <sw_delay_ms>:

void sw_delay_ms( uint16 n )
{
 c107868:	e1a0c00d 	mov	ip, sp
 c10786c:	e92dd800 	push	{fp, ip, lr, pc}
 c107870:	e24cb004 	sub	fp, ip, #4
 c107874:	e24dd010 	sub	sp, sp, #16
 c107878:	e1a03000 	mov	r3, r0
 c10787c:	e14b31b6 	strh	r3, [fp, #-22]	; 0xffffffea
    uint32 i;
    
    for( i=loop_ms*n; i; i-- );
 c107880:	e15b31b6 	ldrh	r3, [fp, #-22]	; 0xffffffea
 c107884:	e59f2030 	ldr	r2, [pc, #48]	; c1078bc <sw_delay_ms+0x54>
 c107888:	e5922000 	ldr	r2, [r2]
 c10788c:	e0030392 	mul	r3, r2, r3
 c107890:	e50b3010 	str	r3, [fp, #-16]
 c107894:	ea000002 	b	c1078a4 <sw_delay_ms+0x3c>
 c107898:	e51b3010 	ldr	r3, [fp, #-16]
 c10789c:	e2433001 	sub	r3, r3, #1
 c1078a0:	e50b3010 	str	r3, [fp, #-16]
 c1078a4:	e51b3010 	ldr	r3, [fp, #-16]
 c1078a8:	e3530000 	cmp	r3, #0
 c1078ac:	1afffff9 	bne	c107898 <sw_delay_ms+0x30>
}
 c1078b0:	e24bd00c 	sub	sp, fp, #12
 c1078b4:	e89d6800 	ldm	sp, {fp, sp, lr}
 c1078b8:	e12fff1e 	bx	lr
 c1078bc:	0c10bd88 	.word	0x0c10bd88

0c1078c0 <timer3_delay_s>:

void timer3_delay_s( uint16 n )
{
 c1078c0:	e1a0c00d 	mov	ip, sp
 c1078c4:	e92dd800 	push	{fp, ip, lr, pc}
 c1078c8:	e24cb004 	sub	fp, ip, #4
 c1078cc:	e24dd008 	sub	sp, sp, #8
 c1078d0:	e1a03000 	mov	r3, r0
 c1078d4:	e14b30be 	strh	r3, [fp, #-14]
	 for( ; n; n-- )
 c1078d8:	ea000027 	b	c10797c <timer3_delay_s+0xbc>
	 {

	TCFG0 = (TCFG0 & ~(0xff << 8)) | (63 << 8);
 c1078dc:	e59f30b0 	ldr	r3, [pc, #176]	; c107994 <timer3_delay_s+0xd4>
 c1078e0:	e59f20ac 	ldr	r2, [pc, #172]	; c107994 <timer3_delay_s+0xd4>
 c1078e4:	e5922000 	ldr	r2, [r2]
 c1078e8:	e3c22cff 	bic	r2, r2, #65280	; 0xff00
 c1078ec:	e3822c3f 	orr	r2, r2, #16128	; 0x3f00
 c1078f0:	e5832000 	str	r2, [r3]
	TCFG1 = (TCFG1 & ~(0xf << 12)) | (4 << 12);
 c1078f4:	e59f309c 	ldr	r3, [pc, #156]	; c107998 <timer3_delay_s+0xd8>
 c1078f8:	e59f2098 	ldr	r2, [pc, #152]	; c107998 <timer3_delay_s+0xd8>
 c1078fc:	e5922000 	ldr	r2, [r2]
 c107900:	e3c22a0f 	bic	r2, r2, #61440	; 0xf000
 c107904:	e3822901 	orr	r2, r2, #16384	; 0x4000
 c107908:	e5832000 	str	r2, [r3]

	TCNTB3 = 31250;
 c10790c:	e59f3088 	ldr	r3, [pc, #136]	; c10799c <timer3_delay_s+0xdc>
 c107910:	e59f2088 	ldr	r2, [pc, #136]	; c1079a0 <timer3_delay_s+0xe0>
 c107914:	e5832000 	str	r2, [r3]

	TCON = (TCON & ~(0xf << 16)) | (1 << 17);
 c107918:	e59f3084 	ldr	r3, [pc, #132]	; c1079a4 <timer3_delay_s+0xe4>
 c10791c:	e59f2080 	ldr	r2, [pc, #128]	; c1079a4 <timer3_delay_s+0xe4>
 c107920:	e5922000 	ldr	r2, [r2]
 c107924:	e3c2280f 	bic	r2, r2, #983040	; 0xf0000
 c107928:	e3822802 	orr	r2, r2, #131072	; 0x20000
 c10792c:	e5832000 	str	r2, [r3]
	TCON = (TCON & ~(0xf << 16)) | (1 << 16);
 c107930:	e59f306c 	ldr	r3, [pc, #108]	; c1079a4 <timer3_delay_s+0xe4>
 c107934:	e59f2068 	ldr	r2, [pc, #104]	; c1079a4 <timer3_delay_s+0xe4>
 c107938:	e5922000 	ldr	r2, [r2]
 c10793c:	e3c2280f 	bic	r2, r2, #983040	; 0xf0000
 c107940:	e3822801 	orr	r2, r2, #65536	; 0x10000
 c107944:	e5832000 	str	r2, [r3]

	while( !TCNTO3 );
 c107948:	e1a00000 	nop			; (mov r0, r0)
 c10794c:	e59f3054 	ldr	r3, [pc, #84]	; c1079a8 <timer3_delay_s+0xe8>
 c107950:	e5933000 	ldr	r3, [r3]
 c107954:	e3530000 	cmp	r3, #0
 c107958:	0afffffb 	beq	c10794c <timer3_delay_s+0x8c>
	while( TCNTO3 );
 c10795c:	e1a00000 	nop			; (mov r0, r0)
 c107960:	e59f3040 	ldr	r3, [pc, #64]	; c1079a8 <timer3_delay_s+0xe8>
 c107964:	e5933000 	ldr	r3, [r3]
 c107968:	e3530000 	cmp	r3, #0
 c10796c:	1afffffb 	bne	c107960 <timer3_delay_s+0xa0>
    for( i=loop_ms*n; i; i-- );
}

void timer3_delay_s( uint16 n )
{
	 for( ; n; n-- )
 c107970:	e15b30be 	ldrh	r3, [fp, #-14]
 c107974:	e2433001 	sub	r3, r3, #1
 c107978:	e14b30be 	strh	r3, [fp, #-14]
 c10797c:	e15b30be 	ldrh	r3, [fp, #-14]
 c107980:	e3530000 	cmp	r3, #0
 c107984:	1affffd4 	bne	c1078dc <timer3_delay_s+0x1c>

	while( !TCNTO3 );
	while( TCNTO3 );

	 }
}
 c107988:	e24bd00c 	sub	sp, fp, #12
 c10798c:	e89d6800 	ldm	sp, {fp, sp, lr}
 c107990:	e12fff1e 	bx	lr
 c107994:	01d50000 	.word	0x01d50000
 c107998:	01d50004 	.word	0x01d50004
 c10799c:	01d50030 	.word	0x01d50030
 c1079a0:	00007a12 	.word	0x00007a12
 c1079a4:	01d50008 	.word	0x01d50008
 c1079a8:	01d50038 	.word	0x01d50038

0c1079ac <sw_delay_s>:

void sw_delay_s( uint16 n )
{
 c1079ac:	e1a0c00d 	mov	ip, sp
 c1079b0:	e92dd800 	push	{fp, ip, lr, pc}
 c1079b4:	e24cb004 	sub	fp, ip, #4
 c1079b8:	e24dd010 	sub	sp, sp, #16
 c1079bc:	e1a03000 	mov	r3, r0
 c1079c0:	e14b31b6 	strh	r3, [fp, #-22]	; 0xffffffea
    uint32 i;
    
    for( i=loop_s*n; i; i-- );
 c1079c4:	e15b31b6 	ldrh	r3, [fp, #-22]	; 0xffffffea
 c1079c8:	e59f2030 	ldr	r2, [pc, #48]	; c107a00 <sw_delay_s+0x54>
 c1079cc:	e5922000 	ldr	r2, [r2]
 c1079d0:	e0030392 	mul	r3, r2, r3
 c1079d4:	e50b3010 	str	r3, [fp, #-16]
 c1079d8:	ea000002 	b	c1079e8 <sw_delay_s+0x3c>
 c1079dc:	e51b3010 	ldr	r3, [fp, #-16]
 c1079e0:	e2433001 	sub	r3, r3, #1
 c1079e4:	e50b3010 	str	r3, [fp, #-16]
 c1079e8:	e51b3010 	ldr	r3, [fp, #-16]
 c1079ec:	e3530000 	cmp	r3, #0
 c1079f0:	1afffff9 	bne	c1079dc <sw_delay_s+0x30>
}
 c1079f4:	e24bd00c 	sub	sp, fp, #12
 c1079f8:	e89d6800 	ldm	sp, {fp, sp, lr}
 c1079fc:	e12fff1e 	bx	lr
 c107a00:	0c10bd8c 	.word	0x0c10bd8c

0c107a04 <timer3_start>:

void timer3_start( void ) 
{
 c107a04:	e1a0c00d 	mov	ip, sp
 c107a08:	e92dd800 	push	{fp, ip, lr, pc}
 c107a0c:	e24cb004 	sub	fp, ip, #4
    TCFG0 = (TCFG0 & ~(0xff << 8)) | (199 << 8);    
 c107a10:	e59f3084 	ldr	r3, [pc, #132]	; c107a9c <timer3_start+0x98>
 c107a14:	e59f2080 	ldr	r2, [pc, #128]	; c107a9c <timer3_start+0x98>
 c107a18:	e5922000 	ldr	r2, [r2]
 c107a1c:	e3c22cff 	bic	r2, r2, #65280	; 0xff00
 c107a20:	e3822cc7 	orr	r2, r2, #50944	; 0xc700
 c107a24:	e5832000 	str	r2, [r3]
    TCFG1 = (TCFG1 & ~(0xf << 12)) | (4 << 12);
 c107a28:	e59f3070 	ldr	r3, [pc, #112]	; c107aa0 <timer3_start+0x9c>
 c107a2c:	e59f206c 	ldr	r2, [pc, #108]	; c107aa0 <timer3_start+0x9c>
 c107a30:	e5922000 	ldr	r2, [r2]
 c107a34:	e3c22a0f 	bic	r2, r2, #61440	; 0xf000
 c107a38:	e3822901 	orr	r2, r2, #16384	; 0x4000
 c107a3c:	e5832000 	str	r2, [r3]
    
    TCNTB3 = 0xffff; 
 c107a40:	e59f305c 	ldr	r3, [pc, #92]	; c107aa4 <timer3_start+0xa0>
 c107a44:	e59f205c 	ldr	r2, [pc, #92]	; c107aa8 <timer3_start+0xa4>
 c107a48:	e5832000 	str	r2, [r3]
    TCON = (TCON & ~(0xf << 16)) | (1 << 17);
 c107a4c:	e59f3058 	ldr	r3, [pc, #88]	; c107aac <timer3_start+0xa8>
 c107a50:	e59f2054 	ldr	r2, [pc, #84]	; c107aac <timer3_start+0xa8>
 c107a54:	e5922000 	ldr	r2, [r2]
 c107a58:	e3c2280f 	bic	r2, r2, #983040	; 0xf0000
 c107a5c:	e3822802 	orr	r2, r2, #131072	; 0x20000
 c107a60:	e5832000 	str	r2, [r3]
    TCON = (TCON & ~(0xf << 16)) | (1 << 16);
 c107a64:	e59f3040 	ldr	r3, [pc, #64]	; c107aac <timer3_start+0xa8>
 c107a68:	e59f203c 	ldr	r2, [pc, #60]	; c107aac <timer3_start+0xa8>
 c107a6c:	e5922000 	ldr	r2, [r2]
 c107a70:	e3c2280f 	bic	r2, r2, #983040	; 0xf0000
 c107a74:	e3822801 	orr	r2, r2, #65536	; 0x10000
 c107a78:	e5832000 	str	r2, [r3]
    while( !TCNTO3 );
 c107a7c:	e1a00000 	nop			; (mov r0, r0)
 c107a80:	e59f3028 	ldr	r3, [pc, #40]	; c107ab0 <timer3_start+0xac>
 c107a84:	e5933000 	ldr	r3, [r3]
 c107a88:	e3530000 	cmp	r3, #0
 c107a8c:	0afffffb 	beq	c107a80 <timer3_start+0x7c>
}
 c107a90:	e24bd00c 	sub	sp, fp, #12
 c107a94:	e89d6800 	ldm	sp, {fp, sp, lr}
 c107a98:	e12fff1e 	bx	lr
 c107a9c:	01d50000 	.word	0x01d50000
 c107aa0:	01d50004 	.word	0x01d50004
 c107aa4:	01d50030 	.word	0x01d50030
 c107aa8:	0000ffff 	.word	0x0000ffff
 c107aac:	01d50008 	.word	0x01d50008
 c107ab0:	01d50038 	.word	0x01d50038

0c107ab4 <timer3_stop>:

uint16 timer3_stop( void )
{
 c107ab4:	e1a0c00d 	mov	ip, sp
 c107ab8:	e92dd800 	push	{fp, ip, lr, pc}
 c107abc:	e24cb004 	sub	fp, ip, #4
    TCON &= ~(1 << 16);
 c107ac0:	e59f3038 	ldr	r3, [pc, #56]	; c107b00 <timer3_stop+0x4c>
 c107ac4:	e59f2034 	ldr	r2, [pc, #52]	; c107b00 <timer3_stop+0x4c>
 c107ac8:	e5922000 	ldr	r2, [r2]
 c107acc:	e3c22801 	bic	r2, r2, #65536	; 0x10000
 c107ad0:	e5832000 	str	r2, [r3]
    return 0xffff - TCNTO3;
 c107ad4:	e59f3028 	ldr	r3, [pc, #40]	; c107b04 <timer3_stop+0x50>
 c107ad8:	e5933000 	ldr	r3, [r3]
 c107adc:	e1a03803 	lsl	r3, r3, #16
 c107ae0:	e1a03823 	lsr	r3, r3, #16
 c107ae4:	e1e03003 	mvn	r3, r3
 c107ae8:	e1a03803 	lsl	r3, r3, #16
 c107aec:	e1a03823 	lsr	r3, r3, #16
}
 c107af0:	e1a00003 	mov	r0, r3
 c107af4:	e24bd00c 	sub	sp, fp, #12
 c107af8:	e89d6800 	ldm	sp, {fp, sp, lr}
 c107afc:	e12fff1e 	bx	lr
 c107b00:	01d50008 	.word	0x01d50008
 c107b04:	01d50038 	.word	0x01d50038

0c107b08 <timer3_start_timeout>:

void timer3_start_timeout( uint16 n ) 
{
 c107b08:	e1a0c00d 	mov	ip, sp
 c107b0c:	e92dd800 	push	{fp, ip, lr, pc}
 c107b10:	e24cb004 	sub	fp, ip, #4
 c107b14:	e24dd008 	sub	sp, sp, #8
 c107b18:	e1a03000 	mov	r3, r0
 c107b1c:	e14b30be 	strh	r3, [fp, #-14]
    TCFG0 = (TCFG0 & ~(0xff << 8)) | (199 << 8);          
 c107b20:	e59f3084 	ldr	r3, [pc, #132]	; c107bac <timer3_start_timeout+0xa4>
 c107b24:	e59f2080 	ldr	r2, [pc, #128]	; c107bac <timer3_start_timeout+0xa4>
 c107b28:	e5922000 	ldr	r2, [r2]
 c107b2c:	e3c22cff 	bic	r2, r2, #65280	; 0xff00
 c107b30:	e3822cc7 	orr	r2, r2, #50944	; 0xc700
 c107b34:	e5832000 	str	r2, [r3]
    TCFG1 = (TCFG1 & ~(0xf << 12)) | (4 << 12);
 c107b38:	e59f3070 	ldr	r3, [pc, #112]	; c107bb0 <timer3_start_timeout+0xa8>
 c107b3c:	e59f206c 	ldr	r2, [pc, #108]	; c107bb0 <timer3_start_timeout+0xa8>
 c107b40:	e5922000 	ldr	r2, [r2]
 c107b44:	e3c22a0f 	bic	r2, r2, #61440	; 0xf000
 c107b48:	e3822901 	orr	r2, r2, #16384	; 0x4000
 c107b4c:	e5832000 	str	r2, [r3]
    
    TCNTB3 = n; 
 c107b50:	e59f305c 	ldr	r3, [pc, #92]	; c107bb4 <timer3_start_timeout+0xac>
 c107b54:	e15b20be 	ldrh	r2, [fp, #-14]
 c107b58:	e5832000 	str	r2, [r3]
    TCON = (TCON & ~(0xf << 16)) | (1 << 17);
 c107b5c:	e59f3054 	ldr	r3, [pc, #84]	; c107bb8 <timer3_start_timeout+0xb0>
 c107b60:	e59f2050 	ldr	r2, [pc, #80]	; c107bb8 <timer3_start_timeout+0xb0>
 c107b64:	e5922000 	ldr	r2, [r2]
 c107b68:	e3c2280f 	bic	r2, r2, #983040	; 0xf0000
 c107b6c:	e3822802 	orr	r2, r2, #131072	; 0x20000
 c107b70:	e5832000 	str	r2, [r3]
    TCON = (TCON & ~(0xf << 16)) | (1 << 16);
 c107b74:	e59f303c 	ldr	r3, [pc, #60]	; c107bb8 <timer3_start_timeout+0xb0>
 c107b78:	e59f2038 	ldr	r2, [pc, #56]	; c107bb8 <timer3_start_timeout+0xb0>
 c107b7c:	e5922000 	ldr	r2, [r2]
 c107b80:	e3c2280f 	bic	r2, r2, #983040	; 0xf0000
 c107b84:	e3822801 	orr	r2, r2, #65536	; 0x10000
 c107b88:	e5832000 	str	r2, [r3]
    while( !TCNTO3 );
 c107b8c:	e1a00000 	nop			; (mov r0, r0)
 c107b90:	e59f3024 	ldr	r3, [pc, #36]	; c107bbc <timer3_start_timeout+0xb4>
 c107b94:	e5933000 	ldr	r3, [r3]
 c107b98:	e3530000 	cmp	r3, #0
 c107b9c:	0afffffb 	beq	c107b90 <timer3_start_timeout+0x88>
}
 c107ba0:	e24bd00c 	sub	sp, fp, #12
 c107ba4:	e89d6800 	ldm	sp, {fp, sp, lr}
 c107ba8:	e12fff1e 	bx	lr
 c107bac:	01d50000 	.word	0x01d50000
 c107bb0:	01d50004 	.word	0x01d50004
 c107bb4:	01d50030 	.word	0x01d50030
 c107bb8:	01d50008 	.word	0x01d50008
 c107bbc:	01d50038 	.word	0x01d50038

0c107bc0 <timer3_timeout>:

uint16 timer3_timeout( )
{
 c107bc0:	e1a0c00d 	mov	ip, sp
 c107bc4:	e92dd800 	push	{fp, ip, lr, pc}
 c107bc8:	e24cb004 	sub	fp, ip, #4
    return !TCNTO3;
 c107bcc:	e59f3024 	ldr	r3, [pc, #36]	; c107bf8 <timer3_timeout+0x38>
 c107bd0:	e5933000 	ldr	r3, [r3]
 c107bd4:	e3530000 	cmp	r3, #0
 c107bd8:	13a03000 	movne	r3, #0
 c107bdc:	03a03001 	moveq	r3, #1
 c107be0:	e1a03803 	lsl	r3, r3, #16
 c107be4:	e1a03823 	lsr	r3, r3, #16
}    
 c107be8:	e1a00003 	mov	r0, r3
 c107bec:	e24bd00c 	sub	sp, fp, #12
 c107bf0:	e89d6800 	ldm	sp, {fp, sp, lr}
 c107bf4:	e12fff1e 	bx	lr
 c107bf8:	01d50038 	.word	0x01d50038

0c107bfc <timer0_open_tick>:

void timer0_open_tick( void (*isr)(void), uint16 tps )
{
 c107bfc:	e1a0c00d 	mov	ip, sp
 c107c00:	e92dd810 	push	{r4, fp, ip, lr, pc}
 c107c04:	e24cb004 	sub	fp, ip, #4
 c107c08:	e24dd00c 	sub	sp, sp, #12
 c107c0c:	e50b0018 	str	r0, [fp, #-24]	; 0xffffffe8
 c107c10:	e1a03001 	mov	r3, r1
 c107c14:	e14b31ba 	strh	r3, [fp, #-26]	; 0xffffffe6
    pISR_TIMER0 = (uint32)isr;
 c107c18:	e59f31f4 	ldr	r3, [pc, #500]	; c107e14 <timer0_open_tick+0x218>
 c107c1c:	e51b2018 	ldr	r2, [fp, #-24]	; 0xffffffe8
 c107c20:	e5832000 	str	r2, [r3]
    I_ISPC      = ~BIT_TIMER0;
 c107c24:	e59f31ec 	ldr	r3, [pc, #492]	; c107e18 <timer0_open_tick+0x21c>
 c107c28:	e3e02a02 	mvn	r2, #8192	; 0x2000
 c107c2c:	e5832000 	str	r2, [r3]
    INTMSK     &= ~(BIT_GLOBAL | BIT_TIMER0);
 c107c30:	e59f21e4 	ldr	r2, [pc, #484]	; c107e1c <timer0_open_tick+0x220>
 c107c34:	e59f31e0 	ldr	r3, [pc, #480]	; c107e1c <timer0_open_tick+0x220>
 c107c38:	e5933000 	ldr	r3, [r3]
 c107c3c:	e3c33301 	bic	r3, r3, #67108864	; 0x4000000
 c107c40:	e3c33a02 	bic	r3, r3, #8192	; 0x2000
 c107c44:	e5823000 	str	r3, [r2]

    if( tps > 0 && tps <= 10 ) {
 c107c48:	e15b31ba 	ldrh	r3, [fp, #-26]	; 0xffffffe6
 c107c4c:	e3530000 	cmp	r3, #0
 c107c50:	0a000018 	beq	c107cb8 <timer0_open_tick+0xbc>
 c107c54:	e15b31ba 	ldrh	r3, [fp, #-26]	; 0xffffffe6
 c107c58:	e353000a 	cmp	r3, #10
 c107c5c:	8a000015 	bhi	c107cb8 <timer0_open_tick+0xbc>
        TCFG0  = (TCFG0 & ~(0xff)) | (99);
 c107c60:	e59f31b8 	ldr	r3, [pc, #440]	; c107e20 <timer0_open_tick+0x224>
 c107c64:	e59f21b4 	ldr	r2, [pc, #436]	; c107e20 <timer0_open_tick+0x224>
 c107c68:	e5922000 	ldr	r2, [r2]
 c107c6c:	e3c220ff 	bic	r2, r2, #255	; 0xff
 c107c70:	e3822063 	orr	r2, r2, #99	; 0x63
 c107c74:	e5832000 	str	r2, [r3]
        TCFG1  = (TCFG1 & ~(0xf)) | (3);
 c107c78:	e59f31a4 	ldr	r3, [pc, #420]	; c107e24 <timer0_open_tick+0x228>
 c107c7c:	e59f21a0 	ldr	r2, [pc, #416]	; c107e24 <timer0_open_tick+0x228>
 c107c80:	e5922000 	ldr	r2, [r2]
 c107c84:	e3c2200f 	bic	r2, r2, #15
 c107c88:	e3822003 	orr	r2, r2, #3
 c107c8c:	e5832000 	str	r2, [r3]
        TCNTB0 = (40000U / tps);
 c107c90:	e59f4190 	ldr	r4, [pc, #400]	; c107e28 <timer0_open_tick+0x22c>
 c107c94:	e15b31ba 	ldrh	r3, [fp, #-26]	; 0xffffffe6
 c107c98:	e59f018c 	ldr	r0, [pc, #396]	; c107e2c <timer0_open_tick+0x230>
 c107c9c:	e1a01003 	mov	r1, r3
 c107ca0:	eb0004fc 	bl	c109098 <__aeabi_uidiv>
 c107ca4:	e1a03000 	mov	r3, r0
 c107ca8:	e1a03803 	lsl	r3, r3, #16
 c107cac:	e1a03823 	lsr	r3, r3, #16
 c107cb0:	e5843000 	str	r3, [r4]
 c107cb4:	ea000047 	b	c107dd8 <timer0_open_tick+0x1dc>

    } else if( tps > 10 && tps <= 100 ) {
 c107cb8:	e15b31ba 	ldrh	r3, [fp, #-26]	; 0xffffffe6
 c107cbc:	e353000a 	cmp	r3, #10
 c107cc0:	9a000016 	bls	c107d20 <timer0_open_tick+0x124>
 c107cc4:	e15b31ba 	ldrh	r3, [fp, #-26]	; 0xffffffe6
 c107cc8:	e3530064 	cmp	r3, #100	; 0x64
 c107ccc:	8a000013 	bhi	c107d20 <timer0_open_tick+0x124>
        TCFG0  = (TCFG0 & ~(0xff)) | (9);
 c107cd0:	e59f3148 	ldr	r3, [pc, #328]	; c107e20 <timer0_open_tick+0x224>
 c107cd4:	e59f2144 	ldr	r2, [pc, #324]	; c107e20 <timer0_open_tick+0x224>
 c107cd8:	e5922000 	ldr	r2, [r2]
 c107cdc:	e3c220ff 	bic	r2, r2, #255	; 0xff
 c107ce0:	e3822009 	orr	r2, r2, #9
 c107ce4:	e5832000 	str	r2, [r3]
        TCFG1  = (TCFG1 & ~(0xf)) | (3);
 c107ce8:	e59f3134 	ldr	r3, [pc, #308]	; c107e24 <timer0_open_tick+0x228>
 c107cec:	e59f2130 	ldr	r2, [pc, #304]	; c107e24 <timer0_open_tick+0x228>
 c107cf0:	e5922000 	ldr	r2, [r2]
 c107cf4:	e3c2200f 	bic	r2, r2, #15
 c107cf8:	e3822003 	orr	r2, r2, #3
 c107cfc:	e5832000 	str	r2, [r3]
        TCNTB0 = (400000U / (uint32) tps);
 c107d00:	e59f4120 	ldr	r4, [pc, #288]	; c107e28 <timer0_open_tick+0x22c>
 c107d04:	e15b31ba 	ldrh	r3, [fp, #-26]	; 0xffffffe6
 c107d08:	e59f0120 	ldr	r0, [pc, #288]	; c107e30 <timer0_open_tick+0x234>
 c107d0c:	e1a01003 	mov	r1, r3
 c107d10:	eb0004e0 	bl	c109098 <__aeabi_uidiv>
 c107d14:	e1a03000 	mov	r3, r0
 c107d18:	e5843000 	str	r3, [r4]
 c107d1c:	ea00002d 	b	c107dd8 <timer0_open_tick+0x1dc>

    } else if( tps > 100 && tps <= 1000 ) {
 c107d20:	e15b31ba 	ldrh	r3, [fp, #-26]	; 0xffffffe6
 c107d24:	e3530064 	cmp	r3, #100	; 0x64
 c107d28:	9a000016 	bls	c107d88 <timer0_open_tick+0x18c>
 c107d2c:	e15b31ba 	ldrh	r3, [fp, #-26]	; 0xffffffe6
 c107d30:	e3530ffa 	cmp	r3, #1000	; 0x3e8
 c107d34:	8a000013 	bhi	c107d88 <timer0_open_tick+0x18c>
        TCFG0  = (TCFG0 & ~(0xff)) | (1);
 c107d38:	e59f30e0 	ldr	r3, [pc, #224]	; c107e20 <timer0_open_tick+0x224>
 c107d3c:	e59f20dc 	ldr	r2, [pc, #220]	; c107e20 <timer0_open_tick+0x224>
 c107d40:	e5922000 	ldr	r2, [r2]
 c107d44:	e3c220ff 	bic	r2, r2, #255	; 0xff
 c107d48:	e3822001 	orr	r2, r2, #1
 c107d4c:	e5832000 	str	r2, [r3]
        TCFG1  = (TCFG1 & ~(0xf)) | (2);
 c107d50:	e59f30cc 	ldr	r3, [pc, #204]	; c107e24 <timer0_open_tick+0x228>
 c107d54:	e59f20c8 	ldr	r2, [pc, #200]	; c107e24 <timer0_open_tick+0x228>
 c107d58:	e5922000 	ldr	r2, [r2]
 c107d5c:	e3c2200f 	bic	r2, r2, #15
 c107d60:	e3822002 	orr	r2, r2, #2
 c107d64:	e5832000 	str	r2, [r3]
        TCNTB0 = (4000000U / (uint32) tps);
 c107d68:	e59f40b8 	ldr	r4, [pc, #184]	; c107e28 <timer0_open_tick+0x22c>
 c107d6c:	e15b31ba 	ldrh	r3, [fp, #-26]	; 0xffffffe6
 c107d70:	e59f00bc 	ldr	r0, [pc, #188]	; c107e34 <timer0_open_tick+0x238>
 c107d74:	e1a01003 	mov	r1, r3
 c107d78:	eb0004c6 	bl	c109098 <__aeabi_uidiv>
 c107d7c:	e1a03000 	mov	r3, r0
 c107d80:	e5843000 	str	r3, [r4]
 c107d84:	ea000013 	b	c107dd8 <timer0_open_tick+0x1dc>

    } else if ( tps > 1000 ) {
 c107d88:	e15b31ba 	ldrh	r3, [fp, #-26]	; 0xffffffe6
 c107d8c:	e3530ffa 	cmp	r3, #1000	; 0x3e8
 c107d90:	9a000010 	bls	c107dd8 <timer0_open_tick+0x1dc>
        TCFG0  = (TCFG0 & ~(0xff));
 c107d94:	e59f3084 	ldr	r3, [pc, #132]	; c107e20 <timer0_open_tick+0x224>
 c107d98:	e59f2080 	ldr	r2, [pc, #128]	; c107e20 <timer0_open_tick+0x224>
 c107d9c:	e5922000 	ldr	r2, [r2]
 c107da0:	e3c220ff 	bic	r2, r2, #255	; 0xff
 c107da4:	e5832000 	str	r2, [r3]
        TCFG1  = (TCFG1 & ~(0xf));
 c107da8:	e59f3074 	ldr	r3, [pc, #116]	; c107e24 <timer0_open_tick+0x228>
 c107dac:	e59f2070 	ldr	r2, [pc, #112]	; c107e24 <timer0_open_tick+0x228>
 c107db0:	e5922000 	ldr	r2, [r2]
 c107db4:	e3c2200f 	bic	r2, r2, #15
 c107db8:	e5832000 	str	r2, [r3]
        TCNTB0 = (32000000U / (uint32) tps);
 c107dbc:	e59f4064 	ldr	r4, [pc, #100]	; c107e28 <timer0_open_tick+0x22c>
 c107dc0:	e15b31ba 	ldrh	r3, [fp, #-26]	; 0xffffffe6
 c107dc4:	e59f006c 	ldr	r0, [pc, #108]	; c107e38 <timer0_open_tick+0x23c>
 c107dc8:	e1a01003 	mov	r1, r3
 c107dcc:	eb0004b1 	bl	c109098 <__aeabi_uidiv>
 c107dd0:	e1a03000 	mov	r3, r0
 c107dd4:	e5843000 	str	r3, [r4]
    }

    TCON = (TCON & ~(0x3)) | (1<<3) | (1<<1);
 c107dd8:	e59f305c 	ldr	r3, [pc, #92]	; c107e3c <timer0_open_tick+0x240>
 c107ddc:	e59f2058 	ldr	r2, [pc, #88]	; c107e3c <timer0_open_tick+0x240>
 c107de0:	e5922000 	ldr	r2, [r2]
 c107de4:	e3c2200b 	bic	r2, r2, #11
 c107de8:	e382200a 	orr	r2, r2, #10
 c107dec:	e5832000 	str	r2, [r3]
    TCON = (TCON & ~(0x3)) | (1<<3) | (1<<0);
 c107df0:	e59f3044 	ldr	r3, [pc, #68]	; c107e3c <timer0_open_tick+0x240>
 c107df4:	e59f2040 	ldr	r2, [pc, #64]	; c107e3c <timer0_open_tick+0x240>
 c107df8:	e5922000 	ldr	r2, [r2]
 c107dfc:	e3c2200b 	bic	r2, r2, #11
 c107e00:	e3822009 	orr	r2, r2, #9
 c107e04:	e5832000 	str	r2, [r3]
}
 c107e08:	e24bd010 	sub	sp, fp, #16
 c107e0c:	e89d6810 	ldm	sp, {r4, fp, sp, lr}
 c107e10:	e12fff1e 	bx	lr
 c107e14:	0c7fff54 	.word	0x0c7fff54
 c107e18:	01e00024 	.word	0x01e00024
 c107e1c:	01e0000c 	.word	0x01e0000c
 c107e20:	01d50000 	.word	0x01d50000
 c107e24:	01d50004 	.word	0x01d50004
 c107e28:	01d5000c 	.word	0x01d5000c
 c107e2c:	00009c40 	.word	0x00009c40
 c107e30:	00061a80 	.word	0x00061a80
 c107e34:	003d0900 	.word	0x003d0900
 c107e38:	01e84800 	.word	0x01e84800
 c107e3c:	01d50008 	.word	0x01d50008

0c107e40 <timer0_open_ms>:

void timer0_open_ms( void (*isr)(void), uint16 ms, uint8 mode )
{
 c107e40:	e1a0c00d 	mov	ip, sp
 c107e44:	e92dd800 	push	{fp, ip, lr, pc}
 c107e48:	e24cb004 	sub	fp, ip, #4
 c107e4c:	e24dd008 	sub	sp, sp, #8
 c107e50:	e50b0010 	str	r0, [fp, #-16]
 c107e54:	e1a03002 	mov	r3, r2
 c107e58:	e14b11b2 	strh	r1, [fp, #-18]	; 0xffffffee
 c107e5c:	e54b3013 	strb	r3, [fp, #-19]	; 0xffffffed
	pISR_TIMER0 = (uint32)isr;
 c107e60:	e59f30c8 	ldr	r3, [pc, #200]	; c107f30 <timer0_open_ms+0xf0>
 c107e64:	e51b2010 	ldr	r2, [fp, #-16]
 c107e68:	e5832000 	str	r2, [r3]
	I_ISPC      = ~BIT_TIMER0;
 c107e6c:	e59f30c0 	ldr	r3, [pc, #192]	; c107f34 <timer0_open_ms+0xf4>
 c107e70:	e3e02a02 	mvn	r2, #8192	; 0x2000
 c107e74:	e5832000 	str	r2, [r3]
	INTMSK     &= ~(BIT_GLOBAL | BIT_TIMER0);
 c107e78:	e59f20b8 	ldr	r2, [pc, #184]	; c107f38 <timer0_open_ms+0xf8>
 c107e7c:	e59f30b4 	ldr	r3, [pc, #180]	; c107f38 <timer0_open_ms+0xf8>
 c107e80:	e5933000 	ldr	r3, [r3]
 c107e84:	e3c33301 	bic	r3, r3, #67108864	; 0x4000000
 c107e88:	e3c33a02 	bic	r3, r3, #8192	; 0x2000
 c107e8c:	e5823000 	str	r3, [r2]

    TCFG0 = (TCFG0 & ~(0xff)) | (199);
 c107e90:	e59f30a4 	ldr	r3, [pc, #164]	; c107f3c <timer0_open_ms+0xfc>
 c107e94:	e59f20a0 	ldr	r2, [pc, #160]	; c107f3c <timer0_open_ms+0xfc>
 c107e98:	e5922000 	ldr	r2, [r2]
 c107e9c:	e3c220ff 	bic	r2, r2, #255	; 0xff
 c107ea0:	e38220c7 	orr	r2, r2, #199	; 0xc7
 c107ea4:	e5832000 	str	r2, [r3]
    TCFG1 = (TCFG1 & ~(0xf)) | (4);
 c107ea8:	e59f3090 	ldr	r3, [pc, #144]	; c107f40 <timer0_open_ms+0x100>
 c107eac:	e59f208c 	ldr	r2, [pc, #140]	; c107f40 <timer0_open_ms+0x100>
 c107eb0:	e5922000 	ldr	r2, [r2]
 c107eb4:	e3c2200f 	bic	r2, r2, #15
 c107eb8:	e3822004 	orr	r2, r2, #4
 c107ebc:	e5832000 	str	r2, [r3]
    TCNTB0 = 10*ms;
 c107ec0:	e59f107c 	ldr	r1, [pc, #124]	; c107f44 <timer0_open_ms+0x104>
 c107ec4:	e15b21b2 	ldrh	r2, [fp, #-18]	; 0xffffffee
 c107ec8:	e1a03002 	mov	r3, r2
 c107ecc:	e1a03103 	lsl	r3, r3, #2
 c107ed0:	e0833002 	add	r3, r3, r2
 c107ed4:	e1a03083 	lsl	r3, r3, #1
 c107ed8:	e5813000 	str	r3, [r1]

    TCON = (TCON & ~(0xf)) | (mode<<0x3) | (1<<0x1);
 c107edc:	e59f3064 	ldr	r3, [pc, #100]	; c107f48 <timer0_open_ms+0x108>
 c107ee0:	e59f2060 	ldr	r2, [pc, #96]	; c107f48 <timer0_open_ms+0x108>
 c107ee4:	e5922000 	ldr	r2, [r2]
 c107ee8:	e3c2100f 	bic	r1, r2, #15
 c107eec:	e55b2013 	ldrb	r2, [fp, #-19]	; 0xffffffed
 c107ef0:	e1a02182 	lsl	r2, r2, #3
 c107ef4:	e1812002 	orr	r2, r1, r2
 c107ef8:	e3822002 	orr	r2, r2, #2
 c107efc:	e5832000 	str	r2, [r3]
    TCON = (TCON & ~(0Xf)) | (mode<<0x3) | (1<<0x0);
 c107f00:	e59f3040 	ldr	r3, [pc, #64]	; c107f48 <timer0_open_ms+0x108>
 c107f04:	e59f203c 	ldr	r2, [pc, #60]	; c107f48 <timer0_open_ms+0x108>
 c107f08:	e5922000 	ldr	r2, [r2]
 c107f0c:	e3c2100f 	bic	r1, r2, #15
 c107f10:	e55b2013 	ldrb	r2, [fp, #-19]	; 0xffffffed
 c107f14:	e1a02182 	lsl	r2, r2, #3
 c107f18:	e1812002 	orr	r2, r1, r2
 c107f1c:	e3822001 	orr	r2, r2, #1
 c107f20:	e5832000 	str	r2, [r3]
}
 c107f24:	e24bd00c 	sub	sp, fp, #12
 c107f28:	e89d6800 	ldm	sp, {fp, sp, lr}
 c107f2c:	e12fff1e 	bx	lr
 c107f30:	0c7fff54 	.word	0x0c7fff54
 c107f34:	01e00024 	.word	0x01e00024
 c107f38:	01e0000c 	.word	0x01e0000c
 c107f3c:	01d50000 	.word	0x01d50000
 c107f40:	01d50004 	.word	0x01d50004
 c107f44:	01d5000c 	.word	0x01d5000c
 c107f48:	01d50008 	.word	0x01d50008

0c107f4c <timer0_close>:

void timer0_close( void )
{
 c107f4c:	e1a0c00d 	mov	ip, sp
 c107f50:	e92dd800 	push	{fp, ip, lr, pc}
 c107f54:	e24cb004 	sub	fp, ip, #4
    TCNTB0 = 0;
 c107f58:	e59f3068 	ldr	r3, [pc, #104]	; c107fc8 <timer0_close+0x7c>
 c107f5c:	e3a02000 	mov	r2, #0
 c107f60:	e5832000 	str	r2, [r3]
    TCMPB0 = 0;
 c107f64:	e59f3060 	ldr	r3, [pc, #96]	; c107fcc <timer0_close+0x80>
 c107f68:	e3a02000 	mov	r2, #0
 c107f6c:	e5832000 	str	r2, [r3]

    TCON = (TCON & ~(0x3)) | (1<<1);
 c107f70:	e59f3058 	ldr	r3, [pc, #88]	; c107fd0 <timer0_close+0x84>
 c107f74:	e59f2054 	ldr	r2, [pc, #84]	; c107fd0 <timer0_close+0x84>
 c107f78:	e5922000 	ldr	r2, [r2]
 c107f7c:	e3c22003 	bic	r2, r2, #3
 c107f80:	e3822002 	orr	r2, r2, #2
 c107f84:	e5832000 	str	r2, [r3]
    TCON = (TCON & ~(0x3));
 c107f88:	e59f3040 	ldr	r3, [pc, #64]	; c107fd0 <timer0_close+0x84>
 c107f8c:	e59f203c 	ldr	r2, [pc, #60]	; c107fd0 <timer0_close+0x84>
 c107f90:	e5922000 	ldr	r2, [r2]
 c107f94:	e3c22003 	bic	r2, r2, #3
 c107f98:	e5832000 	str	r2, [r3]
    
    INTMSK     |= BIT_TIMER0;
 c107f9c:	e59f3030 	ldr	r3, [pc, #48]	; c107fd4 <timer0_close+0x88>
 c107fa0:	e59f202c 	ldr	r2, [pc, #44]	; c107fd4 <timer0_close+0x88>
 c107fa4:	e5922000 	ldr	r2, [r2]
 c107fa8:	e3822a02 	orr	r2, r2, #8192	; 0x2000
 c107fac:	e5832000 	str	r2, [r3]
    pISR_TIMER0 = isr_TIMER0_dummy;
 c107fb0:	e59f3020 	ldr	r3, [pc, #32]	; c107fd8 <timer0_close+0x8c>
 c107fb4:	e59f2020 	ldr	r2, [pc, #32]	; c107fdc <timer0_close+0x90>
 c107fb8:	e5832000 	str	r2, [r3]
}
 c107fbc:	e24bd00c 	sub	sp, fp, #12
 c107fc0:	e89d6800 	ldm	sp, {fp, sp, lr}
 c107fc4:	e12fff1e 	bx	lr
 c107fc8:	01d5000c 	.word	0x01d5000c
 c107fcc:	01d50010 	.word	0x01d50010
 c107fd0:	01d50008 	.word	0x01d50008
 c107fd4:	01e0000c 	.word	0x01e0000c
 c107fd8:	0c7fff54 	.word	0x0c7fff54
 c107fdc:	0c107118 	.word	0x0c107118

0c107fe0 <ts_init>:
static void ts_scan( uint16 *Vx, uint16 *Vy );
static void ts_calibrate( void );
static void ts_sample2coord( uint16 Vx, uint16 Vy, uint16 *x, uint16 *y );

void ts_init( void )
{
 c107fe0:	e1a0c00d 	mov	ip, sp
 c107fe4:	e92dd800 	push	{fp, ip, lr, pc}
 c107fe8:	e24cb004 	sub	fp, ip, #4
	timers_init();
 c107fec:	ebfffd75 	bl	c1075c8 <timers_init>
	lcd_init();
 c107ff0:	ebfff2b9 	bl	c104adc <lcd_init>
	adc_init();
 c107ff4:	eb00035a 	bl	c108d64 <adc_init>
	PDATE = (0xb<<4);
 c107ff8:	e59f3024 	ldr	r3, [pc, #36]	; c108024 <ts_init+0x44>
 c107ffc:	e3a020b0 	mov	r2, #176	; 0xb0
 c108000:	e5832000 	str	r2, [r3]
	sw_delay_ms( 1 );
 c108004:	e3a00001 	mov	r0, #1
 c108008:	ebfffe16 	bl	c107868 <sw_delay_ms>
	ts_on();
 c10800c:	eb000005 	bl	c108028 <ts_on>
	ts_calibrate();
 c108010:	eb000033 	bl	c1080e4 <ts_calibrate>
	ts_off();
 c108014:	eb00000e 	bl	c108054 <ts_off>
}
 c108018:	e24bd00c 	sub	sp, fp, #12
 c10801c:	e89d6800 	ldm	sp, {fp, sp, lr}
 c108020:	e12fff1e 	bx	lr
 c108024:	01d2002c 	.word	0x01d2002c

0c108028 <ts_on>:

void ts_on( void )
{
 c108028:	e1a0c00d 	mov	ip, sp
 c10802c:	e92dd800 	push	{fp, ip, lr, pc}
 c108030:	e24cb004 	sub	fp, ip, #4
    adc_on();
 c108034:	eb000355 	bl	c108d90 <adc_on>
    state=ON;
 c108038:	e59f3010 	ldr	r3, [pc, #16]	; c108050 <ts_on+0x28>
 c10803c:	e3a02001 	mov	r2, #1
 c108040:	e5c32000 	strb	r2, [r3]
}
 c108044:	e24bd00c 	sub	sp, fp, #12
 c108048:	e89d6800 	ldm	sp, {fp, sp, lr}
 c10804c:	e12fff1e 	bx	lr
 c108050:	0c10bd98 	.word	0x0c10bd98

0c108054 <ts_off>:

void ts_off( void )
{
 c108054:	e1a0c00d 	mov	ip, sp
 c108058:	e92dd800 	push	{fp, ip, lr, pc}
 c10805c:	e24cb004 	sub	fp, ip, #4
    adc_off();
 c108060:	eb00035b 	bl	c108dd4 <adc_off>
    state=OFF;
 c108064:	e59f3010 	ldr	r3, [pc, #16]	; c10807c <ts_off+0x28>
 c108068:	e3a02000 	mov	r2, #0
 c10806c:	e5c32000 	strb	r2, [r3]
}
 c108070:	e24bd00c 	sub	sp, fp, #12
 c108074:	e89d6800 	ldm	sp, {fp, sp, lr}
 c108078:	e12fff1e 	bx	lr
 c10807c:	0c10bd98 	.word	0x0c10bd98

0c108080 <ts_status>:

uint8 ts_status( void )
{
 c108080:	e1a0c00d 	mov	ip, sp
 c108084:	e92dd800 	push	{fp, ip, lr, pc}
 c108088:	e24cb004 	sub	fp, ip, #4
    return state;
 c10808c:	e59f3010 	ldr	r3, [pc, #16]	; c1080a4 <ts_status+0x24>
 c108090:	e5d33000 	ldrb	r3, [r3]
}
 c108094:	e1a00003 	mov	r0, r3
 c108098:	e24bd00c 	sub	sp, fp, #12
 c10809c:	e89d6800 	ldm	sp, {fp, sp, lr}
 c1080a0:	e12fff1e 	bx	lr
 c1080a4:	0c10bd98 	.word	0x0c10bd98

0c1080a8 <ts_pressed>:

uint8 ts_pressed( void )
{
 c1080a8:	e1a0c00d 	mov	ip, sp
 c1080ac:	e92dd800 	push	{fp, ip, lr, pc}
 c1080b0:	e24cb004 	sub	fp, ip, #4
    return !(PDATG & (1<<2));
 c1080b4:	e59f3024 	ldr	r3, [pc, #36]	; c1080e0 <ts_pressed+0x38>
 c1080b8:	e5933000 	ldr	r3, [r3]
 c1080bc:	e2033004 	and	r3, r3, #4
 c1080c0:	e3530000 	cmp	r3, #0
 c1080c4:	13a03000 	movne	r3, #0
 c1080c8:	03a03001 	moveq	r3, #1
 c1080cc:	e20330ff 	and	r3, r3, #255	; 0xff
}
 c1080d0:	e1a00003 	mov	r0, r3
 c1080d4:	e24bd00c 	sub	sp, fp, #12
 c1080d8:	e89d6800 	ldm	sp, {fp, sp, lr}
 c1080dc:	e12fff1e 	bx	lr
 c1080e0:	01d20044 	.word	0x01d20044

0c1080e4 <ts_calibrate>:

static void ts_calibrate( void )
{
 c1080e4:	e1a0c00d 	mov	ip, sp
 c1080e8:	e92dd800 	push	{fp, ip, lr, pc}
 c1080ec:	e24cb004 	sub	fp, ip, #4
 c1080f0:	e24dd010 	sub	sp, sp, #16
	uint16 x, y;
	lcd_on();
 c1080f4:	ebfff2d9 	bl	c104c60 <lcd_on>
	do {
		lcd_clear();
 c1080f8:	ebfff300 	bl	c104d00 <lcd_clear>
		lcd_puts_x2(70,10,15, "CALIBRACION");
 c1080fc:	e3a00046 	mov	r0, #70	; 0x46
 c108100:	e3a0100a 	mov	r1, #10
 c108104:	e3a0200f 	mov	r2, #15
 c108108:	e59f3194 	ldr	r3, [pc, #404]	; c1082a4 <ts_calibrate+0x1c0>
 c10810c:	ebfff547 	bl	c105630 <lcd_puts_x2>
		sw_delay_ms(1000);
 c108110:	e3a00ffa 	mov	r0, #1000	; 0x3e8
 c108114:	ebfffdd3 	bl	c107868 <sw_delay_ms>
		lcd_clear();
 c108118:	ebfff2f8 	bl	c104d00 <lcd_clear>
		lcd_puts_x2(85,10,15, "PRESIONA");
 c10811c:	e3a00055 	mov	r0, #85	; 0x55
 c108120:	e3a0100a 	mov	r1, #10
 c108124:	e3a0200f 	mov	r2, #15
 c108128:	e59f3178 	ldr	r3, [pc, #376]	; c1082a8 <ts_calibrate+0x1c4>
 c10812c:	ebfff53f 	bl	c105630 <lcd_puts_x2>
		lcd_draw_box(0,0,5,5,15,4);
 c108130:	e3a0300f 	mov	r3, #15
 c108134:	e58d3000 	str	r3, [sp]
 c108138:	e3a03004 	mov	r3, #4
 c10813c:	e58d3004 	str	r3, [sp, #4]
 c108140:	e3a00000 	mov	r0, #0
 c108144:	e3a01000 	mov	r1, #0
 c108148:	e3a02005 	mov	r2, #5
 c10814c:	e3a03005 	mov	r3, #5
 c108150:	ebfff3b7 	bl	c105034 <lcd_draw_box>
		while( !ts_pressed() );
 c108154:	e1a00000 	nop			; (mov r0, r0)
 c108158:	ebffffd2 	bl	c1080a8 <ts_pressed>
 c10815c:	e1a03000 	mov	r3, r0
 c108160:	e3530000 	cmp	r3, #0
 c108164:	0afffffb 	beq	c108158 <ts_calibrate+0x74>
		sw_delay_ms( TS_DOWN_DELAY );
 c108168:	e3a0001e 	mov	r0, #30
 c10816c:	ebfffdbd 	bl	c107868 <sw_delay_ms>
		ts_scan( &Vxmin, &Vymax );
 c108170:	e59f0134 	ldr	r0, [pc, #308]	; c1082ac <ts_calibrate+0x1c8>
 c108174:	e59f1134 	ldr	r1, [pc, #308]	; c1082b0 <ts_calibrate+0x1cc>
 c108178:	eb0000e8 	bl	c108520 <ts_scan>
		while( ts_pressed());
 c10817c:	e1a00000 	nop			; (mov r0, r0)
 c108180:	ebffffc8 	bl	c1080a8 <ts_pressed>
 c108184:	e1a03000 	mov	r3, r0
 c108188:	e3530000 	cmp	r3, #0
 c10818c:	1afffffb 	bne	c108180 <ts_calibrate+0x9c>
		sw_delay_ms( TS_UP_DELAY );
 c108190:	e3a00064 	mov	r0, #100	; 0x64
 c108194:	ebfffdb3 	bl	c107868 <sw_delay_ms>
		lcd_clear();
 c108198:	ebfff2d8 	bl	c104d00 <lcd_clear>
		lcd_puts_x2(85,10,15, "PRESIONA");
 c10819c:	e3a00055 	mov	r0, #85	; 0x55
 c1081a0:	e3a0100a 	mov	r1, #10
 c1081a4:	e3a0200f 	mov	r2, #15
 c1081a8:	e59f30f8 	ldr	r3, [pc, #248]	; c1082a8 <ts_calibrate+0x1c4>
 c1081ac:	ebfff51f 	bl	c105630 <lcd_puts_x2>
		lcd_draw_box(314,234,319,239,15,4);
 c1081b0:	e3a0300f 	mov	r3, #15
 c1081b4:	e58d3000 	str	r3, [sp]
 c1081b8:	e3a03004 	mov	r3, #4
 c1081bc:	e58d3004 	str	r3, [sp, #4]
 c1081c0:	e59f00ec 	ldr	r0, [pc, #236]	; c1082b4 <ts_calibrate+0x1d0>
 c1081c4:	e3a010ea 	mov	r1, #234	; 0xea
 c1081c8:	e59f20e8 	ldr	r2, [pc, #232]	; c1082b8 <ts_calibrate+0x1d4>
 c1081cc:	e3a030ef 	mov	r3, #239	; 0xef
 c1081d0:	ebfff397 	bl	c105034 <lcd_draw_box>

		while( !ts_pressed() );
 c1081d4:	e1a00000 	nop			; (mov r0, r0)
 c1081d8:	ebffffb2 	bl	c1080a8 <ts_pressed>
 c1081dc:	e1a03000 	mov	r3, r0
 c1081e0:	e3530000 	cmp	r3, #0
 c1081e4:	0afffffb 	beq	c1081d8 <ts_calibrate+0xf4>
		sw_delay_ms( TS_DOWN_DELAY );
 c1081e8:	e3a0001e 	mov	r0, #30
 c1081ec:	ebfffd9d 	bl	c107868 <sw_delay_ms>
		ts_scan( &Vxmax, &Vymin );
 c1081f0:	e59f00c4 	ldr	r0, [pc, #196]	; c1082bc <ts_calibrate+0x1d8>
 c1081f4:	e59f10c4 	ldr	r1, [pc, #196]	; c1082c0 <ts_calibrate+0x1dc>
 c1081f8:	eb0000c8 	bl	c108520 <ts_scan>
		while( ts_pressed() );
 c1081fc:	e1a00000 	nop			; (mov r0, r0)
 c108200:	ebffffa8 	bl	c1080a8 <ts_pressed>
 c108204:	e1a03000 	mov	r3, r0
 c108208:	e3530000 	cmp	r3, #0
 c10820c:	1afffffb 	bne	c108200 <ts_calibrate+0x11c>
		sw_delay_ms( TS_UP_DELAY );
 c108210:	e3a00064 	mov	r0, #100	; 0x64
 c108214:	ebfffd93 	bl	c107868 <sw_delay_ms>
		lcd_puts_x2(85,10,15, "PRESIONA");
 c108218:	e3a00055 	mov	r0, #85	; 0x55
 c10821c:	e3a0100a 	mov	r1, #10
 c108220:	e3a0200f 	mov	r2, #15
 c108224:	e59f307c 	ldr	r3, [pc, #124]	; c1082a8 <ts_calibrate+0x1c4>
 c108228:	ebfff500 	bl	c105630 <lcd_puts_x2>
		lcd_draw_box(160,120,165,125,15,4);
 c10822c:	e3a0300f 	mov	r3, #15
 c108230:	e58d3000 	str	r3, [sp]
 c108234:	e3a03004 	mov	r3, #4
 c108238:	e58d3004 	str	r3, [sp, #4]
 c10823c:	e3a000a0 	mov	r0, #160	; 0xa0
 c108240:	e3a01078 	mov	r1, #120	; 0x78
 c108244:	e3a020a5 	mov	r2, #165	; 0xa5
 c108248:	e3a0307d 	mov	r3, #125	; 0x7d
 c10824c:	ebfff378 	bl	c105034 <lcd_draw_box>
		ts_getpos( &x, &y );
 c108250:	e24b200e 	sub	r2, fp, #14
 c108254:	e24b3010 	sub	r3, fp, #16
 c108258:	e1a00002 	mov	r0, r2
 c10825c:	e1a01003 	mov	r1, r3
 c108260:	eb000017 	bl	c1082c4 <ts_getpos>
    } while( (x > LCD_WIDTH/2+PX_ERROR) || (x < LCD_WIDTH/2-PX_ERROR) || (y > LCD_HEIGHT/2+PX_ERROR) || (y < LCD_HEIGHT/2-PX_ERROR) );
 c108264:	e15b30be 	ldrh	r3, [fp, #-14]
 c108268:	e35300a5 	cmp	r3, #165	; 0xa5
 c10826c:	8affffa1 	bhi	c1080f8 <ts_calibrate+0x14>
 c108270:	e15b30be 	ldrh	r3, [fp, #-14]
 c108274:	e353009a 	cmp	r3, #154	; 0x9a
 c108278:	9affff9e 	bls	c1080f8 <ts_calibrate+0x14>
 c10827c:	e15b31b0 	ldrh	r3, [fp, #-16]
 c108280:	e353007d 	cmp	r3, #125	; 0x7d
 c108284:	8affff9b 	bhi	c1080f8 <ts_calibrate+0x14>
 c108288:	e15b31b0 	ldrh	r3, [fp, #-16]
 c10828c:	e3530072 	cmp	r3, #114	; 0x72
 c108290:	9affff98 	bls	c1080f8 <ts_calibrate+0x14>
    lcd_clear();
 c108294:	ebfff299 	bl	c104d00 <lcd_clear>
}
 c108298:	e24bd00c 	sub	sp, fp, #12
 c10829c:	e89d6800 	ldm	sp, {fp, sp, lr}
 c1082a0:	e12fff1e 	bx	lr
 c1082a4:	0c10a940 	.word	0x0c10a940
 c1082a8:	0c10a94c 	.word	0x0c10a94c
 c1082ac:	0c10bd90 	.word	0x0c10bd90
 c1082b0:	0c10bd96 	.word	0x0c10bd96
 c1082b4:	0000013a 	.word	0x0000013a
 c1082b8:	0000013f 	.word	0x0000013f
 c1082bc:	0c10bd92 	.word	0x0c10bd92
 c1082c0:	0c10bd94 	.word	0x0c10bd94

0c1082c4 <ts_getpos>:

void ts_getpos( uint16 *x, uint16 *y )
{
 c1082c4:	e1a0c00d 	mov	ip, sp
 c1082c8:	e92dd800 	push	{fp, ip, lr, pc}
 c1082cc:	e24cb004 	sub	fp, ip, #4
 c1082d0:	e24dd010 	sub	sp, sp, #16
 c1082d4:	e50b0018 	str	r0, [fp, #-24]	; 0xffffffe8
 c1082d8:	e50b101c 	str	r1, [fp, #-28]	; 0xffffffe4
	uint16 Vx, Vy;
	    while( !ts_pressed() );
 c1082dc:	e1a00000 	nop			; (mov r0, r0)
 c1082e0:	ebffff70 	bl	c1080a8 <ts_pressed>
 c1082e4:	e1a03000 	mov	r3, r0
 c1082e8:	e3530000 	cmp	r3, #0
 c1082ec:	0afffffb 	beq	c1082e0 <ts_getpos+0x1c>
	    sw_delay_ms( TS_DOWN_DELAY );
 c1082f0:	e3a0001e 	mov	r0, #30
 c1082f4:	ebfffd5b 	bl	c107868 <sw_delay_ms>

	    ts_scan(&Vx, &Vy);
 c1082f8:	e24b200e 	sub	r2, fp, #14
 c1082fc:	e24b3010 	sub	r3, fp, #16
 c108300:	e1a00002 	mov	r0, r2
 c108304:	e1a01003 	mov	r1, r3
 c108308:	eb000084 	bl	c108520 <ts_scan>
	    ts_sample2coord(Vx,Vy,x,y);
 c10830c:	e15b20be 	ldrh	r2, [fp, #-14]
 c108310:	e15b31b0 	ldrh	r3, [fp, #-16]
 c108314:	e1a00002 	mov	r0, r2
 c108318:	e1a01003 	mov	r1, r3
 c10831c:	e51b2018 	ldr	r2, [fp, #-24]	; 0xffffffe8
 c108320:	e51b301c 	ldr	r3, [fp, #-28]	; 0xffffffe4
 c108324:	eb00009e 	bl	c1085a4 <ts_sample2coord>

	    while ( ts_pressed() );
 c108328:	e1a00000 	nop			; (mov r0, r0)
 c10832c:	ebffff5d 	bl	c1080a8 <ts_pressed>
 c108330:	e1a03000 	mov	r3, r0
 c108334:	e3530000 	cmp	r3, #0
 c108338:	1afffffb 	bne	c10832c <ts_getpos+0x68>
	    sw_delay_ms( TS_UP_DELAY );
 c10833c:	e3a00064 	mov	r0, #100	; 0x64
 c108340:	ebfffd48 	bl	c107868 <sw_delay_ms>
}
 c108344:	e24bd00c 	sub	sp, fp, #12
 c108348:	e89d6800 	ldm	sp, {fp, sp, lr}
 c10834c:	e12fff1e 	bx	lr

0c108350 <ts_getpostime>:

void ts_getpostime( uint16 *x, uint16 *y, uint16 *ms )
{
 c108350:	e1a0c00d 	mov	ip, sp
 c108354:	e92dd800 	push	{fp, ip, lr, pc}
 c108358:	e24cb004 	sub	fp, ip, #4
 c10835c:	e24dd018 	sub	sp, sp, #24
 c108360:	e50b0018 	str	r0, [fp, #-24]	; 0xffffffe8
 c108364:	e50b101c 	str	r1, [fp, #-28]	; 0xffffffe4
 c108368:	e50b2020 	str	r2, [fp, #-32]	; 0xffffffe0
	 while( !ts_pressed() );
 c10836c:	e1a00000 	nop			; (mov r0, r0)
 c108370:	ebffff4c 	bl	c1080a8 <ts_pressed>
 c108374:	e1a03000 	mov	r3, r0
 c108378:	e3530000 	cmp	r3, #0
 c10837c:	0afffffb 	beq	c108370 <ts_getpostime+0x20>
	    timer3_start();
 c108380:	ebfffd9f 	bl	c107a04 <timer3_start>
	    sw_delay_ms( TS_DOWN_DELAY );
 c108384:	e3a0001e 	mov	r0, #30
 c108388:	ebfffd36 	bl	c107868 <sw_delay_ms>

	    uint16 Vx, Vy;
	    ts_scan(&Vx, &Vy);
 c10838c:	e24b200e 	sub	r2, fp, #14
 c108390:	e24b3010 	sub	r3, fp, #16
 c108394:	e1a00002 	mov	r0, r2
 c108398:	e1a01003 	mov	r1, r3
 c10839c:	eb00005f 	bl	c108520 <ts_scan>
	    ts_sample2coord(Vx,Vy,x,y);
 c1083a0:	e15b20be 	ldrh	r2, [fp, #-14]
 c1083a4:	e15b31b0 	ldrh	r3, [fp, #-16]
 c1083a8:	e1a00002 	mov	r0, r2
 c1083ac:	e1a01003 	mov	r1, r3
 c1083b0:	e51b2018 	ldr	r2, [fp, #-24]	; 0xffffffe8
 c1083b4:	e51b301c 	ldr	r3, [fp, #-28]	; 0xffffffe4
 c1083b8:	eb000079 	bl	c1085a4 <ts_sample2coord>

	    while ( ts_pressed() );
 c1083bc:	e1a00000 	nop			; (mov r0, r0)
 c1083c0:	ebffff38 	bl	c1080a8 <ts_pressed>
 c1083c4:	e1a03000 	mov	r3, r0
 c1083c8:	e3530000 	cmp	r3, #0
 c1083cc:	1afffffb 	bne	c1083c0 <ts_getpostime+0x70>
		*ms=timer3_stop()/10;
 c1083d0:	ebfffdb7 	bl	c107ab4 <timer3_stop>
 c1083d4:	e1a03000 	mov	r3, r0
 c1083d8:	e1a02003 	mov	r2, r3
 c1083dc:	e59f3028 	ldr	r3, [pc, #40]	; c10840c <ts_getpostime+0xbc>
 c1083e0:	e0831392 	umull	r1, r3, r2, r3
 c1083e4:	e1a031a3 	lsr	r3, r3, #3
 c1083e8:	e1a03803 	lsl	r3, r3, #16
 c1083ec:	e1a02823 	lsr	r2, r3, #16
 c1083f0:	e51b3020 	ldr	r3, [fp, #-32]	; 0xffffffe0
 c1083f4:	e1c320b0 	strh	r2, [r3]
	    sw_delay_ms( TS_UP_DELAY );
 c1083f8:	e3a00064 	mov	r0, #100	; 0x64
 c1083fc:	ebfffd19 	bl	c107868 <sw_delay_ms>
}
 c108400:	e24bd00c 	sub	sp, fp, #12
 c108404:	e89d6800 	ldm	sp, {fp, sp, lr}
 c108408:	e12fff1e 	bx	lr
 c10840c:	cccccccd 	.word	0xcccccccd

0c108410 <ts_timeout_getpos>:

uint8 ts_timeout_getpos( uint16 *x, uint16 *y, uint16 ms )
{
 c108410:	e1a0c00d 	mov	ip, sp
 c108414:	e92dd800 	push	{fp, ip, lr, pc}
 c108418:	e24cb004 	sub	fp, ip, #4
 c10841c:	e24dd018 	sub	sp, sp, #24
 c108420:	e50b0018 	str	r0, [fp, #-24]	; 0xffffffe8
 c108424:	e50b101c 	str	r1, [fp, #-28]	; 0xffffffe4
 c108428:	e1a03002 	mov	r3, r2
 c10842c:	e14b31be 	strh	r3, [fp, #-30]	; 0xffffffe2
	timer3_start_timeout(ms*10);
 c108430:	e15b31be 	ldrh	r3, [fp, #-30]	; 0xffffffe2
 c108434:	e1a02003 	mov	r2, r3
 c108438:	e1a02102 	lsl	r2, r2, #2
 c10843c:	e0823003 	add	r3, r2, r3
 c108440:	e1a03083 	lsl	r3, r3, #1
 c108444:	e1a03803 	lsl	r3, r3, #16
 c108448:	e1a03823 	lsr	r3, r3, #16
 c10844c:	e1a00003 	mov	r0, r3
 c108450:	ebfffdac 	bl	c107b08 <timer3_start_timeout>

		while( !ts_pressed() && !timer3_timeout() );
 c108454:	e1a00000 	nop			; (mov r0, r0)
 c108458:	ebffff12 	bl	c1080a8 <ts_pressed>
 c10845c:	e1a03000 	mov	r3, r0
 c108460:	e3530000 	cmp	r3, #0
 c108464:	1a000003 	bne	c108478 <ts_timeout_getpos+0x68>
 c108468:	ebfffdd4 	bl	c107bc0 <timer3_timeout>
 c10846c:	e1a03000 	mov	r3, r0
 c108470:	e3530000 	cmp	r3, #0
 c108474:	0afffff7 	beq	c108458 <ts_timeout_getpos+0x48>
		if (timer3_timeout( )) return TS_TIMEOUT;
 c108478:	ebfffdd0 	bl	c107bc0 <timer3_timeout>
 c10847c:	e1a03000 	mov	r3, r0
 c108480:	e3530000 	cmp	r3, #0
 c108484:	0a000001 	beq	c108490 <ts_timeout_getpos+0x80>
 c108488:	e3a030fe 	mov	r3, #254	; 0xfe
 c10848c:	ea00001f 	b	c108510 <ts_timeout_getpos+0x100>
		sw_delay_ms( TS_DOWN_DELAY );
 c108490:	e3a0001e 	mov	r0, #30
 c108494:	ebfffcf3 	bl	c107868 <sw_delay_ms>

	    uint16 Vx, Vy;
	    ts_scan(&Vx, &Vy);
 c108498:	e24b200e 	sub	r2, fp, #14
 c10849c:	e24b3010 	sub	r3, fp, #16
 c1084a0:	e1a00002 	mov	r0, r2
 c1084a4:	e1a01003 	mov	r1, r3
 c1084a8:	eb00001c 	bl	c108520 <ts_scan>
	    ts_sample2coord(Vx,Vy,x,y);
 c1084ac:	e15b20be 	ldrh	r2, [fp, #-14]
 c1084b0:	e15b31b0 	ldrh	r3, [fp, #-16]
 c1084b4:	e1a00002 	mov	r0, r2
 c1084b8:	e1a01003 	mov	r1, r3
 c1084bc:	e51b2018 	ldr	r2, [fp, #-24]	; 0xffffffe8
 c1084c0:	e51b301c 	ldr	r3, [fp, #-28]	; 0xffffffe4
 c1084c4:	eb000036 	bl	c1085a4 <ts_sample2coord>

		while ( ts_pressed() && !timer3_timeout() );
 c1084c8:	e1a00000 	nop			; (mov r0, r0)
 c1084cc:	ebfffef5 	bl	c1080a8 <ts_pressed>
 c1084d0:	e1a03000 	mov	r3, r0
 c1084d4:	e3530000 	cmp	r3, #0
 c1084d8:	0a000003 	beq	c1084ec <ts_timeout_getpos+0xdc>
 c1084dc:	ebfffdb7 	bl	c107bc0 <timer3_timeout>
 c1084e0:	e1a03000 	mov	r3, r0
 c1084e4:	e3530000 	cmp	r3, #0
 c1084e8:	0afffff7 	beq	c1084cc <ts_timeout_getpos+0xbc>
		if (timer3_timeout( )) return TS_TIMEOUT;
 c1084ec:	ebfffdb3 	bl	c107bc0 <timer3_timeout>
 c1084f0:	e1a03000 	mov	r3, r0
 c1084f4:	e3530000 	cmp	r3, #0
 c1084f8:	0a000001 	beq	c108504 <ts_timeout_getpos+0xf4>
 c1084fc:	e3a030fe 	mov	r3, #254	; 0xfe
 c108500:	ea000002 	b	c108510 <ts_timeout_getpos+0x100>
		sw_delay_ms( TS_UP_DELAY );
 c108504:	e3a00064 	mov	r0, #100	; 0x64
 c108508:	ebfffcd6 	bl	c107868 <sw_delay_ms>
 c10850c:	eaffffff 	b	c108510 <ts_timeout_getpos+0x100>
}
 c108510:	e1a00003 	mov	r0, r3
 c108514:	e24bd00c 	sub	sp, fp, #12
 c108518:	e89d6800 	ldm	sp, {fp, sp, lr}
 c10851c:	e12fff1e 	bx	lr

0c108520 <ts_scan>:

static void ts_scan( uint16 *Vx, uint16 *Vy )
{
 c108520:	e1a0c00d 	mov	ip, sp
 c108524:	e92dd800 	push	{fp, ip, lr, pc}
 c108528:	e24cb004 	sub	fp, ip, #4
 c10852c:	e24dd008 	sub	sp, sp, #8
 c108530:	e50b0010 	str	r0, [fp, #-16]
 c108534:	e50b1014 	str	r1, [fp, #-20]	; 0xffffffec
	PDATE = (0x6<<4);
 c108538:	e59f3060 	ldr	r3, [pc, #96]	; c1085a0 <ts_scan+0x80>
 c10853c:	e3a02060 	mov	r2, #96	; 0x60
 c108540:	e5832000 	str	r2, [r3]
	*Vx = adc_getSample( ADC_AIN1 );
 c108544:	e3a00001 	mov	r0, #1
 c108548:	eb00023a 	bl	c108e38 <adc_getSample>
 c10854c:	e1a03000 	mov	r3, r0
 c108550:	e1a02003 	mov	r2, r3
 c108554:	e51b3010 	ldr	r3, [fp, #-16]
 c108558:	e1c320b0 	strh	r2, [r3]

	PDATE = (0x9<<4);
 c10855c:	e59f303c 	ldr	r3, [pc, #60]	; c1085a0 <ts_scan+0x80>
 c108560:	e3a02090 	mov	r2, #144	; 0x90
 c108564:	e5832000 	str	r2, [r3]
	*Vy = adc_getSample( ADC_AIN0 );
 c108568:	e3a00000 	mov	r0, #0
 c10856c:	eb000231 	bl	c108e38 <adc_getSample>
 c108570:	e1a03000 	mov	r3, r0
 c108574:	e1a02003 	mov	r2, r3
 c108578:	e51b3014 	ldr	r3, [fp, #-20]	; 0xffffffec
 c10857c:	e1c320b0 	strh	r2, [r3]

	PDATE = (0xb<<4);
 c108580:	e59f3018 	ldr	r3, [pc, #24]	; c1085a0 <ts_scan+0x80>
 c108584:	e3a020b0 	mov	r2, #176	; 0xb0
 c108588:	e5832000 	str	r2, [r3]
	sw_delay_ms( 1 );
 c10858c:	e3a00001 	mov	r0, #1
 c108590:	ebfffcb4 	bl	c107868 <sw_delay_ms>
}
 c108594:	e24bd00c 	sub	sp, fp, #12
 c108598:	e89d6800 	ldm	sp, {fp, sp, lr}
 c10859c:	e12fff1e 	bx	lr
 c1085a0:	01d2002c 	.word	0x01d2002c

0c1085a4 <ts_sample2coord>:

static void ts_sample2coord( uint16 Vx, uint16 Vy, uint16 *x, uint16 *y )
{
 c1085a4:	e1a0c00d 	mov	ip, sp
 c1085a8:	e92dd800 	push	{fp, ip, lr, pc}
 c1085ac:	e24cb004 	sub	fp, ip, #4
 c1085b0:	e24dd010 	sub	sp, sp, #16
 c1085b4:	e50b2014 	str	r2, [fp, #-20]	; 0xffffffec
 c1085b8:	e50b3018 	str	r3, [fp, #-24]	; 0xffffffe8
 c1085bc:	e14b00be 	strh	r0, [fp, #-14]
 c1085c0:	e14b11b0 	strh	r1, [fp, #-16]
	if( Vx < Vxmin )
 c1085c4:	e59f3158 	ldr	r3, [pc, #344]	; c108724 <ts_sample2coord+0x180>
 c1085c8:	e1d330b0 	ldrh	r3, [r3]
 c1085cc:	e15b20be 	ldrh	r2, [fp, #-14]
 c1085d0:	e1520003 	cmp	r2, r3
 c1085d4:	2a000003 	bcs	c1085e8 <ts_sample2coord+0x44>
	        *x = 0;
 c1085d8:	e51b3014 	ldr	r3, [fp, #-20]	; 0xffffffec
 c1085dc:	e3a02000 	mov	r2, #0
 c1085e0:	e1c320b0 	strh	r2, [r3]
 c1085e4:	ea00001f 	b	c108668 <ts_sample2coord+0xc4>
	    else if( Vx > Vxmax )
 c1085e8:	e59f3138 	ldr	r3, [pc, #312]	; c108728 <ts_sample2coord+0x184>
 c1085ec:	e1d330b0 	ldrh	r3, [r3]
 c1085f0:	e15b20be 	ldrh	r2, [fp, #-14]
 c1085f4:	e1520003 	cmp	r2, r3
 c1085f8:	9a000003 	bls	c10860c <ts_sample2coord+0x68>
	        *x = LCD_WIDTH-1;
 c1085fc:	e51b3014 	ldr	r3, [fp, #-20]	; 0xffffffec
 c108600:	e59f2124 	ldr	r2, [pc, #292]	; c10872c <ts_sample2coord+0x188>
 c108604:	e1c320b0 	strh	r2, [r3]
 c108608:	ea000016 	b	c108668 <ts_sample2coord+0xc4>
	    else
	        *x = LCD_WIDTH*(Vx-Vxmin) / (Vxmax-Vxmin);
 c10860c:	e15b20be 	ldrh	r2, [fp, #-14]
 c108610:	e59f310c 	ldr	r3, [pc, #268]	; c108724 <ts_sample2coord+0x180>
 c108614:	e1d330b0 	ldrh	r3, [r3]
 c108618:	e0632002 	rsb	r2, r3, r2
 c10861c:	e1a03002 	mov	r3, r2
 c108620:	e1a03103 	lsl	r3, r3, #2
 c108624:	e0833002 	add	r3, r3, r2
 c108628:	e1a03303 	lsl	r3, r3, #6
 c10862c:	e1a02003 	mov	r2, r3
 c108630:	e59f30f0 	ldr	r3, [pc, #240]	; c108728 <ts_sample2coord+0x184>
 c108634:	e1d330b0 	ldrh	r3, [r3]
 c108638:	e1a01003 	mov	r1, r3
 c10863c:	e59f30e0 	ldr	r3, [pc, #224]	; c108724 <ts_sample2coord+0x180>
 c108640:	e1d330b0 	ldrh	r3, [r3]
 c108644:	e0633001 	rsb	r3, r3, r1
 c108648:	e1a00002 	mov	r0, r2
 c10864c:	e1a01003 	mov	r1, r3
 c108650:	eb0002d5 	bl	c1091ac <__aeabi_idiv>
 c108654:	e1a03000 	mov	r3, r0
 c108658:	e1a03803 	lsl	r3, r3, #16
 c10865c:	e1a02823 	lsr	r2, r3, #16
 c108660:	e51b3014 	ldr	r3, [fp, #-20]	; 0xffffffec
 c108664:	e1c320b0 	strh	r2, [r3]

	    if( Vy < Vymin )
 c108668:	e59f30c0 	ldr	r3, [pc, #192]	; c108730 <ts_sample2coord+0x18c>
 c10866c:	e1d330b0 	ldrh	r3, [r3]
 c108670:	e15b21b0 	ldrh	r2, [fp, #-16]
 c108674:	e1520003 	cmp	r2, r3
 c108678:	2a000003 	bcs	c10868c <ts_sample2coord+0xe8>
	         *y = 0;
 c10867c:	e51b3018 	ldr	r3, [fp, #-24]	; 0xffffffe8
 c108680:	e3a02000 	mov	r2, #0
 c108684:	e1c320b0 	strh	r2, [r3]
 c108688:	ea000022 	b	c108718 <ts_sample2coord+0x174>
		else if( Vy > Vymax )
 c10868c:	e59f30a0 	ldr	r3, [pc, #160]	; c108734 <ts_sample2coord+0x190>
 c108690:	e1d330b0 	ldrh	r3, [r3]
 c108694:	e15b21b0 	ldrh	r2, [fp, #-16]
 c108698:	e1520003 	cmp	r2, r3
 c10869c:	9a000003 	bls	c1086b0 <ts_sample2coord+0x10c>
			*y = LCD_HEIGHT-1;
 c1086a0:	e51b3018 	ldr	r3, [fp, #-24]	; 0xffffffe8
 c1086a4:	e3a020ef 	mov	r2, #239	; 0xef
 c1086a8:	e1c320b0 	strh	r2, [r3]
 c1086ac:	ea000019 	b	c108718 <ts_sample2coord+0x174>
		else
	        *y = LCD_HEIGHT-(LCD_HEIGHT*(Vy-Vymin) / (Vymax-Vymin));
 c1086b0:	e15b21b0 	ldrh	r2, [fp, #-16]
 c1086b4:	e59f3074 	ldr	r3, [pc, #116]	; c108730 <ts_sample2coord+0x18c>
 c1086b8:	e1d330b0 	ldrh	r3, [r3]
 c1086bc:	e0632002 	rsb	r2, r3, r2
 c1086c0:	e1a03002 	mov	r3, r2
 c1086c4:	e1a03203 	lsl	r3, r3, #4
 c1086c8:	e0623003 	rsb	r3, r2, r3
 c1086cc:	e1a03203 	lsl	r3, r3, #4
 c1086d0:	e1a02003 	mov	r2, r3
 c1086d4:	e59f3058 	ldr	r3, [pc, #88]	; c108734 <ts_sample2coord+0x190>
 c1086d8:	e1d330b0 	ldrh	r3, [r3]
 c1086dc:	e1a01003 	mov	r1, r3
 c1086e0:	e59f3048 	ldr	r3, [pc, #72]	; c108730 <ts_sample2coord+0x18c>
 c1086e4:	e1d330b0 	ldrh	r3, [r3]
 c1086e8:	e0633001 	rsb	r3, r3, r1
 c1086ec:	e1a00002 	mov	r0, r2
 c1086f0:	e1a01003 	mov	r1, r3
 c1086f4:	eb0002ac 	bl	c1091ac <__aeabi_idiv>
 c1086f8:	e1a03000 	mov	r3, r0
 c1086fc:	e1a03803 	lsl	r3, r3, #16
 c108700:	e1a03823 	lsr	r3, r3, #16
 c108704:	e26330f0 	rsb	r3, r3, #240	; 0xf0
 c108708:	e1a03803 	lsl	r3, r3, #16
 c10870c:	e1a02823 	lsr	r2, r3, #16
 c108710:	e51b3018 	ldr	r3, [fp, #-24]	; 0xffffffe8
 c108714:	e1c320b0 	strh	r2, [r3]
}
 c108718:	e24bd00c 	sub	sp, fp, #12
 c10871c:	e89d6800 	ldm	sp, {fp, sp, lr}
 c108720:	e12fff1e 	bx	lr
 c108724:	0c10bd90 	.word	0x0c10bd90
 c108728:	0c10bd92 	.word	0x0c10bd92
 c10872c:	0000013f 	.word	0x0000013f
 c108730:	0c10bd94 	.word	0x0c10bd94
 c108734:	0c10bd96 	.word	0x0c10bd96

0c108738 <ts_open>:

void ts_open( void (*isr)(void) )
{
 c108738:	e1a0c00d 	mov	ip, sp
 c10873c:	e92dd800 	push	{fp, ip, lr, pc}
 c108740:	e24cb004 	sub	fp, ip, #4
 c108744:	e24dd008 	sub	sp, sp, #8
 c108748:	e50b0010 	str	r0, [fp, #-16]
	pISR_TS  = isr;
 c10874c:	e59f3030 	ldr	r3, [pc, #48]	; c108784 <ts_open+0x4c>
 c108750:	e51b2010 	ldr	r2, [fp, #-16]
 c108754:	e5832000 	str	r2, [r3]
	I_ISPC	 = BIT_TS;
 c108758:	e59f3028 	ldr	r3, [pc, #40]	; c108788 <ts_open+0x50>
 c10875c:	e3a02502 	mov	r2, #8388608	; 0x800000
 c108760:	e5832000 	str	r2, [r3]
	INTMSK	&= ~(BIT_GLOBAL|BIT_TS);
 c108764:	e59f3020 	ldr	r3, [pc, #32]	; c10878c <ts_open+0x54>
 c108768:	e59f201c 	ldr	r2, [pc, #28]	; c10878c <ts_open+0x54>
 c10876c:	e5922000 	ldr	r2, [r2]
 c108770:	e3c22512 	bic	r2, r2, #75497472	; 0x4800000
 c108774:	e5832000 	str	r2, [r3]
}
 c108778:	e24bd00c 	sub	sp, fp, #12
 c10877c:	e89d6800 	ldm	sp, {fp, sp, lr}
 c108780:	e12fff1e 	bx	lr
 c108784:	0c7fff7c 	.word	0x0c7fff7c
 c108788:	01e00024 	.word	0x01e00024
 c10878c:	01e0000c 	.word	0x01e0000c

0c108790 <ts_close>:

void ts_close( void )
{
 c108790:	e1a0c00d 	mov	ip, sp
 c108794:	e92dd800 	push	{fp, ip, lr, pc}
 c108798:	e24cb004 	sub	fp, ip, #4
	INTMSK	|= BIT_TS;
 c10879c:	e59f3024 	ldr	r3, [pc, #36]	; c1087c8 <ts_close+0x38>
 c1087a0:	e59f2020 	ldr	r2, [pc, #32]	; c1087c8 <ts_close+0x38>
 c1087a4:	e5922000 	ldr	r2, [r2]
 c1087a8:	e3822502 	orr	r2, r2, #8388608	; 0x800000
 c1087ac:	e5832000 	str	r2, [r3]
	pISR_TS = isr_TS_dummy;
 c1087b0:	e59f3014 	ldr	r3, [pc, #20]	; c1087cc <ts_close+0x3c>
 c1087b4:	e59f2014 	ldr	r2, [pc, #20]	; c1087d0 <ts_close+0x40>
 c1087b8:	e5832000 	str	r2, [r3]
}
 c1087bc:	e24bd00c 	sub	sp, fp, #12
 c1087c0:	e89d6800 	ldm	sp, {fp, sp, lr}
 c1087c4:	e12fff1e 	bx	lr
 c1087c8:	01e0000c 	.word	0x01e0000c
 c1087cc:	0c7fff7c 	.word	0x0c7fff7c
 c1087d0:	0c1072d0 	.word	0x0c1072d0

0c1087d4 <uart0_init>:
#include <s3c44b0x.h>
#include <uart.h>

void uart0_init( void )
{
 c1087d4:	e1a0c00d 	mov	ip, sp
 c1087d8:	e92dd800 	push	{fp, ip, lr, pc}
 c1087dc:	e24cb004 	sub	fp, ip, #4
    UFCON0 = 0x1;
 c1087e0:	e59f3040 	ldr	r3, [pc, #64]	; c108828 <uart0_init+0x54>
 c1087e4:	e3a02001 	mov	r2, #1
 c1087e8:	e5832000 	str	r2, [r3]
    UMCON0 = 0x0;
 c1087ec:	e59f3038 	ldr	r3, [pc, #56]	; c10882c <uart0_init+0x58>
 c1087f0:	e3a02000 	mov	r2, #0
 c1087f4:	e5832000 	str	r2, [r3]
    ULCON0 = 0x3;
 c1087f8:	e3a0361d 	mov	r3, #30408704	; 0x1d00000
 c1087fc:	e3a02003 	mov	r2, #3
 c108800:	e5832000 	str	r2, [r3]
    UBRDIV0 = 34;
 c108804:	e59f3024 	ldr	r3, [pc, #36]	; c108830 <uart0_init+0x5c>
 c108808:	e3a02022 	mov	r2, #34	; 0x22
 c10880c:	e5832000 	str	r2, [r3]
    UCON0 = 0x5;
 c108810:	e59f301c 	ldr	r3, [pc, #28]	; c108834 <uart0_init+0x60>
 c108814:	e3a02005 	mov	r2, #5
 c108818:	e5832000 	str	r2, [r3]
}
 c10881c:	e24bd00c 	sub	sp, fp, #12
 c108820:	e89d6800 	ldm	sp, {fp, sp, lr}
 c108824:	e12fff1e 	bx	lr
 c108828:	01d00008 	.word	0x01d00008
 c10882c:	01d0000c 	.word	0x01d0000c
 c108830:	01d00028 	.word	0x01d00028
 c108834:	01d00004 	.word	0x01d00004

0c108838 <uart0_putchar>:

void uart0_putchar( char ch )
{
 c108838:	e1a0c00d 	mov	ip, sp
 c10883c:	e92dd800 	push	{fp, ip, lr, pc}
 c108840:	e24cb004 	sub	fp, ip, #4
 c108844:	e24dd008 	sub	sp, sp, #8
 c108848:	e1a03000 	mov	r3, r0
 c10884c:	e54b300d 	strb	r3, [fp, #-13]
    while( (UFSTAT0 & (1<<9)));
 c108850:	e1a00000 	nop			; (mov r0, r0)
 c108854:	e59f3024 	ldr	r3, [pc, #36]	; c108880 <uart0_putchar+0x48>
 c108858:	e5933000 	ldr	r3, [r3]
 c10885c:	e2033c02 	and	r3, r3, #512	; 0x200
 c108860:	e3530000 	cmp	r3, #0
 c108864:	1afffffa 	bne	c108854 <uart0_putchar+0x1c>
    UTXH0 = ch;
 c108868:	e59f3014 	ldr	r3, [pc, #20]	; c108884 <uart0_putchar+0x4c>
 c10886c:	e55b200d 	ldrb	r2, [fp, #-13]
 c108870:	e5832000 	str	r2, [r3]
}
 c108874:	e24bd00c 	sub	sp, fp, #12
 c108878:	e89d6800 	ldm	sp, {fp, sp, lr}
 c10887c:	e12fff1e 	bx	lr
 c108880:	01d00018 	.word	0x01d00018
 c108884:	01d00020 	.word	0x01d00020

0c108888 <uart0_getchar>:

char uart0_getchar( void )
{
 c108888:	e1a0c00d 	mov	ip, sp
 c10888c:	e92dd800 	push	{fp, ip, lr, pc}
 c108890:	e24cb004 	sub	fp, ip, #4
    while( ((UFSTAT0 & 0xF) )==0) ; // QUE PONEMOS AQUI????? ¿CÓMO SABEMOS QUE VALE 0?
 c108894:	e1a00000 	nop			; (mov r0, r0)
 c108898:	e59f3028 	ldr	r3, [pc, #40]	; c1088c8 <uart0_getchar+0x40>
 c10889c:	e5933000 	ldr	r3, [r3]
 c1088a0:	e203300f 	and	r3, r3, #15
 c1088a4:	e3530000 	cmp	r3, #0
 c1088a8:	0afffffa 	beq	c108898 <uart0_getchar+0x10>
    return URXH0;
 c1088ac:	e59f3018 	ldr	r3, [pc, #24]	; c1088cc <uart0_getchar+0x44>
 c1088b0:	e5933000 	ldr	r3, [r3]
 c1088b4:	e20330ff 	and	r3, r3, #255	; 0xff
}
 c1088b8:	e1a00003 	mov	r0, r3
 c1088bc:	e24bd00c 	sub	sp, fp, #12
 c1088c0:	e89d6800 	ldm	sp, {fp, sp, lr}
 c1088c4:	e12fff1e 	bx	lr
 c1088c8:	01d00018 	.word	0x01d00018
 c1088cc:	01d00024 	.word	0x01d00024

0c1088d0 <uart0_puts>:

void uart0_puts( char *s )
{
 c1088d0:	e1a0c00d 	mov	ip, sp
 c1088d4:	e92dd800 	push	{fp, ip, lr, pc}
 c1088d8:	e24cb004 	sub	fp, ip, #4
 c1088dc:	e24dd008 	sub	sp, sp, #8
 c1088e0:	e50b0010 	str	r0, [fp, #-16]
    while(*s != '\0'){
 c1088e4:	ea000006 	b	c108904 <uart0_puts+0x34>
    	uart0_putchar(*s++);
 c1088e8:	e51b3010 	ldr	r3, [fp, #-16]
 c1088ec:	e5d33000 	ldrb	r3, [r3]
 c1088f0:	e51b2010 	ldr	r2, [fp, #-16]
 c1088f4:	e2822001 	add	r2, r2, #1
 c1088f8:	e50b2010 	str	r2, [fp, #-16]
 c1088fc:	e1a00003 	mov	r0, r3
 c108900:	ebffffcc 	bl	c108838 <uart0_putchar>
    return URXH0;
}

void uart0_puts( char *s )
{
    while(*s != '\0'){
 c108904:	e51b3010 	ldr	r3, [fp, #-16]
 c108908:	e5d33000 	ldrb	r3, [r3]
 c10890c:	e3530000 	cmp	r3, #0
 c108910:	1afffff4 	bne	c1088e8 <uart0_puts+0x18>
    	uart0_putchar(*s++);

    }
}
 c108914:	e24bd00c 	sub	sp, fp, #12
 c108918:	e89d6800 	ldm	sp, {fp, sp, lr}
 c10891c:	e12fff1e 	bx	lr

0c108920 <uart0_putint>:

void uart0_putint( int32 i )
{
 c108920:	e1a0c00d 	mov	ip, sp
 c108924:	e92dd800 	push	{fp, ip, lr, pc}
 c108928:	e24cb004 	sub	fp, ip, #4
 c10892c:	e24dd020 	sub	sp, sp, #32
 c108930:	e50b0028 	str	r0, [fp, #-40]	; 0xffffffd8
	 char buf[11 +1];  // ESTO ESTA BIEN?
	 char *p = buf + 12;
 c108934:	e24b3020 	sub	r3, fp, #32
 c108938:	e283300c 	add	r3, r3, #12
 c10893c:	e50b3010 	str	r3, [fp, #-16]
	 boolean negativo=FALSE;
 c108940:	e3a03000 	mov	r3, #0
 c108944:	e54b3011 	strb	r3, [fp, #-17]	; 0xffffffef
	 int8 c;
	 *p = '\0';
 c108948:	e51b3010 	ldr	r3, [fp, #-16]
 c10894c:	e3a02000 	mov	r2, #0
 c108950:	e5c32000 	strb	r2, [r3]

	 if (i<0){
 c108954:	e51b3028 	ldr	r3, [fp, #-40]	; 0xffffffd8
 c108958:	e3530000 	cmp	r3, #0
 c10895c:	aa000004 	bge	c108974 <uart0_putint+0x54>

		 i*= -1;
 c108960:	e51b3028 	ldr	r3, [fp, #-40]	; 0xffffffd8
 c108964:	e2633000 	rsb	r3, r3, #0
 c108968:	e50b3028 	str	r3, [fp, #-40]	; 0xffffffd8
		 negativo= TRUE;
 c10896c:	e3a03001 	mov	r3, #1
 c108970:	e54b3011 	strb	r3, [fp, #-17]	; 0xffffffef
	 }

	 do {

		 c=i%10;
 c108974:	e51b1028 	ldr	r1, [fp, #-40]	; 0xffffffd8
 c108978:	e59f30a8 	ldr	r3, [pc, #168]	; c108a28 <uart0_putint+0x108>
 c10897c:	e0c32391 	smull	r2, r3, r1, r3
 c108980:	e1a02143 	asr	r2, r3, #2
 c108984:	e1a03fc1 	asr	r3, r1, #31
 c108988:	e0632002 	rsb	r2, r3, r2
 c10898c:	e1a03002 	mov	r3, r2
 c108990:	e1a03103 	lsl	r3, r3, #2
 c108994:	e0833002 	add	r3, r3, r2
 c108998:	e1a03083 	lsl	r3, r3, #1
 c10899c:	e0632001 	rsb	r2, r3, r1
 c1089a0:	e1a03002 	mov	r3, r2
 c1089a4:	e54b3012 	strb	r3, [fp, #-18]	; 0xffffffee
		 *--p = '0'+ c;
 c1089a8:	e51b3010 	ldr	r3, [fp, #-16]
 c1089ac:	e2433001 	sub	r3, r3, #1
 c1089b0:	e50b3010 	str	r3, [fp, #-16]
 c1089b4:	e55b3012 	ldrb	r3, [fp, #-18]	; 0xffffffee
 c1089b8:	e2833030 	add	r3, r3, #48	; 0x30
 c1089bc:	e20320ff 	and	r2, r3, #255	; 0xff
 c1089c0:	e51b3010 	ldr	r3, [fp, #-16]
 c1089c4:	e5c32000 	strb	r2, [r3]
		 i/=10;
 c1089c8:	e51b3028 	ldr	r3, [fp, #-40]	; 0xffffffd8
 c1089cc:	e59f2054 	ldr	r2, [pc, #84]	; c108a28 <uart0_putint+0x108>
 c1089d0:	e0c21293 	smull	r1, r2, r3, r2
 c1089d4:	e1a02142 	asr	r2, r2, #2
 c1089d8:	e1a03fc3 	asr	r3, r3, #31
 c1089dc:	e0633002 	rsb	r3, r3, r2
 c1089e0:	e50b3028 	str	r3, [fp, #-40]	; 0xffffffd8
	 } while(i);
 c1089e4:	e51b3028 	ldr	r3, [fp, #-40]	; 0xffffffd8
 c1089e8:	e3530000 	cmp	r3, #0
 c1089ec:	1affffe0 	bne	c108974 <uart0_putint+0x54>

	 if (negativo)
 c1089f0:	e55b3011 	ldrb	r3, [fp, #-17]	; 0xffffffef
 c1089f4:	e3530000 	cmp	r3, #0
 c1089f8:	0a000005 	beq	c108a14 <uart0_putint+0xf4>
	 {
		*--p= '-';
 c1089fc:	e51b3010 	ldr	r3, [fp, #-16]
 c108a00:	e2433001 	sub	r3, r3, #1
 c108a04:	e50b3010 	str	r3, [fp, #-16]
 c108a08:	e51b3010 	ldr	r3, [fp, #-16]
 c108a0c:	e3a0202d 	mov	r2, #45	; 0x2d
 c108a10:	e5c32000 	strb	r2, [r3]
	 }
	 uart0_puts (p);
 c108a14:	e51b0010 	ldr	r0, [fp, #-16]
 c108a18:	ebffffac 	bl	c1088d0 <uart0_puts>


}
 c108a1c:	e24bd00c 	sub	sp, fp, #12
 c108a20:	e89d6800 	ldm	sp, {fp, sp, lr}
 c108a24:	e12fff1e 	bx	lr
 c108a28:	66666667 	.word	0x66666667

0c108a2c <uart0_puthex>:

void uart0_puthex( uint32 i )
{
 c108a2c:	e1a0c00d 	mov	ip, sp
 c108a30:	e92dd800 	push	{fp, ip, lr, pc}
 c108a34:	e24cb004 	sub	fp, ip, #4
 c108a38:	e24dd018 	sub	sp, sp, #24
 c108a3c:	e50b0020 	str	r0, [fp, #-32]	; 0xffffffe0
    char buf[8 + 1];
    char *p = buf + 8;
 c108a40:	e24b301c 	sub	r3, fp, #28
 c108a44:	e2833008 	add	r3, r3, #8
 c108a48:	e50b3010 	str	r3, [fp, #-16]
    uint8 c;

    *p = '\0';
 c108a4c:	e51b3010 	ldr	r3, [fp, #-16]
 c108a50:	e3a02000 	mov	r2, #0
 c108a54:	e5c32000 	strb	r2, [r3]

    do {
        c = i & 0xf;
 c108a58:	e51b3020 	ldr	r3, [fp, #-32]	; 0xffffffe0
 c108a5c:	e20330ff 	and	r3, r3, #255	; 0xff
 c108a60:	e203300f 	and	r3, r3, #15
 c108a64:	e54b3011 	strb	r3, [fp, #-17]	; 0xffffffef
        if( c < 10 )
 c108a68:	e55b3011 	ldrb	r3, [fp, #-17]	; 0xffffffef
 c108a6c:	e3530009 	cmp	r3, #9
 c108a70:	8a000008 	bhi	c108a98 <uart0_puthex+0x6c>
            *--p = '0' + c;
 c108a74:	e51b3010 	ldr	r3, [fp, #-16]
 c108a78:	e2433001 	sub	r3, r3, #1
 c108a7c:	e50b3010 	str	r3, [fp, #-16]
 c108a80:	e55b3011 	ldrb	r3, [fp, #-17]	; 0xffffffef
 c108a84:	e2833030 	add	r3, r3, #48	; 0x30
 c108a88:	e20320ff 	and	r2, r3, #255	; 0xff
 c108a8c:	e51b3010 	ldr	r3, [fp, #-16]
 c108a90:	e5c32000 	strb	r2, [r3]
 c108a94:	ea000007 	b	c108ab8 <uart0_puthex+0x8c>
        else
            *--p = 'a' + c - 10;
 c108a98:	e51b3010 	ldr	r3, [fp, #-16]
 c108a9c:	e2433001 	sub	r3, r3, #1
 c108aa0:	e50b3010 	str	r3, [fp, #-16]
 c108aa4:	e55b3011 	ldrb	r3, [fp, #-17]	; 0xffffffef
 c108aa8:	e2833057 	add	r3, r3, #87	; 0x57
 c108aac:	e20320ff 	and	r2, r3, #255	; 0xff
 c108ab0:	e51b3010 	ldr	r3, [fp, #-16]
 c108ab4:	e5c32000 	strb	r2, [r3]
        i = i >> 4;
 c108ab8:	e51b3020 	ldr	r3, [fp, #-32]	; 0xffffffe0
 c108abc:	e1a03223 	lsr	r3, r3, #4
 c108ac0:	e50b3020 	str	r3, [fp, #-32]	; 0xffffffe0
    } while( i );
 c108ac4:	e51b3020 	ldr	r3, [fp, #-32]	; 0xffffffe0
 c108ac8:	e3530000 	cmp	r3, #0
 c108acc:	1affffe1 	bne	c108a58 <uart0_puthex+0x2c>

    uart0_puts( p );
 c108ad0:	e51b0010 	ldr	r0, [fp, #-16]
 c108ad4:	ebffff7d 	bl	c1088d0 <uart0_puts>
}
 c108ad8:	e24bd00c 	sub	sp, fp, #12
 c108adc:	e89d6800 	ldm	sp, {fp, sp, lr}
 c108ae0:	e12fff1e 	bx	lr

0c108ae4 <uart0_gets>:

void uart0_gets( char *s )
{
 c108ae4:	e1a0c00d 	mov	ip, sp
 c108ae8:	e92dd800 	push	{fp, ip, lr, pc}
 c108aec:	e24cb004 	sub	fp, ip, #4
 c108af0:	e24dd010 	sub	sp, sp, #16
 c108af4:	e50b0018 	str	r0, [fp, #-24]	; 0xffffffe8
    char cadena=uart0_getchar();
 c108af8:	ebffff62 	bl	c108888 <uart0_getchar>
 c108afc:	e1a03000 	mov	r3, r0
 c108b00:	e54b300d 	strb	r3, [fp, #-13]
    while (cadena != '\n')
 c108b04:	ea000008 	b	c108b2c <uart0_gets+0x48>
    {
    	*s++ = cadena;
 c108b08:	e51b3018 	ldr	r3, [fp, #-24]	; 0xffffffe8
 c108b0c:	e55b200d 	ldrb	r2, [fp, #-13]
 c108b10:	e5c32000 	strb	r2, [r3]
 c108b14:	e51b3018 	ldr	r3, [fp, #-24]	; 0xffffffe8
 c108b18:	e2833001 	add	r3, r3, #1
 c108b1c:	e50b3018 	str	r3, [fp, #-24]	; 0xffffffe8
    	cadena = uart0_getchar();
 c108b20:	ebffff58 	bl	c108888 <uart0_getchar>
 c108b24:	e1a03000 	mov	r3, r0
 c108b28:	e54b300d 	strb	r3, [fp, #-13]
}

void uart0_gets( char *s )
{
    char cadena=uart0_getchar();
    while (cadena != '\n')
 c108b2c:	e55b300d 	ldrb	r3, [fp, #-13]
 c108b30:	e353000a 	cmp	r3, #10
 c108b34:	1afffff3 	bne	c108b08 <uart0_gets+0x24>
    	*s++ = cadena;
    	cadena = uart0_getchar();

    }

    *s= '\0';
 c108b38:	e51b3018 	ldr	r3, [fp, #-24]	; 0xffffffe8
 c108b3c:	e3a02000 	mov	r2, #0
 c108b40:	e5c32000 	strb	r2, [r3]
}
 c108b44:	e24bd00c 	sub	sp, fp, #12
 c108b48:	e89d6800 	ldm	sp, {fp, sp, lr}
 c108b4c:	e12fff1e 	bx	lr

0c108b50 <uart0_getint>:

int32 uart0_getint( void )
{
 c108b50:	e1a0c00d 	mov	ip, sp
 c108b54:	e92dd800 	push	{fp, ip, lr, pc}
 c108b58:	e24cb004 	sub	fp, ip, #4
 c108b5c:	e24dde11 	sub	sp, sp, #272	; 0x110
   int32 resultado=0;
 c108b60:	e3a03000 	mov	r3, #0
 c108b64:	e50b3010 	str	r3, [fp, #-16]
   char cadena [256], *p;
   uart0_gets(cadena);
 c108b68:	e24b3f46 	sub	r3, fp, #280	; 0x118
 c108b6c:	e1a00003 	mov	r0, r3
 c108b70:	ebffffdb 	bl	c108ae4 <uart0_gets>
   boolean negativo=FALSE;
 c108b74:	e3a03000 	mov	r3, #0
 c108b78:	e54b3015 	strb	r3, [fp, #-21]	; 0xffffffeb
   p= cadena;
 c108b7c:	e24b3f46 	sub	r3, fp, #280	; 0x118
 c108b80:	e50b3014 	str	r3, [fp, #-20]	; 0xffffffec


	   if(*p =='-'){
 c108b84:	e51b3014 	ldr	r3, [fp, #-20]	; 0xffffffec
 c108b88:	e5d33000 	ldrb	r3, [r3]
 c108b8c:	e353002d 	cmp	r3, #45	; 0x2d
 c108b90:	1a000013 	bne	c108be4 <uart0_getint+0x94>
		negativo = TRUE;
 c108b94:	e3a03001 	mov	r3, #1
 c108b98:	e54b3015 	strb	r3, [fp, #-21]	; 0xffffffeb
		p++;
 c108b9c:	e51b3014 	ldr	r3, [fp, #-20]	; 0xffffffec
 c108ba0:	e2833001 	add	r3, r3, #1
 c108ba4:	e50b3014 	str	r3, [fp, #-20]	; 0xffffffec
	   }
	   while (*p != '\0'){
 c108ba8:	ea00000e 	b	c108be8 <uart0_getint+0x98>
		   resultado = (*(p++)-'0')+ resultado*10;
 c108bac:	e51b3014 	ldr	r3, [fp, #-20]	; 0xffffffec
 c108bb0:	e5d33000 	ldrb	r3, [r3]
 c108bb4:	e2431030 	sub	r1, r3, #48	; 0x30
 c108bb8:	e51b2010 	ldr	r2, [fp, #-16]
 c108bbc:	e1a03002 	mov	r3, r2
 c108bc0:	e1a03103 	lsl	r3, r3, #2
 c108bc4:	e0833002 	add	r3, r3, r2
 c108bc8:	e1a03083 	lsl	r3, r3, #1
 c108bcc:	e0813003 	add	r3, r1, r3
 c108bd0:	e50b3010 	str	r3, [fp, #-16]
 c108bd4:	e51b3014 	ldr	r3, [fp, #-20]	; 0xffffffec
 c108bd8:	e2833001 	add	r3, r3, #1
 c108bdc:	e50b3014 	str	r3, [fp, #-20]	; 0xffffffec
 c108be0:	ea000000 	b	c108be8 <uart0_getint+0x98>

	   if(*p =='-'){
		negativo = TRUE;
		p++;
	   }
	   while (*p != '\0'){
 c108be4:	e1a00000 	nop			; (mov r0, r0)
 c108be8:	e51b3014 	ldr	r3, [fp, #-20]	; 0xffffffec
 c108bec:	e5d33000 	ldrb	r3, [r3]
 c108bf0:	e3530000 	cmp	r3, #0
 c108bf4:	1affffec 	bne	c108bac <uart0_getint+0x5c>
		   resultado = (*(p++)-'0')+ resultado*10;


   }
   if(negativo)
 c108bf8:	e55b3015 	ldrb	r3, [fp, #-21]	; 0xffffffeb
 c108bfc:	e3530000 	cmp	r3, #0
 c108c00:	0a000002 	beq	c108c10 <uart0_getint+0xc0>
	 resultado *= -1;
 c108c04:	e51b3010 	ldr	r3, [fp, #-16]
 c108c08:	e2633000 	rsb	r3, r3, #0
 c108c0c:	e50b3010 	str	r3, [fp, #-16]
   return resultado;
 c108c10:	e51b3010 	ldr	r3, [fp, #-16]
}
 c108c14:	e1a00003 	mov	r0, r3
 c108c18:	e24bd00c 	sub	sp, fp, #12
 c108c1c:	e89d6800 	ldm	sp, {fp, sp, lr}
 c108c20:	e12fff1e 	bx	lr

0c108c24 <uart0_gethex>:

uint32 uart0_gethex( void )
{
 c108c24:	e1a0c00d 	mov	ip, sp
 c108c28:	e92dd800 	push	{fp, ip, lr, pc}
 c108c2c:	e24cb004 	sub	fp, ip, #4
 c108c30:	e24ddf42 	sub	sp, sp, #264	; 0x108
	uint32 resultadohex=0;
 c108c34:	e3a03000 	mov	r3, #0
 c108c38:	e50b3010 	str	r3, [fp, #-16]
	char cadena [256], *p;
	uart0_gets(cadena);
 c108c3c:	e24b3f45 	sub	r3, fp, #276	; 0x114
 c108c40:	e1a00003 	mov	r0, r3
 c108c44:	ebffffa6 	bl	c108ae4 <uart0_gets>
	p=cadena;
 c108c48:	e24b3f45 	sub	r3, fp, #276	; 0x114
 c108c4c:	e50b3014 	str	r3, [fp, #-20]	; 0xffffffec
	while(*p!= '\0'){
 c108c50:	ea00003a 	b	c108d40 <uart0_gethex+0x11c>
		if (*p >= '0' && *p <= '9')
 c108c54:	e51b3014 	ldr	r3, [fp, #-20]	; 0xffffffec
 c108c58:	e5d33000 	ldrb	r3, [r3]
 c108c5c:	e353002f 	cmp	r3, #47	; 0x2f
 c108c60:	9a00000f 	bls	c108ca4 <uart0_gethex+0x80>
 c108c64:	e51b3014 	ldr	r3, [fp, #-20]	; 0xffffffec
 c108c68:	e5d33000 	ldrb	r3, [r3]
 c108c6c:	e3530039 	cmp	r3, #57	; 0x39
 c108c70:	8a00000b 	bhi	c108ca4 <uart0_gethex+0x80>
			resultadohex = (*(p++)-'0')+ resultadohex*16;
 c108c74:	e51b3014 	ldr	r3, [fp, #-20]	; 0xffffffec
 c108c78:	e5d33000 	ldrb	r3, [r3]
 c108c7c:	e1a02003 	mov	r2, r3
 c108c80:	e51b3010 	ldr	r3, [fp, #-16]
 c108c84:	e1a03203 	lsl	r3, r3, #4
 c108c88:	e0823003 	add	r3, r2, r3
 c108c8c:	e2433030 	sub	r3, r3, #48	; 0x30
 c108c90:	e50b3010 	str	r3, [fp, #-16]
 c108c94:	e51b3014 	ldr	r3, [fp, #-20]	; 0xffffffec
 c108c98:	e2833001 	add	r3, r3, #1
 c108c9c:	e50b3014 	str	r3, [fp, #-20]	; 0xffffffec
 c108ca0:	ea000026 	b	c108d40 <uart0_gethex+0x11c>
		else if(*p >= 'A' && *p <= 'F')
 c108ca4:	e51b3014 	ldr	r3, [fp, #-20]	; 0xffffffec
 c108ca8:	e5d33000 	ldrb	r3, [r3]
 c108cac:	e3530040 	cmp	r3, #64	; 0x40
 c108cb0:	9a00000f 	bls	c108cf4 <uart0_gethex+0xd0>
 c108cb4:	e51b3014 	ldr	r3, [fp, #-20]	; 0xffffffec
 c108cb8:	e5d33000 	ldrb	r3, [r3]
 c108cbc:	e3530046 	cmp	r3, #70	; 0x46
 c108cc0:	8a00000b 	bhi	c108cf4 <uart0_gethex+0xd0>
			resultadohex = ((*(p++)-'A')+ 10)+ resultadohex*16;
 c108cc4:	e51b3014 	ldr	r3, [fp, #-20]	; 0xffffffec
 c108cc8:	e5d33000 	ldrb	r3, [r3]
 c108ccc:	e1a02003 	mov	r2, r3
 c108cd0:	e51b3010 	ldr	r3, [fp, #-16]
 c108cd4:	e1a03203 	lsl	r3, r3, #4
 c108cd8:	e0823003 	add	r3, r2, r3
 c108cdc:	e2433037 	sub	r3, r3, #55	; 0x37
 c108ce0:	e50b3010 	str	r3, [fp, #-16]
 c108ce4:	e51b3014 	ldr	r3, [fp, #-20]	; 0xffffffec
 c108ce8:	e2833001 	add	r3, r3, #1
 c108cec:	e50b3014 	str	r3, [fp, #-20]	; 0xffffffec
 c108cf0:	ea000012 	b	c108d40 <uart0_gethex+0x11c>
		else if (*p >= 'a' && *p <= 'f')
 c108cf4:	e51b3014 	ldr	r3, [fp, #-20]	; 0xffffffec
 c108cf8:	e5d33000 	ldrb	r3, [r3]
 c108cfc:	e3530060 	cmp	r3, #96	; 0x60
 c108d00:	9a00000e 	bls	c108d40 <uart0_gethex+0x11c>
 c108d04:	e51b3014 	ldr	r3, [fp, #-20]	; 0xffffffec
 c108d08:	e5d33000 	ldrb	r3, [r3]
 c108d0c:	e3530066 	cmp	r3, #102	; 0x66
 c108d10:	8a00000a 	bhi	c108d40 <uart0_gethex+0x11c>
			resultadohex = ((*(p++)-'a')+ 10)+ resultadohex*16;
 c108d14:	e51b3014 	ldr	r3, [fp, #-20]	; 0xffffffec
 c108d18:	e5d33000 	ldrb	r3, [r3]
 c108d1c:	e1a02003 	mov	r2, r3
 c108d20:	e51b3010 	ldr	r3, [fp, #-16]
 c108d24:	e1a03203 	lsl	r3, r3, #4
 c108d28:	e0823003 	add	r3, r2, r3
 c108d2c:	e2433057 	sub	r3, r3, #87	; 0x57
 c108d30:	e50b3010 	str	r3, [fp, #-16]
 c108d34:	e51b3014 	ldr	r3, [fp, #-20]	; 0xffffffec
 c108d38:	e2833001 	add	r3, r3, #1
 c108d3c:	e50b3014 	str	r3, [fp, #-20]	; 0xffffffec
{
	uint32 resultadohex=0;
	char cadena [256], *p;
	uart0_gets(cadena);
	p=cadena;
	while(*p!= '\0'){
 c108d40:	e51b3014 	ldr	r3, [fp, #-20]	; 0xffffffec
 c108d44:	e5d33000 	ldrb	r3, [r3]
 c108d48:	e3530000 	cmp	r3, #0
 c108d4c:	1affffc0 	bne	c108c54 <uart0_gethex+0x30>
		else if (*p >= 'a' && *p <= 'f')
			resultadohex = ((*(p++)-'a')+ 10)+ resultadohex*16;


		}
	return resultadohex;
 c108d50:	e51b3010 	ldr	r3, [fp, #-16]
}
 c108d54:	e1a00003 	mov	r0, r3
 c108d58:	e24bd00c 	sub	sp, fp, #12
 c108d5c:	e89d6800 	ldm	sp, {fp, sp, lr}
 c108d60:	e12fff1e 	bx	lr

0c108d64 <adc_init>:
static uint8 state;

extern void isr_ADC_dummy( void );

void adc_init( void )
{
 c108d64:	e1a0c00d 	mov	ip, sp
 c108d68:	e92dd800 	push	{fp, ip, lr, pc}
 c108d6c:	e24cb004 	sub	fp, ip, #4
    ADCPSR = 19;
 c108d70:	e59f3014 	ldr	r3, [pc, #20]	; c108d8c <adc_init+0x28>
 c108d74:	e3a02013 	mov	r2, #19
 c108d78:	e5832000 	str	r2, [r3]
    adc_off();
 c108d7c:	eb000014 	bl	c108dd4 <adc_off>
}
 c108d80:	e24bd00c 	sub	sp, fp, #12
 c108d84:	e89d6800 	ldm	sp, {fp, sp, lr}
 c108d88:	e12fff1e 	bx	lr
 c108d8c:	01d40004 	.word	0x01d40004

0c108d90 <adc_on>:

void adc_on( void )
{
 c108d90:	e1a0c00d 	mov	ip, sp
 c108d94:	e92dd800 	push	{fp, ip, lr, pc}
 c108d98:	e24cb004 	sub	fp, ip, #4
    ADCCON &= ~(1<<15);
 c108d9c:	e3a03775 	mov	r3, #30670848	; 0x1d40000
 c108da0:	e3a02775 	mov	r2, #30670848	; 0x1d40000
 c108da4:	e5922000 	ldr	r2, [r2]
 c108da8:	e3c22902 	bic	r2, r2, #32768	; 0x8000
 c108dac:	e5832000 	str	r2, [r3]
    sw_delay_ms( 10 );
 c108db0:	e3a0000a 	mov	r0, #10
 c108db4:	ebfffaab 	bl	c107868 <sw_delay_ms>
    state = ON;
 c108db8:	e59f3010 	ldr	r3, [pc, #16]	; c108dd0 <adc_on+0x40>
 c108dbc:	e3a02001 	mov	r2, #1
 c108dc0:	e5c32000 	strb	r2, [r3]
}
 c108dc4:	e24bd00c 	sub	sp, fp, #12
 c108dc8:	e89d6800 	ldm	sp, {fp, sp, lr}
 c108dcc:	e12fff1e 	bx	lr
 c108dd0:	0c10bd9a 	.word	0x0c10bd9a

0c108dd4 <adc_off>:

void adc_off( void )
{
 c108dd4:	e1a0c00d 	mov	ip, sp
 c108dd8:	e92dd800 	push	{fp, ip, lr, pc}
 c108ddc:	e24cb004 	sub	fp, ip, #4
    ADCCON |= (1<<15);
 c108de0:	e3a03775 	mov	r3, #30670848	; 0x1d40000
 c108de4:	e3a02775 	mov	r2, #30670848	; 0x1d40000
 c108de8:	e5922000 	ldr	r2, [r2]
 c108dec:	e3822902 	orr	r2, r2, #32768	; 0x8000
 c108df0:	e5832000 	str	r2, [r3]
    state = OFF;
 c108df4:	e59f3010 	ldr	r3, [pc, #16]	; c108e0c <adc_off+0x38>
 c108df8:	e3a02000 	mov	r2, #0
 c108dfc:	e5c32000 	strb	r2, [r3]
}
 c108e00:	e24bd00c 	sub	sp, fp, #12
 c108e04:	e89d6800 	ldm	sp, {fp, sp, lr}
 c108e08:	e12fff1e 	bx	lr
 c108e0c:	0c10bd9a 	.word	0x0c10bd9a

0c108e10 <adc_status>:

uint8 adc_status( void )
{
 c108e10:	e1a0c00d 	mov	ip, sp
 c108e14:	e92dd800 	push	{fp, ip, lr, pc}
 c108e18:	e24cb004 	sub	fp, ip, #4
    return state;
 c108e1c:	e59f3010 	ldr	r3, [pc, #16]	; c108e34 <adc_status+0x24>
 c108e20:	e5d33000 	ldrb	r3, [r3]
}
 c108e24:	e1a00003 	mov	r0, r3
 c108e28:	e24bd00c 	sub	sp, fp, #12
 c108e2c:	e89d6800 	ldm	sp, {fp, sp, lr}
 c108e30:	e12fff1e 	bx	lr
 c108e34:	0c10bd9a 	.word	0x0c10bd9a

0c108e38 <adc_getSample>:

uint16 adc_getSample( uint8 ch )
{
 c108e38:	e1a0c00d 	mov	ip, sp
 c108e3c:	e92dd800 	push	{fp, ip, lr, pc}
 c108e40:	e24cb004 	sub	fp, ip, #4
 c108e44:	e24dd010 	sub	sp, sp, #16
 c108e48:	e1a03000 	mov	r3, r0
 c108e4c:	e54b3015 	strb	r3, [fp, #-21]	; 0xffffffeb
    uint32 sample;
    uint8 i;
    
    ADCCON = (ch<<2);
 c108e50:	e3a03775 	mov	r3, #30670848	; 0x1d40000
 c108e54:	e55b2015 	ldrb	r2, [fp, #-21]	; 0xffffffeb
 c108e58:	e1a02102 	lsl	r2, r2, #2
 c108e5c:	e5832000 	str	r2, [r3]
    sw_delay_ms( 10 );
 c108e60:	e3a0000a 	mov	r0, #10
 c108e64:	ebfffa7f 	bl	c107868 <sw_delay_ms>
    for( i=0, sample=0; i<5; i++ )
 c108e68:	e3a03000 	mov	r3, #0
 c108e6c:	e54b3011 	strb	r3, [fp, #-17]	; 0xffffffef
 c108e70:	e3a03000 	mov	r3, #0
 c108e74:	e50b3010 	str	r3, [fp, #-16]
 c108e78:	ea00001b 	b	c108eec <adc_getSample+0xb4>
    {
        ADCCON |= 1;
 c108e7c:	e3a03775 	mov	r3, #30670848	; 0x1d40000
 c108e80:	e3a02775 	mov	r2, #30670848	; 0x1d40000
 c108e84:	e5922000 	ldr	r2, [r2]
 c108e88:	e3822001 	orr	r2, r2, #1
 c108e8c:	e5832000 	str	r2, [r3]
        while( ADCCON & 1 );
 c108e90:	e1a00000 	nop			; (mov r0, r0)
 c108e94:	e3a03775 	mov	r3, #30670848	; 0x1d40000
 c108e98:	e5933000 	ldr	r3, [r3]
 c108e9c:	e2033001 	and	r3, r3, #1
 c108ea0:	e20330ff 	and	r3, r3, #255	; 0xff
 c108ea4:	e3530000 	cmp	r3, #0
 c108ea8:	1afffff9 	bne	c108e94 <adc_getSample+0x5c>
        while( !(ADCCON & 64) );
 c108eac:	e1a00000 	nop			; (mov r0, r0)
 c108eb0:	e3a03775 	mov	r3, #30670848	; 0x1d40000
 c108eb4:	e5933000 	ldr	r3, [r3]
 c108eb8:	e2033040 	and	r3, r3, #64	; 0x40
 c108ebc:	e3530000 	cmp	r3, #0
 c108ec0:	0afffffa 	beq	c108eb0 <adc_getSample+0x78>
        sample += ADCDAT & 0x3ff;
 c108ec4:	e59f3054 	ldr	r3, [pc, #84]	; c108f20 <adc_getSample+0xe8>
 c108ec8:	e5933000 	ldr	r3, [r3]
 c108ecc:	e1a03b03 	lsl	r3, r3, #22
 c108ed0:	e1a03b23 	lsr	r3, r3, #22
 c108ed4:	e51b2010 	ldr	r2, [fp, #-16]
 c108ed8:	e0823003 	add	r3, r2, r3
 c108edc:	e50b3010 	str	r3, [fp, #-16]
    uint32 sample;
    uint8 i;
    
    ADCCON = (ch<<2);
    sw_delay_ms( 10 );
    for( i=0, sample=0; i<5; i++ )
 c108ee0:	e55b3011 	ldrb	r3, [fp, #-17]	; 0xffffffef
 c108ee4:	e2833001 	add	r3, r3, #1
 c108ee8:	e54b3011 	strb	r3, [fp, #-17]	; 0xffffffef
 c108eec:	e55b3011 	ldrb	r3, [fp, #-17]	; 0xffffffef
 c108ef0:	e3530004 	cmp	r3, #4
 c108ef4:	9affffe0 	bls	c108e7c <adc_getSample+0x44>
        ADCCON |= 1;
        while( ADCCON & 1 );
        while( !(ADCCON & 64) );
        sample += ADCDAT & 0x3ff;
    }
    return sample / 5;
 c108ef8:	e51b2010 	ldr	r2, [fp, #-16]
 c108efc:	e59f3020 	ldr	r3, [pc, #32]	; c108f24 <adc_getSample+0xec>
 c108f00:	e0831392 	umull	r1, r3, r2, r3
 c108f04:	e1a03123 	lsr	r3, r3, #2
 c108f08:	e1a03803 	lsl	r3, r3, #16
 c108f0c:	e1a03823 	lsr	r3, r3, #16
}
 c108f10:	e1a00003 	mov	r0, r3
 c108f14:	e24bd00c 	sub	sp, fp, #12
 c108f18:	e89d6800 	ldm	sp, {fp, sp, lr}
 c108f1c:	e12fff1e 	bx	lr
 c108f20:	01d40008 	.word	0x01d40008
 c108f24:	cccccccd 	.word	0xcccccccd

0c108f28 <adc_open>:

void adc_open( void (*isr)(void) )
{
 c108f28:	e1a0c00d 	mov	ip, sp
 c108f2c:	e92dd800 	push	{fp, ip, lr, pc}
 c108f30:	e24cb004 	sub	fp, ip, #4
 c108f34:	e24dd008 	sub	sp, sp, #8
 c108f38:	e50b0010 	str	r0, [fp, #-16]
	pISR_ADC = isr;
 c108f3c:	e59f3030 	ldr	r3, [pc, #48]	; c108f74 <adc_open+0x4c>
 c108f40:	e51b2010 	ldr	r2, [fp, #-16]
 c108f44:	e5832000 	str	r2, [r3]
	I_ISPC	 = BIT_ADC;
 c108f48:	e59f3028 	ldr	r3, [pc, #40]	; c108f78 <adc_open+0x50>
 c108f4c:	e3a02001 	mov	r2, #1
 c108f50:	e5832000 	str	r2, [r3]
	INTMSK	&= ~(BIT_GLOBAL|BIT_ADC);
 c108f54:	e59f3020 	ldr	r3, [pc, #32]	; c108f7c <adc_open+0x54>
 c108f58:	e59f201c 	ldr	r2, [pc, #28]	; c108f7c <adc_open+0x54>
 c108f5c:	e5922000 	ldr	r2, [r2]
 c108f60:	e3c22341 	bic	r2, r2, #67108865	; 0x4000001
 c108f64:	e5832000 	str	r2, [r3]
}
 c108f68:	e24bd00c 	sub	sp, fp, #12
 c108f6c:	e89d6800 	ldm	sp, {fp, sp, lr}
 c108f70:	e12fff1e 	bx	lr
 c108f74:	0c7fff20 	.word	0x0c7fff20
 c108f78:	01e00024 	.word	0x01e00024
 c108f7c:	01e0000c 	.word	0x01e0000c

0c108f80 <adc_close>:

void adc_close( void )
{
 c108f80:	e1a0c00d 	mov	ip, sp
 c108f84:	e92dd800 	push	{fp, ip, lr, pc}
 c108f88:	e24cb004 	sub	fp, ip, #4
    INTMSK	|= BIT_ADC;
 c108f8c:	e59f3024 	ldr	r3, [pc, #36]	; c108fb8 <adc_close+0x38>
 c108f90:	e59f2020 	ldr	r2, [pc, #32]	; c108fb8 <adc_close+0x38>
 c108f94:	e5922000 	ldr	r2, [r2]
 c108f98:	e3822001 	orr	r2, r2, #1
 c108f9c:	e5832000 	str	r2, [r3]
    pISR_ADC = isr_ADC_dummy;
 c108fa0:	e59f3014 	ldr	r3, [pc, #20]	; c108fbc <adc_close+0x3c>
 c108fa4:	e59f2014 	ldr	r2, [pc, #20]	; c108fc0 <adc_close+0x40>
 c108fa8:	e5832000 	str	r2, [r3]
}
 c108fac:	e24bd00c 	sub	sp, fp, #12
 c108fb0:	e89d6800 	ldm	sp, {fp, sp, lr}
 c108fb4:	e12fff1e 	bx	lr
 c108fb8:	01e0000c 	.word	0x01e0000c
 c108fbc:	0c7fff20 	.word	0x0c7fff20
 c108fc0:	0c106edc 	.word	0x0c106edc

0c108fc4 <segs_init>:
static const uint8 hex2segs[16] = {0x12, 0x9f, 0x31, 0x15, 0x9c, 0x54, 0x50, 0x1f, 0x10, 0x1c, 0x18, 0xd0, 0x72, 0x91, 0x70, 0x78};

static uint8 state;
        
void segs_init( void )
{
 c108fc4:	e1a0c00d 	mov	ip, sp
 c108fc8:	e92dd800 	push	{fp, ip, lr, pc}
 c108fcc:	e24cb004 	sub	fp, ip, #4
    segs_off();
 c108fd0:	eb000002 	bl	c108fe0 <segs_off>
}                                  
 c108fd4:	e24bd00c 	sub	sp, fp, #12
 c108fd8:	e89d6800 	ldm	sp, {fp, sp, lr}
 c108fdc:	e12fff1e 	bx	lr

0c108fe0 <segs_off>:
                          
void segs_off( void )
{
 c108fe0:	e1a0c00d 	mov	ip, sp
 c108fe4:	e92dd800 	push	{fp, ip, lr, pc}
 c108fe8:	e24cb004 	sub	fp, ip, #4
    state = SEGS_OFF;
 c108fec:	e59f3020 	ldr	r3, [pc, #32]	; c109014 <segs_off+0x34>
 c108ff0:	e3e02000 	mvn	r2, #0
 c108ff4:	e5c32000 	strb	r2, [r3]
    SEGS = state;
 c108ff8:	e3a03785 	mov	r3, #34865152	; 0x2140000
 c108ffc:	e59f2010 	ldr	r2, [pc, #16]	; c109014 <segs_off+0x34>
 c109000:	e5d22000 	ldrb	r2, [r2]
 c109004:	e5c32000 	strb	r2, [r3]
}
 c109008:	e24bd00c 	sub	sp, fp, #12
 c10900c:	e89d6800 	ldm	sp, {fp, sp, lr}
 c109010:	e12fff1e 	bx	lr
 c109014:	0c10bd9b 	.word	0x0c10bd9b

0c109018 <segs_putchar>:

void segs_putchar( uint8 n )
{
 c109018:	e1a0c00d 	mov	ip, sp
 c10901c:	e92dd800 	push	{fp, ip, lr, pc}
 c109020:	e24cb004 	sub	fp, ip, #4
 c109024:	e24dd008 	sub	sp, sp, #8
 c109028:	e1a03000 	mov	r3, r0
 c10902c:	e54b300d 	strb	r3, [fp, #-13]
    state = n & 0x0f;
 c109030:	e55b300d 	ldrb	r3, [fp, #-13]
 c109034:	e203300f 	and	r3, r3, #15
 c109038:	e20320ff 	and	r2, r3, #255	; 0xff
 c10903c:	e59f3024 	ldr	r3, [pc, #36]	; c109068 <segs_putchar+0x50>
 c109040:	e5c32000 	strb	r2, [r3]
    SEGS = hex2segs[state];
 c109044:	e3a03785 	mov	r3, #34865152	; 0x2140000
 c109048:	e59f2018 	ldr	r2, [pc, #24]	; c109068 <segs_putchar+0x50>
 c10904c:	e5d22000 	ldrb	r2, [r2]
 c109050:	e59f1014 	ldr	r1, [pc, #20]	; c10906c <segs_putchar+0x54>
 c109054:	e7d12002 	ldrb	r2, [r1, r2]
 c109058:	e5c32000 	strb	r2, [r3]
};
 c10905c:	e24bd00c 	sub	sp, fp, #12
 c109060:	e89d6800 	ldm	sp, {fp, sp, lr}
 c109064:	e12fff1e 	bx	lr
 c109068:	0c10bd9b 	.word	0x0c10bd9b
 c10906c:	0c10b958 	.word	0x0c10b958

0c109070 <segs_status>:

uint8 segs_status( void )
{
 c109070:	e1a0c00d 	mov	ip, sp
 c109074:	e92dd800 	push	{fp, ip, lr, pc}
 c109078:	e24cb004 	sub	fp, ip, #4
    return state;
 c10907c:	e59f3010 	ldr	r3, [pc, #16]	; c109094 <segs_status+0x24>
 c109080:	e5d33000 	ldrb	r3, [r3]
};
 c109084:	e1a00003 	mov	r0, r3
 c109088:	e24bd00c 	sub	sp, fp, #12
 c10908c:	e89d6800 	ldm	sp, {fp, sp, lr}
 c109090:	e12fff1e 	bx	lr
 c109094:	0c10bd9b 	.word	0x0c10bd9b

0c109098 <__aeabi_uidiv>:
 c109098:	e2512001 	subs	r2, r1, #1
 c10909c:	012fff1e 	bxeq	lr
 c1090a0:	3a000036 	bcc	c109180 <__aeabi_uidiv+0xe8>
 c1090a4:	e1500001 	cmp	r0, r1
 c1090a8:	9a000022 	bls	c109138 <__aeabi_uidiv+0xa0>
 c1090ac:	e1110002 	tst	r1, r2
 c1090b0:	0a000023 	beq	c109144 <__aeabi_uidiv+0xac>
 c1090b4:	e311020e 	tst	r1, #-536870912	; 0xe0000000
 c1090b8:	01a01181 	lsleq	r1, r1, #3
 c1090bc:	03a03008 	moveq	r3, #8
 c1090c0:	13a03001 	movne	r3, #1
 c1090c4:	e3510201 	cmp	r1, #268435456	; 0x10000000
 c1090c8:	31510000 	cmpcc	r1, r0
 c1090cc:	31a01201 	lslcc	r1, r1, #4
 c1090d0:	31a03203 	lslcc	r3, r3, #4
 c1090d4:	3afffffa 	bcc	c1090c4 <__aeabi_uidiv+0x2c>
 c1090d8:	e3510102 	cmp	r1, #-2147483648	; 0x80000000
 c1090dc:	31510000 	cmpcc	r1, r0
 c1090e0:	31a01081 	lslcc	r1, r1, #1
 c1090e4:	31a03083 	lslcc	r3, r3, #1
 c1090e8:	3afffffa 	bcc	c1090d8 <__aeabi_uidiv+0x40>
 c1090ec:	e3a02000 	mov	r2, #0
 c1090f0:	e1500001 	cmp	r0, r1
 c1090f4:	20400001 	subcs	r0, r0, r1
 c1090f8:	21822003 	orrcs	r2, r2, r3
 c1090fc:	e15000a1 	cmp	r0, r1, lsr #1
 c109100:	204000a1 	subcs	r0, r0, r1, lsr #1
 c109104:	218220a3 	orrcs	r2, r2, r3, lsr #1
 c109108:	e1500121 	cmp	r0, r1, lsr #2
 c10910c:	20400121 	subcs	r0, r0, r1, lsr #2
 c109110:	21822123 	orrcs	r2, r2, r3, lsr #2
 c109114:	e15001a1 	cmp	r0, r1, lsr #3
 c109118:	204001a1 	subcs	r0, r0, r1, lsr #3
 c10911c:	218221a3 	orrcs	r2, r2, r3, lsr #3
 c109120:	e3500000 	cmp	r0, #0
 c109124:	11b03223 	lsrsne	r3, r3, #4
 c109128:	11a01221 	lsrne	r1, r1, #4
 c10912c:	1affffef 	bne	c1090f0 <__aeabi_uidiv+0x58>
 c109130:	e1a00002 	mov	r0, r2
 c109134:	e12fff1e 	bx	lr
 c109138:	03a00001 	moveq	r0, #1
 c10913c:	13a00000 	movne	r0, #0
 c109140:	e12fff1e 	bx	lr
 c109144:	e3510801 	cmp	r1, #65536	; 0x10000
 c109148:	21a01821 	lsrcs	r1, r1, #16
 c10914c:	23a02010 	movcs	r2, #16
 c109150:	33a02000 	movcc	r2, #0
 c109154:	e3510c01 	cmp	r1, #256	; 0x100
 c109158:	21a01421 	lsrcs	r1, r1, #8
 c10915c:	22822008 	addcs	r2, r2, #8
 c109160:	e3510010 	cmp	r1, #16
 c109164:	21a01221 	lsrcs	r1, r1, #4
 c109168:	22822004 	addcs	r2, r2, #4
 c10916c:	e3510004 	cmp	r1, #4
 c109170:	82822003 	addhi	r2, r2, #3
 c109174:	908220a1 	addls	r2, r2, r1, lsr #1
 c109178:	e1a00230 	lsr	r0, r0, r2
 c10917c:	e12fff1e 	bx	lr
 c109180:	e3500000 	cmp	r0, #0
 c109184:	13e00000 	mvnne	r0, #0
 c109188:	ea000059 	b	c1092f4 <__aeabi_idiv0>

0c10918c <__aeabi_uidivmod>:
 c10918c:	e3510000 	cmp	r1, #0
 c109190:	0afffffa 	beq	c109180 <__aeabi_uidiv+0xe8>
 c109194:	e92d4003 	push	{r0, r1, lr}
 c109198:	ebffffbe 	bl	c109098 <__aeabi_uidiv>
 c10919c:	e8bd4006 	pop	{r1, r2, lr}
 c1091a0:	e0030092 	mul	r3, r2, r0
 c1091a4:	e0411003 	sub	r1, r1, r3
 c1091a8:	e12fff1e 	bx	lr

0c1091ac <__aeabi_idiv>:
 c1091ac:	e3510000 	cmp	r1, #0
 c1091b0:	0a000043 	beq	c1092c4 <.divsi3_skip_div0_test+0x110>

0c1091b4 <.divsi3_skip_div0_test>:
 c1091b4:	e020c001 	eor	ip, r0, r1
 c1091b8:	42611000 	rsbmi	r1, r1, #0
 c1091bc:	e2512001 	subs	r2, r1, #1
 c1091c0:	0a000027 	beq	c109264 <.divsi3_skip_div0_test+0xb0>
 c1091c4:	e1b03000 	movs	r3, r0
 c1091c8:	42603000 	rsbmi	r3, r0, #0
 c1091cc:	e1530001 	cmp	r3, r1
 c1091d0:	9a000026 	bls	c109270 <.divsi3_skip_div0_test+0xbc>
 c1091d4:	e1110002 	tst	r1, r2
 c1091d8:	0a000028 	beq	c109280 <.divsi3_skip_div0_test+0xcc>
 c1091dc:	e311020e 	tst	r1, #-536870912	; 0xe0000000
 c1091e0:	01a01181 	lsleq	r1, r1, #3
 c1091e4:	03a02008 	moveq	r2, #8
 c1091e8:	13a02001 	movne	r2, #1
 c1091ec:	e3510201 	cmp	r1, #268435456	; 0x10000000
 c1091f0:	31510003 	cmpcc	r1, r3
 c1091f4:	31a01201 	lslcc	r1, r1, #4
 c1091f8:	31a02202 	lslcc	r2, r2, #4
 c1091fc:	3afffffa 	bcc	c1091ec <.divsi3_skip_div0_test+0x38>
 c109200:	e3510102 	cmp	r1, #-2147483648	; 0x80000000
 c109204:	31510003 	cmpcc	r1, r3
 c109208:	31a01081 	lslcc	r1, r1, #1
 c10920c:	31a02082 	lslcc	r2, r2, #1
 c109210:	3afffffa 	bcc	c109200 <.divsi3_skip_div0_test+0x4c>
 c109214:	e3a00000 	mov	r0, #0
 c109218:	e1530001 	cmp	r3, r1
 c10921c:	20433001 	subcs	r3, r3, r1
 c109220:	21800002 	orrcs	r0, r0, r2
 c109224:	e15300a1 	cmp	r3, r1, lsr #1
 c109228:	204330a1 	subcs	r3, r3, r1, lsr #1
 c10922c:	218000a2 	orrcs	r0, r0, r2, lsr #1
 c109230:	e1530121 	cmp	r3, r1, lsr #2
 c109234:	20433121 	subcs	r3, r3, r1, lsr #2
 c109238:	21800122 	orrcs	r0, r0, r2, lsr #2
 c10923c:	e15301a1 	cmp	r3, r1, lsr #3
 c109240:	204331a1 	subcs	r3, r3, r1, lsr #3
 c109244:	218001a2 	orrcs	r0, r0, r2, lsr #3
 c109248:	e3530000 	cmp	r3, #0
 c10924c:	11b02222 	lsrsne	r2, r2, #4
 c109250:	11a01221 	lsrne	r1, r1, #4
 c109254:	1affffef 	bne	c109218 <.divsi3_skip_div0_test+0x64>
 c109258:	e35c0000 	cmp	ip, #0
 c10925c:	42600000 	rsbmi	r0, r0, #0
 c109260:	e12fff1e 	bx	lr
 c109264:	e13c0000 	teq	ip, r0
 c109268:	42600000 	rsbmi	r0, r0, #0
 c10926c:	e12fff1e 	bx	lr
 c109270:	33a00000 	movcc	r0, #0
 c109274:	01a00fcc 	asreq	r0, ip, #31
 c109278:	03800001 	orreq	r0, r0, #1
 c10927c:	e12fff1e 	bx	lr
 c109280:	e3510801 	cmp	r1, #65536	; 0x10000
 c109284:	21a01821 	lsrcs	r1, r1, #16
 c109288:	23a02010 	movcs	r2, #16
 c10928c:	33a02000 	movcc	r2, #0
 c109290:	e3510c01 	cmp	r1, #256	; 0x100
 c109294:	21a01421 	lsrcs	r1, r1, #8
 c109298:	22822008 	addcs	r2, r2, #8
 c10929c:	e3510010 	cmp	r1, #16
 c1092a0:	21a01221 	lsrcs	r1, r1, #4
 c1092a4:	22822004 	addcs	r2, r2, #4
 c1092a8:	e3510004 	cmp	r1, #4
 c1092ac:	82822003 	addhi	r2, r2, #3
 c1092b0:	908220a1 	addls	r2, r2, r1, lsr #1
 c1092b4:	e35c0000 	cmp	ip, #0
 c1092b8:	e1a00233 	lsr	r0, r3, r2
 c1092bc:	42600000 	rsbmi	r0, r0, #0
 c1092c0:	e12fff1e 	bx	lr
 c1092c4:	e3500000 	cmp	r0, #0
 c1092c8:	c3e00102 	mvngt	r0, #-2147483648	; 0x80000000
 c1092cc:	b3a00102 	movlt	r0, #-2147483648	; 0x80000000
 c1092d0:	ea000007 	b	c1092f4 <__aeabi_idiv0>

0c1092d4 <__aeabi_idivmod>:
 c1092d4:	e3510000 	cmp	r1, #0
 c1092d8:	0afffff9 	beq	c1092c4 <.divsi3_skip_div0_test+0x110>
 c1092dc:	e92d4003 	push	{r0, r1, lr}
 c1092e0:	ebffffb3 	bl	c1091b4 <.divsi3_skip_div0_test>
 c1092e4:	e8bd4006 	pop	{r1, r2, lr}
 c1092e8:	e0030092 	mul	r3, r2, r0
 c1092ec:	e0411003 	sub	r1, r1, r3
 c1092f0:	e12fff1e 	bx	lr

0c1092f4 <__aeabi_idiv0>:
 c1092f4:	e12fff1e 	bx	lr

0c1092f8 <__aeabi_uldivmod>:
 c1092f8:	e3530000 	cmp	r3, #0
 c1092fc:	03520000 	cmpeq	r2, #0
 c109300:	1a000004 	bne	c109318 <__aeabi_uldivmod+0x20>
 c109304:	e3510000 	cmp	r1, #0
 c109308:	03500000 	cmpeq	r0, #0
 c10930c:	13e01000 	mvnne	r1, #0
 c109310:	13e00000 	mvnne	r0, #0
 c109314:	eafffff6 	b	c1092f4 <__aeabi_idiv0>
 c109318:	e24dd008 	sub	sp, sp, #8
 c10931c:	e92d6000 	push	{sp, lr}
 c109320:	eb000013 	bl	c109374 <__gnu_uldivmod_helper>
 c109324:	e59de004 	ldr	lr, [sp, #4]
 c109328:	e28dd008 	add	sp, sp, #8
 c10932c:	e8bd000c 	pop	{r2, r3}
 c109330:	e12fff1e 	bx	lr

0c109334 <__gnu_ldivmod_helper>:
 c109334:	e92d40f8 	push	{r3, r4, r5, r6, r7, lr}
 c109338:	e1a04002 	mov	r4, r2
 c10933c:	e1a07003 	mov	r7, r3
 c109340:	e1a05000 	mov	r5, r0
 c109344:	e1a06001 	mov	r6, r1
 c109348:	eb000019 	bl	c1093b4 <__divdi3>
 c10934c:	e0070790 	mul	r7, r0, r7
 c109350:	e0832490 	umull	r2, r3, r0, r4
 c109354:	e0247491 	mla	r4, r1, r4, r7
 c109358:	e0843003 	add	r3, r4, r3
 c10935c:	e0555002 	subs	r5, r5, r2
 c109360:	e0c66003 	sbc	r6, r6, r3
 c109364:	e59d3018 	ldr	r3, [sp, #24]
 c109368:	e8830060 	stm	r3, {r5, r6}
 c10936c:	e8bd40f8 	pop	{r3, r4, r5, r6, r7, lr}
 c109370:	e12fff1e 	bx	lr

0c109374 <__gnu_uldivmod_helper>:
 c109374:	e92d40f8 	push	{r3, r4, r5, r6, r7, lr}
 c109378:	e1a04002 	mov	r4, r2
 c10937c:	e1a07003 	mov	r7, r3
 c109380:	e1a05000 	mov	r5, r0
 c109384:	e1a06001 	mov	r6, r1
 c109388:	eb000133 	bl	c10985c <__udivdi3>
 c10938c:	e0070790 	mul	r7, r0, r7
 c109390:	e0832490 	umull	r2, r3, r0, r4
 c109394:	e0247491 	mla	r4, r1, r4, r7
 c109398:	e0843003 	add	r3, r4, r3
 c10939c:	e0555002 	subs	r5, r5, r2
 c1093a0:	e0c66003 	sbc	r6, r6, r3
 c1093a4:	e59d3018 	ldr	r3, [sp, #24]
 c1093a8:	e8830060 	stm	r3, {r5, r6}
 c1093ac:	e8bd40f8 	pop	{r3, r4, r5, r6, r7, lr}
 c1093b0:	e12fff1e 	bx	lr

0c1093b4 <__divdi3>:
 c1093b4:	e92d4ff0 	push	{r4, r5, r6, r7, r8, r9, sl, fp, lr}
 c1093b8:	e3510000 	cmp	r1, #0
 c1093bc:	e24dd014 	sub	sp, sp, #20
 c1093c0:	e1a0c003 	mov	ip, r3
 c1093c4:	a3a07000 	movge	r7, #0
 c1093c8:	ba000094 	blt	c109620 <__divdi3+0x26c>
 c1093cc:	e35c0000 	cmp	ip, #0
 c1093d0:	ba00008e 	blt	c109610 <__divdi3+0x25c>
 c1093d4:	e253a000 	subs	sl, r3, #0
 c1093d8:	e1a0b000 	mov	fp, r0
 c1093dc:	e1a08001 	mov	r8, r1
 c1093e0:	e1a09002 	mov	r9, r2
 c1093e4:	e1a04002 	mov	r4, r2
 c1093e8:	e1a05000 	mov	r5, r0
 c1093ec:	e1a06001 	mov	r6, r1
 c1093f0:	1a00003e 	bne	c1094f0 <__divdi3+0x13c>
 c1093f4:	e1520001 	cmp	r2, r1
 c1093f8:	9a00004c 	bls	c109530 <__divdi3+0x17c>
 c1093fc:	e1a00002 	mov	r0, r2
 c109400:	eb000222 	bl	c109c90 <__clzsi2>
 c109404:	e3500000 	cmp	r0, #0
 c109408:	12603020 	rsbne	r3, r0, #32
 c10940c:	11a0333b 	lsrne	r3, fp, r3
 c109410:	11a04019 	lslne	r4, r9, r0
 c109414:	11836018 	orrne	r6, r3, r8, lsl r0
 c109418:	e1a09824 	lsr	r9, r4, #16
 c10941c:	11a0501b 	lslne	r5, fp, r0
 c109420:	e1a01009 	mov	r1, r9
 c109424:	e1a00006 	mov	r0, r6
 c109428:	ebffff1a 	bl	c109098 <__aeabi_uidiv>
 c10942c:	e1a01009 	mov	r1, r9
 c109430:	e1a0a000 	mov	sl, r0
 c109434:	e1a00006 	mov	r0, r6
 c109438:	ebffff53 	bl	c10918c <__aeabi_uidivmod>
 c10943c:	e1a08804 	lsl	r8, r4, #16
 c109440:	e1a08828 	lsr	r8, r8, #16
 c109444:	e0030a98 	mul	r3, r8, sl
 c109448:	e1a0b825 	lsr	fp, r5, #16
 c10944c:	e18bb801 	orr	fp, fp, r1, lsl #16
 c109450:	e153000b 	cmp	r3, fp
 c109454:	9a000005 	bls	c109470 <__divdi3+0xbc>
 c109458:	e09bb004 	adds	fp, fp, r4
 c10945c:	e24aa001 	sub	sl, sl, #1
 c109460:	2a000002 	bcs	c109470 <__divdi3+0xbc>
 c109464:	e153000b 	cmp	r3, fp
 c109468:	824aa001 	subhi	sl, sl, #1
 c10946c:	808bb004 	addhi	fp, fp, r4
 c109470:	e063b00b 	rsb	fp, r3, fp
 c109474:	e1a01009 	mov	r1, r9
 c109478:	e1a0000b 	mov	r0, fp
 c10947c:	ebffff05 	bl	c109098 <__aeabi_uidiv>
 c109480:	e1a01009 	mov	r1, r9
 c109484:	e1a06000 	mov	r6, r0
 c109488:	e1a0000b 	mov	r0, fp
 c10948c:	ebffff3e 	bl	c10918c <__aeabi_uidivmod>
 c109490:	e0080896 	mul	r8, r6, r8
 c109494:	e1a00805 	lsl	r0, r5, #16
 c109498:	e1a05820 	lsr	r5, r0, #16
 c10949c:	e1855801 	orr	r5, r5, r1, lsl #16
 c1094a0:	e1580005 	cmp	r8, r5
 c1094a4:	9a000004 	bls	c1094bc <__divdi3+0x108>
 c1094a8:	e0955004 	adds	r5, r5, r4
 c1094ac:	e2466001 	sub	r6, r6, #1
 c1094b0:	2a000001 	bcs	c1094bc <__divdi3+0x108>
 c1094b4:	e1580005 	cmp	r8, r5
 c1094b8:	82466001 	subhi	r6, r6, #1
 c1094bc:	e186680a 	orr	r6, r6, sl, lsl #16
 c1094c0:	e3a09000 	mov	r9, #0
 c1094c4:	e3570000 	cmp	r7, #0
 c1094c8:	e1a03006 	mov	r3, r6
 c1094cc:	e1a04009 	mov	r4, r9
 c1094d0:	0a000001 	beq	c1094dc <__divdi3+0x128>
 c1094d4:	e2733000 	rsbs	r3, r3, #0
 c1094d8:	e2e44000 	rsc	r4, r4, #0
 c1094dc:	e1a00003 	mov	r0, r3
 c1094e0:	e1a01004 	mov	r1, r4
 c1094e4:	e28dd014 	add	sp, sp, #20
 c1094e8:	e8bd4ff0 	pop	{r4, r5, r6, r7, r8, r9, sl, fp, lr}
 c1094ec:	e12fff1e 	bx	lr
 c1094f0:	e15a0001 	cmp	sl, r1
 c1094f4:	83a09000 	movhi	r9, #0
 c1094f8:	81a06009 	movhi	r6, r9
 c1094fc:	8afffff0 	bhi	c1094c4 <__divdi3+0x110>
 c109500:	e1a00003 	mov	r0, r3
 c109504:	eb0001e1 	bl	c109c90 <__clzsi2>
 c109508:	e2504000 	subs	r4, r0, #0
 c10950c:	1a00007a 	bne	c1096fc <__divdi3+0x348>
 c109510:	e15a0008 	cmp	sl, r8
 c109514:	2159000b 	cmpcs	r9, fp
 c109518:	83a09000 	movhi	r9, #0
 c10951c:	93a09001 	movls	r9, #1
 c109520:	93a06001 	movls	r6, #1
 c109524:	91a09004 	movls	r9, r4
 c109528:	81a06009 	movhi	r6, r9
 c10952c:	eaffffe4 	b	c1094c4 <__divdi3+0x110>
 c109530:	e3520000 	cmp	r2, #0
 c109534:	1a000003 	bne	c109548 <__divdi3+0x194>
 c109538:	e3a00001 	mov	r0, #1
 c10953c:	e1a01002 	mov	r1, r2
 c109540:	ebfffed4 	bl	c109098 <__aeabi_uidiv>
 c109544:	e1a04000 	mov	r4, r0
 c109548:	e1a00004 	mov	r0, r4
 c10954c:	eb0001cf 	bl	c109c90 <__clzsi2>
 c109550:	e2503000 	subs	r3, r0, #0
 c109554:	1a000035 	bne	c109630 <__divdi3+0x27c>
 c109558:	e3a01001 	mov	r1, #1
 c10955c:	e1a09804 	lsl	r9, r4, #16
 c109560:	e58d1008 	str	r1, [sp, #8]
 c109564:	e0646006 	rsb	r6, r4, r6
 c109568:	e1a08824 	lsr	r8, r4, #16
 c10956c:	e1a09829 	lsr	r9, r9, #16
 c109570:	e1a01008 	mov	r1, r8
 c109574:	e1a00006 	mov	r0, r6
 c109578:	ebfffec6 	bl	c109098 <__aeabi_uidiv>
 c10957c:	e1a01008 	mov	r1, r8
 c109580:	e1a0a000 	mov	sl, r0
 c109584:	e1a00006 	mov	r0, r6
 c109588:	ebfffeff 	bl	c10918c <__aeabi_uidivmod>
 c10958c:	e0030a99 	mul	r3, r9, sl
 c109590:	e1a0c825 	lsr	ip, r5, #16
 c109594:	e18cb801 	orr	fp, ip, r1, lsl #16
 c109598:	e153000b 	cmp	r3, fp
 c10959c:	9a000005 	bls	c1095b8 <__divdi3+0x204>
 c1095a0:	e09bb004 	adds	fp, fp, r4
 c1095a4:	e24aa001 	sub	sl, sl, #1
 c1095a8:	2a000002 	bcs	c1095b8 <__divdi3+0x204>
 c1095ac:	e153000b 	cmp	r3, fp
 c1095b0:	824aa001 	subhi	sl, sl, #1
 c1095b4:	808bb004 	addhi	fp, fp, r4
 c1095b8:	e063b00b 	rsb	fp, r3, fp
 c1095bc:	e1a01008 	mov	r1, r8
 c1095c0:	e1a0000b 	mov	r0, fp
 c1095c4:	ebfffeb3 	bl	c109098 <__aeabi_uidiv>
 c1095c8:	e1a01008 	mov	r1, r8
 c1095cc:	e1a06000 	mov	r6, r0
 c1095d0:	e1a0000b 	mov	r0, fp
 c1095d4:	ebfffeec 	bl	c10918c <__aeabi_uidivmod>
 c1095d8:	e0090996 	mul	r9, r6, r9
 c1095dc:	e1a00805 	lsl	r0, r5, #16
 c1095e0:	e1a05820 	lsr	r5, r0, #16
 c1095e4:	e1855801 	orr	r5, r5, r1, lsl #16
 c1095e8:	e1590005 	cmp	r9, r5
 c1095ec:	9a000004 	bls	c109604 <__divdi3+0x250>
 c1095f0:	e0955004 	adds	r5, r5, r4
 c1095f4:	e2466001 	sub	r6, r6, #1
 c1095f8:	2a000001 	bcs	c109604 <__divdi3+0x250>
 c1095fc:	e1590005 	cmp	r9, r5
 c109600:	82466001 	subhi	r6, r6, #1
 c109604:	e186680a 	orr	r6, r6, sl, lsl #16
 c109608:	e59d9008 	ldr	r9, [sp, #8]
 c10960c:	eaffffac 	b	c1094c4 <__divdi3+0x110>
 c109610:	e1e07007 	mvn	r7, r7
 c109614:	e2722000 	rsbs	r2, r2, #0
 c109618:	e2e33000 	rsc	r3, r3, #0
 c10961c:	eaffff6c 	b	c1093d4 <__divdi3+0x20>
 c109620:	e2700000 	rsbs	r0, r0, #0
 c109624:	e2e11000 	rsc	r1, r1, #0
 c109628:	e3e07000 	mvn	r7, #0
 c10962c:	eaffff66 	b	c1093cc <__divdi3+0x18>
 c109630:	e2638020 	rsb	r8, r3, #32
 c109634:	e1a0b835 	lsr	fp, r5, r8
 c109638:	e1a04314 	lsl	r4, r4, r3
 c10963c:	e1a0a836 	lsr	sl, r6, r8
 c109640:	e18be316 	orr	lr, fp, r6, lsl r3
 c109644:	e1a08824 	lsr	r8, r4, #16
 c109648:	e1a0c804 	lsl	ip, r4, #16
 c10964c:	e1a01008 	mov	r1, r8
 c109650:	e1a0000a 	mov	r0, sl
 c109654:	e1a0982c 	lsr	r9, ip, #16
 c109658:	e1a05315 	lsl	r5, r5, r3
 c10965c:	e58de008 	str	lr, [sp, #8]
 c109660:	ebfffe8c 	bl	c109098 <__aeabi_uidiv>
 c109664:	e1a01008 	mov	r1, r8
 c109668:	e1a0b000 	mov	fp, r0
 c10966c:	e1a0000a 	mov	r0, sl
 c109670:	ebfffec5 	bl	c10918c <__aeabi_uidivmod>
 c109674:	e0030b99 	mul	r3, r9, fp
 c109678:	e59d2008 	ldr	r2, [sp, #8]
 c10967c:	e1a06822 	lsr	r6, r2, #16
 c109680:	e1866801 	orr	r6, r6, r1, lsl #16
 c109684:	e1530006 	cmp	r3, r6
 c109688:	9a000002 	bls	c109698 <__divdi3+0x2e4>
 c10968c:	e0966004 	adds	r6, r6, r4
 c109690:	e24bb001 	sub	fp, fp, #1
 c109694:	3a00006c 	bcc	c10984c <__divdi3+0x498>
 c109698:	e0636006 	rsb	r6, r3, r6
 c10969c:	e1a01008 	mov	r1, r8
 c1096a0:	e1a00006 	mov	r0, r6
 c1096a4:	ebfffe7b 	bl	c109098 <__aeabi_uidiv>
 c1096a8:	e1a01008 	mov	r1, r8
 c1096ac:	e1a0a000 	mov	sl, r0
 c1096b0:	e1a00006 	mov	r0, r6
 c1096b4:	ebfffeb4 	bl	c10918c <__aeabi_uidivmod>
 c1096b8:	e0030a99 	mul	r3, r9, sl
 c1096bc:	e59d2008 	ldr	r2, [sp, #8]
 c1096c0:	e1a06802 	lsl	r6, r2, #16
 c1096c4:	e1a00826 	lsr	r0, r6, #16
 c1096c8:	e1806801 	orr	r6, r0, r1, lsl #16
 c1096cc:	e1530006 	cmp	r3, r6
 c1096d0:	9a000005 	bls	c1096ec <__divdi3+0x338>
 c1096d4:	e0966004 	adds	r6, r6, r4
 c1096d8:	e24aa001 	sub	sl, sl, #1
 c1096dc:	2a000002 	bcs	c1096ec <__divdi3+0x338>
 c1096e0:	e1530006 	cmp	r3, r6
 c1096e4:	824aa001 	subhi	sl, sl, #1
 c1096e8:	80866004 	addhi	r6, r6, r4
 c1096ec:	e0636006 	rsb	r6, r3, r6
 c1096f0:	e18a380b 	orr	r3, sl, fp, lsl #16
 c1096f4:	e58d3008 	str	r3, [sp, #8]
 c1096f8:	eaffff9c 	b	c109570 <__divdi3+0x1bc>
 c1096fc:	e2641020 	rsb	r1, r4, #32
 c109700:	e1a00139 	lsr	r0, r9, r1
 c109704:	e1a0213b 	lsr	r2, fp, r1
 c109708:	e180a41a 	orr	sl, r0, sl, lsl r4
 c10970c:	e1a06138 	lsr	r6, r8, r1
 c109710:	e1828418 	orr	r8, r2, r8, lsl r4
 c109714:	e1a0380a 	lsl	r3, sl, #16
 c109718:	e1a0b82a 	lsr	fp, sl, #16
 c10971c:	e1a0e823 	lsr	lr, r3, #16
 c109720:	e1a0100b 	mov	r1, fp
 c109724:	e1a00006 	mov	r0, r6
 c109728:	e58d8008 	str	r8, [sp, #8]
 c10972c:	e58de00c 	str	lr, [sp, #12]
 c109730:	ebfffe58 	bl	c109098 <__aeabi_uidiv>
 c109734:	e1a0100b 	mov	r1, fp
 c109738:	e1a08000 	mov	r8, r0
 c10973c:	e1a00006 	mov	r0, r6
 c109740:	ebfffe91 	bl	c10918c <__aeabi_uidivmod>
 c109744:	e59dc00c 	ldr	ip, [sp, #12]
 c109748:	e002089c 	mul	r2, ip, r8
 c10974c:	e59d3008 	ldr	r3, [sp, #8]
 c109750:	e1a06823 	lsr	r6, r3, #16
 c109754:	e1861801 	orr	r1, r6, r1, lsl #16
 c109758:	e1520001 	cmp	r2, r1
 c10975c:	e1a03419 	lsl	r3, r9, r4
 c109760:	9a000002 	bls	c109770 <__divdi3+0x3bc>
 c109764:	e091100a 	adds	r1, r1, sl
 c109768:	e2488001 	sub	r8, r8, #1
 c10976c:	3a000032 	bcc	c10983c <__divdi3+0x488>
 c109770:	e0629001 	rsb	r9, r2, r1
 c109774:	e1a00009 	mov	r0, r9
 c109778:	e1a0100b 	mov	r1, fp
 c10977c:	e58d3004 	str	r3, [sp, #4]
 c109780:	ebfffe44 	bl	c109098 <__aeabi_uidiv>
 c109784:	e1a0100b 	mov	r1, fp
 c109788:	e1a06000 	mov	r6, r0
 c10978c:	e1a00009 	mov	r0, r9
 c109790:	ebfffe7d 	bl	c10918c <__aeabi_uidivmod>
 c109794:	e59d000c 	ldr	r0, [sp, #12]
 c109798:	e0020690 	mul	r2, r0, r6
 c10979c:	e59d3008 	ldr	r3, [sp, #8]
 c1097a0:	e1a0c803 	lsl	ip, r3, #16
 c1097a4:	e1a0982c 	lsr	r9, ip, #16
 c1097a8:	e1890801 	orr	r0, r9, r1, lsl #16
 c1097ac:	e1520000 	cmp	r2, r0
 c1097b0:	e59d3004 	ldr	r3, [sp, #4]
 c1097b4:	9a000002 	bls	c1097c4 <__divdi3+0x410>
 c1097b8:	e090000a 	adds	r0, r0, sl
 c1097bc:	e2466001 	sub	r6, r6, #1
 c1097c0:	3a000019 	bcc	c10982c <__divdi3+0x478>
 c1097c4:	e062e000 	rsb	lr, r2, r0
 c1097c8:	e1866808 	orr	r6, r6, r8, lsl #16
 c1097cc:	e1a02826 	lsr	r2, r6, #16
 c1097d0:	e1a01823 	lsr	r1, r3, #16
 c1097d4:	e1c6c802 	bic	ip, r6, r2, lsl #16
 c1097d8:	e1c39801 	bic	r9, r3, r1, lsl #16
 c1097dc:	e003099c 	mul	r3, ip, r9
 c1097e0:	e0090992 	mul	r9, r2, r9
 c1097e4:	e00c0c91 	mul	ip, r1, ip
 c1097e8:	e0010192 	mul	r1, r2, r1
 c1097ec:	e099c00c 	adds	ip, r9, ip
 c1097f0:	22811801 	addcs	r1, r1, #65536	; 0x10000
 c1097f4:	e093380c 	adds	r3, r3, ip, lsl #16
 c1097f8:	e0a1182c 	adc	r1, r1, ip, lsr #16
 c1097fc:	e15e0001 	cmp	lr, r1
 c109800:	3a000006 	bcc	c109820 <__divdi3+0x46c>
 c109804:	13a02000 	movne	r2, #0
 c109808:	03a02001 	moveq	r2, #1
 c10980c:	e1530415 	cmp	r3, r5, lsl r4
 c109810:	93a09000 	movls	r9, #0
 c109814:	82029001 	andhi	r9, r2, #1
 c109818:	e3590000 	cmp	r9, #0
 c10981c:	0affff28 	beq	c1094c4 <__divdi3+0x110>
 c109820:	e2466001 	sub	r6, r6, #1
 c109824:	e3a09000 	mov	r9, #0
 c109828:	eaffff25 	b	c1094c4 <__divdi3+0x110>
 c10982c:	e1520000 	cmp	r2, r0
 c109830:	82466001 	subhi	r6, r6, #1
 c109834:	8080000a 	addhi	r0, r0, sl
 c109838:	eaffffe1 	b	c1097c4 <__divdi3+0x410>
 c10983c:	e1520001 	cmp	r2, r1
 c109840:	82488001 	subhi	r8, r8, #1
 c109844:	8081100a 	addhi	r1, r1, sl
 c109848:	eaffffc8 	b	c109770 <__divdi3+0x3bc>
 c10984c:	e1530006 	cmp	r3, r6
 c109850:	824bb001 	subhi	fp, fp, #1
 c109854:	80866004 	addhi	r6, r6, r4
 c109858:	eaffff8e 	b	c109698 <__divdi3+0x2e4>

0c10985c <__udivdi3>:
 c10985c:	e92d4ff0 	push	{r4, r5, r6, r7, r8, r9, sl, fp, lr}
 c109860:	e2538000 	subs	r8, r3, #0
 c109864:	e24dd00c 	sub	sp, sp, #12
 c109868:	e1a05000 	mov	r5, r0
 c10986c:	e1a04001 	mov	r4, r1
 c109870:	e1a06002 	mov	r6, r2
 c109874:	e1a0a002 	mov	sl, r2
 c109878:	e1a0b000 	mov	fp, r0
 c10987c:	e1a07001 	mov	r7, r1
 c109880:	1a000037 	bne	c109964 <__udivdi3+0x108>
 c109884:	e1520001 	cmp	r2, r1
 c109888:	9a000045 	bls	c1099a4 <__udivdi3+0x148>
 c10988c:	e1a00002 	mov	r0, r2
 c109890:	eb0000fe 	bl	c109c90 <__clzsi2>
 c109894:	e3500000 	cmp	r0, #0
 c109898:	12603020 	rsbne	r3, r0, #32
 c10989c:	11a03335 	lsrne	r3, r5, r3
 c1098a0:	11a0a016 	lslne	sl, r6, r0
 c1098a4:	11837014 	orrne	r7, r3, r4, lsl r0
 c1098a8:	e1a0482a 	lsr	r4, sl, #16
 c1098ac:	11a0b015 	lslne	fp, r5, r0
 c1098b0:	e1a01004 	mov	r1, r4
 c1098b4:	e1a00007 	mov	r0, r7
 c1098b8:	ebfffdf6 	bl	c109098 <__aeabi_uidiv>
 c1098bc:	e1a01004 	mov	r1, r4
 c1098c0:	e1a08000 	mov	r8, r0
 c1098c4:	e1a00007 	mov	r0, r7
 c1098c8:	ebfffe2f 	bl	c10918c <__aeabi_uidivmod>
 c1098cc:	e1a0680a 	lsl	r6, sl, #16
 c1098d0:	e1a06826 	lsr	r6, r6, #16
 c1098d4:	e0030896 	mul	r3, r6, r8
 c1098d8:	e1a0782b 	lsr	r7, fp, #16
 c1098dc:	e1877801 	orr	r7, r7, r1, lsl #16
 c1098e0:	e1530007 	cmp	r3, r7
 c1098e4:	9a000005 	bls	c109900 <__udivdi3+0xa4>
 c1098e8:	e097700a 	adds	r7, r7, sl
 c1098ec:	e2488001 	sub	r8, r8, #1
 c1098f0:	2a000002 	bcs	c109900 <__udivdi3+0xa4>
 c1098f4:	e1530007 	cmp	r3, r7
 c1098f8:	82488001 	subhi	r8, r8, #1
 c1098fc:	8087700a 	addhi	r7, r7, sl
 c109900:	e0637007 	rsb	r7, r3, r7
 c109904:	e1a01004 	mov	r1, r4
 c109908:	e1a00007 	mov	r0, r7
 c10990c:	ebfffde1 	bl	c109098 <__aeabi_uidiv>
 c109910:	e1a01004 	mov	r1, r4
 c109914:	e1a05000 	mov	r5, r0
 c109918:	e1a00007 	mov	r0, r7
 c10991c:	ebfffe1a 	bl	c10918c <__aeabi_uidivmod>
 c109920:	e0060695 	mul	r6, r5, r6
 c109924:	e1a0080b 	lsl	r0, fp, #16
 c109928:	e1a0b820 	lsr	fp, r0, #16
 c10992c:	e18bb801 	orr	fp, fp, r1, lsl #16
 c109930:	e156000b 	cmp	r6, fp
 c109934:	9a000004 	bls	c10994c <__udivdi3+0xf0>
 c109938:	e09bb00a 	adds	fp, fp, sl
 c10993c:	e2455001 	sub	r5, r5, #1
 c109940:	2a000001 	bcs	c10994c <__udivdi3+0xf0>
 c109944:	e156000b 	cmp	r6, fp
 c109948:	82455001 	subhi	r5, r5, #1
 c10994c:	e1858808 	orr	r8, r5, r8, lsl #16
 c109950:	e3a01000 	mov	r1, #0
 c109954:	e1a00008 	mov	r0, r8
 c109958:	e28dd00c 	add	sp, sp, #12
 c10995c:	e8bd4ff0 	pop	{r4, r5, r6, r7, r8, r9, sl, fp, lr}
 c109960:	e12fff1e 	bx	lr
 c109964:	e1580001 	cmp	r8, r1
 c109968:	83a01000 	movhi	r1, #0
 c10996c:	81a08001 	movhi	r8, r1
 c109970:	8afffff7 	bhi	c109954 <__udivdi3+0xf8>
 c109974:	e1a00008 	mov	r0, r8
 c109978:	eb0000c4 	bl	c109c90 <__clzsi2>
 c10997c:	e2507000 	subs	r7, r0, #0
 c109980:	1a00003e 	bne	c109a80 <__udivdi3+0x224>
 c109984:	e1580004 	cmp	r8, r4
 c109988:	21560005 	cmpcs	r6, r5
 c10998c:	83a01000 	movhi	r1, #0
 c109990:	93a01001 	movls	r1, #1
 c109994:	93a08001 	movls	r8, #1
 c109998:	91a01007 	movls	r1, r7
 c10999c:	81a08001 	movhi	r8, r1
 c1099a0:	eaffffeb 	b	c109954 <__udivdi3+0xf8>
 c1099a4:	e3520000 	cmp	r2, #0
 c1099a8:	1a000003 	bne	c1099bc <__udivdi3+0x160>
 c1099ac:	e3a00001 	mov	r0, #1
 c1099b0:	e1a01002 	mov	r1, r2
 c1099b4:	ebfffdb7 	bl	c109098 <__aeabi_uidiv>
 c1099b8:	e1a0a000 	mov	sl, r0
 c1099bc:	e1a0000a 	mov	r0, sl
 c1099c0:	eb0000b2 	bl	c109c90 <__clzsi2>
 c1099c4:	e2503000 	subs	r3, r0, #0
 c1099c8:	1a000075 	bne	c109ba4 <__udivdi3+0x348>
 c1099cc:	e1a0180a 	lsl	r1, sl, #16
 c1099d0:	e06a4004 	rsb	r4, sl, r4
 c1099d4:	e1a0982a 	lsr	r9, sl, #16
 c1099d8:	e1a06821 	lsr	r6, r1, #16
 c1099dc:	e3a07001 	mov	r7, #1
 c1099e0:	e1a01009 	mov	r1, r9
 c1099e4:	e1a00004 	mov	r0, r4
 c1099e8:	ebfffdaa 	bl	c109098 <__aeabi_uidiv>
 c1099ec:	e1a01009 	mov	r1, r9
 c1099f0:	e1a05000 	mov	r5, r0
 c1099f4:	e1a00004 	mov	r0, r4
 c1099f8:	ebfffde3 	bl	c10918c <__aeabi_uidivmod>
 c1099fc:	e0030596 	mul	r3, r6, r5
 c109a00:	e1a0282b 	lsr	r2, fp, #16
 c109a04:	e1824801 	orr	r4, r2, r1, lsl #16
 c109a08:	e1530004 	cmp	r3, r4
 c109a0c:	9a000005 	bls	c109a28 <__udivdi3+0x1cc>
 c109a10:	e094400a 	adds	r4, r4, sl
 c109a14:	e2455001 	sub	r5, r5, #1
 c109a18:	2a000002 	bcs	c109a28 <__udivdi3+0x1cc>
 c109a1c:	e1530004 	cmp	r3, r4
 c109a20:	82455001 	subhi	r5, r5, #1
 c109a24:	8084400a 	addhi	r4, r4, sl
 c109a28:	e0634004 	rsb	r4, r3, r4
 c109a2c:	e1a01009 	mov	r1, r9
 c109a30:	e1a00004 	mov	r0, r4
 c109a34:	ebfffd97 	bl	c109098 <__aeabi_uidiv>
 c109a38:	e1a01009 	mov	r1, r9
 c109a3c:	e1a08000 	mov	r8, r0
 c109a40:	e1a00004 	mov	r0, r4
 c109a44:	ebfffdd0 	bl	c10918c <__aeabi_uidivmod>
 c109a48:	e0060698 	mul	r6, r8, r6
 c109a4c:	e1a0b80b 	lsl	fp, fp, #16
 c109a50:	e1a0382b 	lsr	r3, fp, #16
 c109a54:	e183b801 	orr	fp, r3, r1, lsl #16
 c109a58:	e156000b 	cmp	r6, fp
 c109a5c:	9a000004 	bls	c109a74 <__udivdi3+0x218>
 c109a60:	e09bb00a 	adds	fp, fp, sl
 c109a64:	e2488001 	sub	r8, r8, #1
 c109a68:	2a000001 	bcs	c109a74 <__udivdi3+0x218>
 c109a6c:	e156000b 	cmp	r6, fp
 c109a70:	82488001 	subhi	r8, r8, #1
 c109a74:	e1888805 	orr	r8, r8, r5, lsl #16
 c109a78:	e1a01007 	mov	r1, r7
 c109a7c:	eaffffb4 	b	c109954 <__udivdi3+0xf8>
 c109a80:	e267a020 	rsb	sl, r7, #32
 c109a84:	e1a01a36 	lsr	r1, r6, sl
 c109a88:	e1a02a35 	lsr	r2, r5, sl
 c109a8c:	e1818718 	orr	r8, r1, r8, lsl r7
 c109a90:	e1a0ba34 	lsr	fp, r4, sl
 c109a94:	e1829714 	orr	r9, r2, r4, lsl r7
 c109a98:	e1a0a828 	lsr	sl, r8, #16
 c109a9c:	e1a0e808 	lsl	lr, r8, #16
 c109aa0:	e1a0100a 	mov	r1, sl
 c109aa4:	e1a0000b 	mov	r0, fp
 c109aa8:	e1a0482e 	lsr	r4, lr, #16
 c109aac:	e58d9004 	str	r9, [sp, #4]
 c109ab0:	ebfffd78 	bl	c109098 <__aeabi_uidiv>
 c109ab4:	e1a0100a 	mov	r1, sl
 c109ab8:	e1a09000 	mov	r9, r0
 c109abc:	e1a0000b 	mov	r0, fp
 c109ac0:	ebfffdb1 	bl	c10918c <__aeabi_uidivmod>
 c109ac4:	e0020994 	mul	r2, r4, r9
 c109ac8:	e59d0004 	ldr	r0, [sp, #4]
 c109acc:	e1a0c820 	lsr	ip, r0, #16
 c109ad0:	e18cb801 	orr	fp, ip, r1, lsl #16
 c109ad4:	e152000b 	cmp	r2, fp
 c109ad8:	e1a03716 	lsl	r3, r6, r7
 c109adc:	9a000002 	bls	c109aec <__udivdi3+0x290>
 c109ae0:	e09bb008 	adds	fp, fp, r8
 c109ae4:	e2499001 	sub	r9, r9, #1
 c109ae8:	3a000060 	bcc	c109c70 <__udivdi3+0x414>
 c109aec:	e062b00b 	rsb	fp, r2, fp
 c109af0:	e1a0100a 	mov	r1, sl
 c109af4:	e1a0000b 	mov	r0, fp
 c109af8:	e58d3000 	str	r3, [sp]
 c109afc:	ebfffd65 	bl	c109098 <__aeabi_uidiv>
 c109b00:	e1a0100a 	mov	r1, sl
 c109b04:	e1a06000 	mov	r6, r0
 c109b08:	e1a0000b 	mov	r0, fp
 c109b0c:	ebfffd9e 	bl	c10918c <__aeabi_uidivmod>
 c109b10:	e0040496 	mul	r4, r6, r4
 c109b14:	e59d0004 	ldr	r0, [sp, #4]
 c109b18:	e1a0c800 	lsl	ip, r0, #16
 c109b1c:	e1a0382c 	lsr	r3, ip, #16
 c109b20:	e1832801 	orr	r2, r3, r1, lsl #16
 c109b24:	e1540002 	cmp	r4, r2
 c109b28:	e59d3000 	ldr	r3, [sp]
 c109b2c:	9a000002 	bls	c109b3c <__udivdi3+0x2e0>
 c109b30:	e0922008 	adds	r2, r2, r8
 c109b34:	e2466001 	sub	r6, r6, #1
 c109b38:	3a000048 	bcc	c109c60 <__udivdi3+0x404>
 c109b3c:	e0644002 	rsb	r4, r4, r2
 c109b40:	e1868809 	orr	r8, r6, r9, lsl #16
 c109b44:	e1a02828 	lsr	r2, r8, #16
 c109b48:	e1a0e823 	lsr	lr, r3, #16
 c109b4c:	e1c80802 	bic	r0, r8, r2, lsl #16
 c109b50:	e1c3680e 	bic	r6, r3, lr, lsl #16
 c109b54:	e0030690 	mul	r3, r0, r6
 c109b58:	e0060692 	mul	r6, r2, r6
 c109b5c:	e000009e 	mul	r0, lr, r0
 c109b60:	e00e0e92 	mul	lr, r2, lr
 c109b64:	e0960000 	adds	r0, r6, r0
 c109b68:	228ee801 	addcs	lr, lr, #65536	; 0x10000
 c109b6c:	e0933800 	adds	r3, r3, r0, lsl #16
 c109b70:	e0aee820 	adc	lr, lr, r0, lsr #16
 c109b74:	e154000e 	cmp	r4, lr
 c109b78:	3a000006 	bcc	c109b98 <__udivdi3+0x33c>
 c109b7c:	13a02000 	movne	r2, #0
 c109b80:	03a02001 	moveq	r2, #1
 c109b84:	e1530715 	cmp	r3, r5, lsl r7
 c109b88:	93a01000 	movls	r1, #0
 c109b8c:	82021001 	andhi	r1, r2, #1
 c109b90:	e3510000 	cmp	r1, #0
 c109b94:	0affff6e 	beq	c109954 <__udivdi3+0xf8>
 c109b98:	e2488001 	sub	r8, r8, #1
 c109b9c:	e3a01000 	mov	r1, #0
 c109ba0:	eaffff6b 	b	c109954 <__udivdi3+0xf8>
 c109ba4:	e2639020 	rsb	r9, r3, #32
 c109ba8:	e1a0a31a 	lsl	sl, sl, r3
 c109bac:	e1a07934 	lsr	r7, r4, r9
 c109bb0:	e1a08935 	lsr	r8, r5, r9
 c109bb4:	e1a0982a 	lsr	r9, sl, #16
 c109bb8:	e1a0280a 	lsl	r2, sl, #16
 c109bbc:	e1a01009 	mov	r1, r9
 c109bc0:	e1a00007 	mov	r0, r7
 c109bc4:	e1888314 	orr	r8, r8, r4, lsl r3
 c109bc8:	e1a0b315 	lsl	fp, r5, r3
 c109bcc:	e1a06822 	lsr	r6, r2, #16
 c109bd0:	ebfffd30 	bl	c109098 <__aeabi_uidiv>
 c109bd4:	e1a01009 	mov	r1, r9
 c109bd8:	e1a05000 	mov	r5, r0
 c109bdc:	e1a00007 	mov	r0, r7
 c109be0:	ebfffd69 	bl	c10918c <__aeabi_uidivmod>
 c109be4:	e0030596 	mul	r3, r6, r5
 c109be8:	e1a04828 	lsr	r4, r8, #16
 c109bec:	e1844801 	orr	r4, r4, r1, lsl #16
 c109bf0:	e1530004 	cmp	r3, r4
 c109bf4:	9a000002 	bls	c109c04 <__udivdi3+0x3a8>
 c109bf8:	e094400a 	adds	r4, r4, sl
 c109bfc:	e2455001 	sub	r5, r5, #1
 c109c00:	3a00001e 	bcc	c109c80 <__udivdi3+0x424>
 c109c04:	e0634004 	rsb	r4, r3, r4
 c109c08:	e1a01009 	mov	r1, r9
 c109c0c:	e1a00004 	mov	r0, r4
 c109c10:	ebfffd20 	bl	c109098 <__aeabi_uidiv>
 c109c14:	e1a01009 	mov	r1, r9
 c109c18:	e1a07000 	mov	r7, r0
 c109c1c:	e1a00004 	mov	r0, r4
 c109c20:	ebfffd59 	bl	c10918c <__aeabi_uidivmod>
 c109c24:	e0030796 	mul	r3, r6, r7
 c109c28:	e1a00808 	lsl	r0, r8, #16
 c109c2c:	e1a0c820 	lsr	ip, r0, #16
 c109c30:	e18c4801 	orr	r4, ip, r1, lsl #16
 c109c34:	e1530004 	cmp	r3, r4
 c109c38:	9a000005 	bls	c109c54 <__udivdi3+0x3f8>
 c109c3c:	e094400a 	adds	r4, r4, sl
 c109c40:	e2477001 	sub	r7, r7, #1
 c109c44:	2a000002 	bcs	c109c54 <__udivdi3+0x3f8>
 c109c48:	e1530004 	cmp	r3, r4
 c109c4c:	82477001 	subhi	r7, r7, #1
 c109c50:	8084400a 	addhi	r4, r4, sl
 c109c54:	e0634004 	rsb	r4, r3, r4
 c109c58:	e1877805 	orr	r7, r7, r5, lsl #16
 c109c5c:	eaffff5f 	b	c1099e0 <__udivdi3+0x184>
 c109c60:	e1540002 	cmp	r4, r2
 c109c64:	82466001 	subhi	r6, r6, #1
 c109c68:	80822008 	addhi	r2, r2, r8
 c109c6c:	eaffffb2 	b	c109b3c <__udivdi3+0x2e0>
 c109c70:	e152000b 	cmp	r2, fp
 c109c74:	82499001 	subhi	r9, r9, #1
 c109c78:	808bb008 	addhi	fp, fp, r8
 c109c7c:	eaffff9a 	b	c109aec <__udivdi3+0x290>
 c109c80:	e1530004 	cmp	r3, r4
 c109c84:	82455001 	subhi	r5, r5, #1
 c109c88:	8084400a 	addhi	r4, r4, sl
 c109c8c:	eaffffdc 	b	c109c04 <__udivdi3+0x3a8>

0c109c90 <__clzsi2>:
 c109c90:	e3a0101c 	mov	r1, #28
 c109c94:	e3500801 	cmp	r0, #65536	; 0x10000
 c109c98:	21a00820 	lsrcs	r0, r0, #16
 c109c9c:	22411010 	subcs	r1, r1, #16
 c109ca0:	e3500c01 	cmp	r0, #256	; 0x100
 c109ca4:	21a00420 	lsrcs	r0, r0, #8
 c109ca8:	22411008 	subcs	r1, r1, #8
 c109cac:	e3500010 	cmp	r0, #16
 c109cb0:	21a00220 	lsrcs	r0, r0, #4
 c109cb4:	22411004 	subcs	r1, r1, #4
 c109cb8:	e28f2008 	add	r2, pc, #8
 c109cbc:	e7d20000 	ldrb	r0, [r2, r0]
 c109cc0:	e0800001 	add	r0, r0, r1
 c109cc4:	e12fff1e 	bx	lr
 c109cc8:	02020304 	.word	0x02020304
 c109ccc:	01010101 	.word	0x01010101
	...
